 mysqld

 Timestamp is 49975028 (Sun Feb 15 00:13:44 2009)

 Preferred load address is 00400000

 Start         Length     Name                   Class
 0001:00000000 003ab467H .text                   CODE
 0001:003ab470 000070b3H .text$yc                CODE
 0001:003b2530 00002fe0H .text$yd                CODE
 0002:00000000 00000104H .CRT$XCA                DATA
 0002:00000104 00000941H .CRT$XCU                DATA
 0002:00000a48 00000104H .CRT$XCZ                DATA
 0002:00000b4c 00000104H .CRT$XIA                DATA
 0002:00000c50 0000011cH .CRT$XIC                DATA
 0002:00000d6c 00000104H .CRT$XIY                DATA
 0002:00000e70 00000104H .CRT$XIZ                DATA
 0002:00000f74 00000004H .CRT$XLA                DATA
 0002:00000f78 00000004H .CRT$XLZ                DATA
 0002:00000f7c 00000104H .CRT$XPA                DATA
 0002:00001080 00000104H .CRT$XPX                DATA
 0002:00001184 00000104H .CRT$XPXA               DATA
 0002:00001288 00000104H .CRT$XPZ                DATA
 0002:0000138c 00000104H .CRT$XTA                DATA
 0002:00001490 00000104H .CRT$XTZ                DATA
 0002:000015a0 000ee4aeH .rdata                  DATA
 0002:000efa50 0000011cH .rdata$T                DATA
 0002:000efb6c 00000185H .rdata$debug            DATA
 0002:000efcf4 000178e7H .rdata$r                DATA
 0002:001075e0 0000010eH .rdata$sxdata           DATA
 0002:001076f0 00000104H .rtc$IAA                DATA
 0002:001077f4 00000104H .rtc$IZZ                DATA
 0002:001078f8 00000104H .rtc$TAA                DATA
 0002:001079fc 00000104H .rtc$TZZ                DATA
 0002:00107b00 00001045H .xdata$x                DATA
 0002:00108b45 00000000H .edata                  DATA
 0003:00000000 0017bb95H .data                   DATA
 0003:0017bba0 00019e48H .bss                    DATA
 0004:00000000 00000050H .idata$2                DATA
 0004:00000050 00000014H .idata$3                DATA
 0004:00000064 000004dcH .idata$4                DATA
 0004:00000540 000004dcH .idata$5                DATA
 0004:00000a1c 000010e6H .idata$6                DATA
 0005:00000000 00000101H .tls                    DATA
 0005:00000108 00000198H .tls$                   DATA
 0005:000002a0 00000101H .tls$ZZZ                DATA
 0006:00000000 00000169H .rsrc$01                DATA
 0006:00000170 000001dcH .rsrc$02                DATA

  Address         Publics by Value              Rva+Base       Lib:Object

 0000:00000000       __except_list              00000000     <absolute>
 0000:00000003       ___safe_se_handler_count   00000003     <absolute>
 0000:0000002c       __tls_array                0000002c     <absolute>
 0000:00000000       ___ImageBase               00400000     <linker-defined>
 0001:0001c340       _my_connect                0041d340 f   client.obj
 0001:0001c360       _set_mysql_error           0041d360 f   client.obj
 0001:0001c3d0       _net_clear_error           0041d3d0 f   client.obj
 0001:0001c450       _create_named_pipe         0041d450 f   client.obj
 0001:0001c6a0       _free_rows                 0041d6a0 f   client.obj
 0001:0001c6d0       _free_old_query            0041d6d0 f   client.obj
 0001:0001c780       _end_server                0041d780 f   client.obj
 0001:0001c7d0       _mysql_free_result@4       0041d7d0 f   client.obj
 0001:0001c910       _mysql_read_default_options 0041d910 f   client.obj
 0001:0001cec0       _unpack_fields             0041dec0 f   client.obj
 0001:0001d2a0       _mysql_init@4              0041e2a0 f   client.obj
 0001:0001d390       _mysql_ssl_set@24          0041e390 f   client.obj
 0001:0001d510       _mysql_get_ssl_cipher@4    0041e510 f   client.obj
 0001:0001d690       _mysql_init_character_set  0041e690 f   client.obj
 0001:0001d930       _mysql_select_db@8         0041e930 f   client.obj
 0001:0001db40       _mysql_detach_stmt_list    0041eb40 f   client.obj
 0001:0001db50       _mysql_close@4             0041eb50 f   client.obj
 0001:0001dc30       _mysql_send_query@12       0041ec30 f   client.obj
 0001:0001dc70       _mysql_real_query@12       0041ec70 f   client.obj
 0001:0001dcc0       _mysql_store_result@4      0041ecc0 f   client.obj
 0001:0001df90       _mysql_fetch_lengths@4     0041ef90 f   client.obj
 0001:0001dfd0       _mysql_options@12          0041efd0 f   client.obj
 0001:0001e320       _mysql_num_rows@4          0041f320 f   client.obj
 0001:0001e330       _mysql_num_fields@4        0041f330 f   client.obj
 0001:0001e340       _mysql_errno@4             0041f340 f   client.obj
 0001:0001e360       _mysql_error@4             0041f360 f   client.obj
 0001:0001e380       _mysql_get_server_version@4 0041f380 f   client.obj
 0001:0001e3f0       _mysql_set_character_set@8 0041f3f0 f   client.obj
 0001:0001e540       _cli_safe_read             0041f540 f   client.obj
 0001:0001e720       _cli_read_rows             0041f720 f   client.obj
 0001:0001eb20       _mysql_real_connect@32     0041fb20 f   client.obj
 0001:0001fac0       _mysql_reconnect           00420ac0 f   client.obj
 0001:0001ffb0       _mysql_fetch_row@4         00420fb0 f   client.obj
 0001:000200a0       _cli_advanced_command      004210a0 f   client.obj
 0001:00020280       ??_H@YGXPAXIHP6EPAX0@Z@Z   00421280 f i derror.obj
 0001:000202c0       ??_I@YGXPAXIHP6EX0@Z@Z     004212c0 f i derror.obj
 0001:000206c0       ?init_errmessage@@YA_NXZ   004216c0 f   derror.obj
 0001:00020790       ?load_des_key_file@@YA_NPBD@Z 00421790 f   des_key_file.obj
 0001:00020a70       ?readfrm@@YAHPBDPAPAEPAI@Z 00421a70 f   discover.obj
 0001:00020ba0       ?writefrm@@YAHPBDPBEI@Z    00421ba0 f   discover.obj
 0001:00020c70       _init_client_errs          00421c70 f   errmsg.obj
 0001:00020c90       _finish_client_errs        00421c90 f   errmsg.obj
 0001:00020cb0       ?rint@@YANN@Z              00421cb0 f i field.obj
 0001:00020d10       ?ulonglong2double@@YAN_K@Z 00421d10 f i field.obj
 0001:00020d40       ?double2ulonglong@@YA_KN@Z 00421d40 f i field.obj
 0001:00020d80       ?length@?$Bitmap@$0EA@@@QBEIXZ 00421d80 f i field.obj
 0001:00020d90       ?set_all@?$Bitmap@$0EA@@@QAEXXZ 00421d90 f i field.obj
 0001:00020db0       ?_current_thd@@YAPAVTHD@@XZ 00421db0 f i field.obj
 0001:00020dd0       ??0String@@QAE@XZ          00421dd0 f i field.obj
 0001:00020df0       ??0String@@QAE@PBDIPAUcharset_info_st@@@Z 00421df0 f i field.obj
 0001:00020e20       ??0String@@QAE@PADIPAUcharset_info_st@@@Z 00421e20 f i field.obj
 0001:00020e50       ?set_charset@String@@QAEXPAUcharset_info_st@@@Z 00421e50 f i field.obj
 0001:00020e60       ?charset@String@@QBEPAUcharset_info_st@@XZ 00421e60 f i field.obj
 0001:00020e70       ?length@String@@QBEIXZ     00421e70 f i field.obj
 0001:00020e80       ?alloced_length@String@@QBEIXZ 00421e80 f i field.obj
 0001:00020e90       ?length@String@@QAEXI@Z    00421e90 f i field.obj
 0001:00020ea0       ?ptr@String@@QBEPBDXZ      00421ea0 f i field.obj
 0001:00020eb0       ?c_ptr@String@@QAEPADXZ    00421eb0 f i field.obj
 0001:00020ee0       ?c_ptr_quick@String@@QAEPADXZ 00421ee0 f i field.obj
 0001:00020f00       ?free@String@@QAEXXZ       00421f00 f i field.obj
 0001:00020f40       ?alloc@String@@QAE_NI@Z    00421f40 f i field.obj
 0001:00020f60       ?append@String@@QAE_ND@Z   00421f60 f i field.obj
 0001:00020fe0       ??2Sql_alloc@@SAPAXI@Z     00421fe0 f i field.obj
 0001:00020ff0       ??0Sql_alloc@@QAE@XZ       00421ff0 f i field.obj
 0001:00021000       ??1Sql_alloc@@QAE@XZ       00422000 f i field.obj
 0001:00021010       ??0list_node@@QAE@PAXPAU0@@Z 00422010 f i field.obj
 0001:00021030       ?empty@base_list@@QAEXXZ   00422030 f i field.obj
 0001:00021050       ??0base_list@@QAE@XZ       00422050 f i field.obj
 0001:00021070       ?push_back@base_list@@QAE_NPAX@Z 00422070 f i field.obj
 0001:000210d0       ?init@base_list_iterator@@QAEXAAVbase_list@@@Z 004220d0 f i field.obj
 0001:000210f0       ?next@base_list_iterator@@QAEPAXXZ 004220f0 f i field.obj
 0001:00021110       ?init@my_decimal@@QAEXXZ   00422110 f i field.obj
 0001:00021130       ??0my_decimal@@QAE@XZ      00422130 f i field.obj
 0001:00021150       ?fix_buffer_pointer@my_decimal@@QAEXXZ 00422150 f i field.obj
 0001:00021160       ?sign@my_decimal@@QBE_NXZ  00422160 f i field.obj
 0001:00021170       ?sign@my_decimal@@QAEX_N@Z 00422170 f i field.obj
 0001:00021180       ?max_my_decimal@@YAXPAVmy_decimal@@HH@Z 00422180 f i field.obj
 0001:000211a0       ?max_internal_decimal@@YAXPAVmy_decimal@@@Z 004221a0 f i field.obj
 0001:000211c0       ?check_result@@YAHIH@Z     004221c0 f i field.obj
 0001:000211e0       ?check_result_and_overflow@@YAHIHPAVmy_decimal@@@Z 004221e0 f i field.obj
 0001:00021240       ?my_decimal_length_to_precision@@YAIII_N@Z 00422240 f i field.obj
 0001:00021290       ?my_decimal_precision_to_length@@YAIIE_N@Z 00422290 f i field.obj
 0001:000212e0       ?my_decimal_get_binary_size@@YAHII@Z 004222e0 f i field.obj
 0001:000212f0       ?binary2my_decimal@@YAHIPBEPAVmy_decimal@@HH@Z 004222f0 f i field.obj
 0001:00021330       ?my_decimal_set_zero@@YAHPAVmy_decimal@@@Z 00422330 f i field.obj
 0001:00021350       ?my_decimal2int@@YAHIPBVmy_decimal@@DPA_J@Z 00422350 f i field.obj
 0001:000213e0       ?my_decimal2double@@YAHIPBVmy_decimal@@PAN@Z 004223e0 f i field.obj
 0001:00021400       ?double2my_decimal@@YAHINPAVmy_decimal@@@Z 00422400 f i field.obj
 0001:00021470       ?int2my_decimal@@YAHI_JDPAVmy_decimal@@@Z 00422470 f i field.obj
 0001:000214c0       ?get_enum_pack_length@@YAIH@Z 004224c0 f i field.obj
 0001:000214e0       ?get_set_pack_length@@YAIH@Z 004224e0 f i field.obj
 0001:00021510       ??2Field@@SAPAXI@Z         00422510 f i field.obj
 0001:00021520       ??1Field@@UAE@XZ           00422520 f i field.obj
 0001:00021530       ??3Field@@SAXPAXI@Z        00422530 f i field.obj
 0001:00021540       ?val_str@Field@@QAEPAVString@@PAV2@@Z 00422540 f i field.obj
 0001:00021560       ?str_needs_quotes@Field@@UAE_NXZ 00422560 f i field.obj
 0001:00021570       ?cmp_type@Field@@UBE?AW4Item_result@@XZ 00422570 f i field.obj
 0001:00021580       ?cast_to_int_type@Field@@UBE?AW4Item_result@@XZ 00422580 f i field.obj
 0001:00021590       ?eq@Field@@UAE_NPAV1@@Z    00422590 f i field.obj
 0001:000215f0       ?pack_length@Field@@UBEIXZ 004225f0 f i field.obj
 0001:00021600       ?pack_length_in_rec@Field@@UBEIXZ 00422600 f i field.obj
 0001:00021610       ?pack_length_from_metadata@Field@@UAEII@Z 00422610 f i field.obj
 0001:00021620       ?row_pack_length@Field@@UAEIXZ 00422620 f i field.obj
 0001:00021630       ?save_field_metadata@Field@@UAEHPAE@Z 00422630 f i field.obj
 0001:00021640       ?data_length@Field@@UAEIXZ 00422640 f i field.obj
 0001:00021650       ?sort_length@Field@@UBEIXZ 00422650 f i field.obj
 0001:00021660       ?max_data_length@Field@@UBEIXZ 00422660 f i field.obj
 0001:00021670       ?reset@Field@@UAEHXZ       00422670 f i field.obj
 0001:000216a0       ?reset_fields@Field@@UAEXXZ 004226a0 f i field.obj
 0001:000216b0       ?set_default@Field@@UAEXXZ 004226b0 f i field.obj
 0001:00021710       ?binary@Field@@UBE_NXZ     00422710 f i field.obj
 0001:00021720       ?zero_pack@Field@@UBE_NXZ  00422720 f i field.obj
 0001:00021730       ?key_type@Field@@UBE?AW4ha_base_keytype@@XZ 00422730 f i field.obj
 0001:00021740       ?key_length@Field@@UBEIXZ  00422740 f i field.obj
 0001:00021750       ?real_type@Field@@UBE?AW4enum_field_types@@XZ 00422750 f i field.obj
 0001:00021760       ?cmp_max@Field@@UAEHPBE0I@Z 00422760 f i field.obj
 0001:00021780       ?cmp_binary@Field@@UAEHPBE0I@Z 00422780 f i field.obj
 0001:00021840       ?cmp_offset@Field@@UAEHI@Z 00422840 f i field.obj
 0001:00021860       ?cmp_binary_offset@Field@@UAEHI@Z 00422860 f i field.obj
 0001:00021890       ?key_cmp@Field@@UAEHPBE0@Z 00422890 f i field.obj
 0001:000218a0       ?key_cmp@Field@@UAEHPBEI@Z 004228a0 f i field.obj
 0001:000218c0       ?decimals@Field@@UBEIXZ    004228c0 f i field.obj
 0001:000218d0       ?is_null@Field@@QAE_NJ@Z   004228d0 f i field.obj
 0001:00021910       ?is_real_null@Field@@QAE_NJ@Z 00422910 f i field.obj
 0001:00021940       ?set_null@Field@@QAEXJ@Z   00422940 f i field.obj
 0001:00021960       ?set_notnull@Field@@QAEXJ@Z 00422960 f i field.obj
 0001:00021980       ?maybe_null@Field@@QAE_NXZ 00422980 f i field.obj
 0001:000219b0       ?can_be_compared_as_longlong@Field@@UBE_NXZ 004229b0 f i field.obj
 0001:000219c0       ?free@Field@@UAEXXZ        004229c0 f i field.obj
 0001:000219d0       ?move_field_offset@Field@@UAEXJ@Z 004229d0 f i field.obj
 0001:000219f0       ?get_image@Field@@UAEXPAEIPAUcharset_info_st@@@Z 004229f0 f i field.obj
 0001:00021a10       ?set_image@Field@@UAEXPBEIPAUcharset_info_st@@@Z 00422a10 f i field.obj
 0001:00021a30       ?get_key_image@Field@@UAEIPAEIW4imagetype@1@@Z 00422a30 f i field.obj
 0001:00021a60       ?set_key_image@Field@@UAEXPBEI@Z 00422a60 f i field.obj
 0001:00021a90       ?pack_key@Field@@UAEPAEPAEPBEI_N@Z 00422a90 f i field.obj
 0001:00021aa0       ?pack_key_from_key_image@Field@@UAEPAEPAEPBEI_N@Z 00422aa0 f i field.obj
 0001:00021ab0       ?unpack_key@Field@@UAEPBEPAEPBEI_N@Z 00422ab0 f i field.obj
 0001:00021ac0       ?packed_col_length@Field@@UAEIPBEI@Z 00422ac0 f i field.obj
 0001:00021ad0       ?max_packed_col_length@Field@@UAEII@Z 00422ad0 f i field.obj
 0001:00021ae0       ?pack_cmp@Field@@UAEHPBE0ID@Z 00422ae0 f i field.obj
 0001:00021b00       ?pack_cmp@Field@@UAEHPBEID@Z 00422b00 f i field.obj
 0001:00021b20       ?charset@Field@@UBEPAUcharset_info_st@@XZ 00422b20 f i field.obj
 0001:00021b30       ?sort_charset@Field@@UBEPAUcharset_info_st@@XZ 00422b30 f i field.obj
 0001:00021b40       ?has_charset@Field@@UBE_NXZ 00422b40 f i field.obj
 0001:00021b50       ?set_charset@Field@@UAEXPAUcharset_info_st@@@Z 00422b50 f i field.obj
 0001:00021b60       ?derivation@Field@@UBE?AW4Derivation@@XZ 00422b60 f i field.obj
 0001:00021b70       ?set_derivation@Field@@UAEXW4Derivation@@@Z 00422b70 f i field.obj
 0001:00021b80       ?check_overflow@Field@@QAE_NH@Z 00422b80 f i field.obj
 0001:00021b90       ?init@Field@@QAEXPAUst_table@@@Z 00422b90 f i field.obj
 0001:00021bb0       ?get_geometry_type@Field@@UAE?AW4geometry_type@1@XZ 00422bb0 f i field.obj
 0001:00021bc0       ?do_save_field_metadata@Field@@EAEHPAE@Z 00422bc0 f i field.obj
 0001:00021bd0       ??_GField@@UAEPAXI@Z       00422bd0 f i field.obj
 0001:00021bd0       ??_EField@@UAEPAXI@Z       00422bd0 f i field.obj
 0001:00021be0       ??1Field_str@@UAE@XZ       00422be0 f i field.obj
 0001:00021bf0       ??1Field_longstr@@UAE@XZ   00422bf0 f i field.obj
 0001:00021c00       ??1Field_num@@UAE@XZ       00422c00 f i field.obj
 0001:00021c10       ??1Field_real@@UAE@XZ      00422c10 f i field.obj
 0001:00021c20       ??1Field_tiny@@UAE@XZ      00422c20 f i field.obj
 0001:00021c30       ?store_timestamp@Field_timestamp@@QAEXJ@Z 00422c30 f i field.obj
 0001:00021c40       ?pack_length@Field_blob@@UBEIXZ 00422c40 f i field.obj
 0001:00021c60       ?pack_length_no_ptr@Field_blob@@QBEIXZ 00422c60 f i field.obj
 0001:00021c70       ?get_ptr@Field_blob@@QAEXPAPAE@Z 00422c70 f i field.obj
 0001:00021c90       ??1Field_enum@@UAE@XZ      00422c90 f i field.obj
 0001:00021ca0       ??1base_list@@QAE@XZ       00422ca0 f i field.obj
 0001:00021cb0       ?set@DTCollation@@QAEXPAUcharset_info_st@@W4Derivation@@I@Z 00422cb0 f i field.obj
 0001:00021cd0       ??2Item@@SAPAXI@Z          00422cd0 f i field.obj
 0001:00021ce0       ??0MBR@@QAE@XZ             00422ce0 f i field.obj
 0001:00021d00       ?query_start@THD@@QAE_JXZ  00422d00 f i field.obj
 0001:00021d20       ?really_abort_on_warning@THD@@QAE_NXZ 00422d20 f i field.obj
 0001:00021d50       ?field_type2index@@YAHW4enum_field_types@@@Z 00422d50 f i field.obj
 0001:00021d70       ?field_type_merge@Field@@SA?AW4enum_field_types@@W42@0@Z 00422d70 f   field.obj
 0001:00021de0       ?result_merge_type@Field@@SA?AW4Item_result@@W4enum_field_types@@@Z 00422de0 f   field.obj
 0001:00021e00       ?type_can_have_key_part@Field@@SA_NW4enum_field_types@@@Z 00422e00 f   field.obj
 0001:00021e30       ?prepend_zeros@Field_num@@QAEXPAVString@@@Z 00422e30 f   field.obj
 0001:00021ea0       ?val_int_as_str@Field@@QAEPAVString@@PAV2@D@Z 00422ea0 f   field.obj
 0001:00021f20       ?hash@Field@@UAEXPAK0@Z    00422f20 f   field.obj
 0001:00021fb0       ?do_last_null_byte@Field@@EBEIXZ 00422fb0 f   field.obj
 0001:00021fd0       ?copy_from_tmp@Field@@QAEXH@Z 00422fd0 f   field.obj
 0001:00022020       ?compatible_field_size@Field@@UAEHIPBVRelay_log_info@@@Z 00423020 f   field.obj
 0001:00022060       ?store@Field@@QAEHPBDIPAUcharset_info_st@@W4enum_check_fields@@@Z 00423060 f   field.obj
 0001:000220c0       ?pack@Field@@UAEPAEPAEPBEI_N@Z 004230c0 f   field.obj
 0001:00022100       ?unpack@Field@@UAEPBEPAEPBEI_N@Z 00423100 f   field.obj
 0001:000221b0       ?val_decimal@Field@@UAEPAVmy_decimal@@PAV2@@Z 004231b0 f   field.obj
 0001:000221c0       ?add_zerofill_and_unsigned@Field_num@@QBEXAAVString@@@Z 004231c0 f   field.obj
 0001:00022210       ?make_field@Field@@UAEXPAVSend_field@@@Z 00423210 f   field.obj
 0001:00022300       ?val_decimal@Field_num@@UAEPAVmy_decimal@@PAV2@@Z 00423300 f   field.obj
 0001:00022350       ?make_field@Field_num@@UAEXPAVSend_field@@@Z 00423350 f   field.obj
 0001:00022370       ?val_decimal@Field_str@@UAEPAVmy_decimal@@PAV2@@Z 00423370 f   field.obj
 0001:000223b0       ?fill_cache_field@Field@@QAEIPAUst_cache_field@@@Z 004233b0 f   field.obj
 0001:00022460       ?store_time@Field@@UAEHPAUst_mysql_time@@W4enum_mysql_timestamp_type@@@Z 00423460 f   field.obj
 0001:000224c0       ?optimize_range@Field@@UAE_NII@Z 004234c0 f   field.obj
 0001:000224f0       ?new_key_field@Field@@UAEPAV1@PAUst_mem_root@@PAUst_table@@PAE2I@Z 004234f0 f   field.obj
 0001:00022540       ?clone@Field@@QAEPAV1@PAUst_mem_root@@PAUst_table@@@Z 00423540 f   field.obj
 0001:000225b0       ?sql_type@Field_null@@UBEXAAVString@@@Z 004235b0 f   field.obj
 0001:000225d0       ?val_real@Field_decimal@@UAENXZ 004235d0 f   field.obj
 0001:00022610       ?val_int@Field_decimal@@UAE_JXZ 00423610 f   field.obj
 0001:00022660       ?val_str@Field_decimal@@UAEPAVString@@PAV2@0@Z 00423660 f   field.obj
 0001:000226c0       ?cmp@Field_decimal@@UAEHPBE0@Z 004236c0 f   field.obj
 0001:000227d0       ?sort_string@Field_decimal@@UAEXPAEI@Z 004237d0 f   field.obj
 0001:000228b0       ?sql_type@Field_decimal@@UBEXAAVString@@@Z 004238b0 f   field.obj
 0001:00022920       ?set_value_on_overflow@Field_new_decimal@@QAEXPAVmy_decimal@@_N@Z 00423920 f   field.obj
 0001:00022980       ?val_real@Field_new_decimal@@UAENXZ 00423980 f   field.obj
 0001:000229c0       ?val_int@Field_new_decimal@@UAE_JXZ 004239c0 f   field.obj
 0001:00022a10       ?val_decimal@Field_new_decimal@@UAEPAVmy_decimal@@PAV2@@Z 00423a10 f   field.obj
 0001:00022a50       ?val_str@Field_new_decimal@@UAEPAVString@@PAV2@0@Z 00423a50 f   field.obj
 0001:00022ac0       ?cmp@Field_new_decimal@@UAEHPBE0@Z 00423ac0 f   field.obj
 0001:00022b80       ?sort_string@Field_new_decimal@@UAEXPAEI@Z 00423b80 f   field.obj
 0001:00022ba0       ?sql_type@Field_new_decimal@@UBEXAAVString@@@Z 00423ba0 f   field.obj
 0001:00022bf0       ?do_save_field_metadata@Field_new_decimal@@EAEHPAE@Z 00423bf0 f   field.obj
 0001:00022c20       ?pack_length_from_metadata@Field_new_decimal@@UAEII@Z 00423c20 f   field.obj
 0001:00022c50       ?compatible_field_size@Field_new_decimal@@UAEHIPBVRelay_log_info@@@Z 00423c50 f   field.obj
 0001:00022cc0       ?is_equal@Field_new_decimal@@UAEIPAVCreate_field@@@Z 00423cc0 f   field.obj
 0001:00022d30       ?unpack@Field_new_decimal@@UAEPBEPAEPBEI_N@Z 00423d30 f   field.obj
 0001:00022e90       ?val_real@Field_tiny@@UAENXZ 00423e90 f   field.obj
 0001:00022ec0       ?val_int@Field_tiny@@UAE_JXZ 00423ec0 f   field.obj
 0001:00022ee0       ?val_str@Field_tiny@@UAEPAVString@@PAV2@0@Z 00423ee0 f   field.obj
 0001:00022f90       ?send_binary@Field_tiny@@UAE_NPAVProtocol@@@Z 00423f90 f   field.obj
 0001:00022fc0       ?cmp@Field_tiny@@UAEHPBE0@Z 00423fc0 f   field.obj
 0001:00023000       ?sort_string@Field_tiny@@UAEXPAEI@Z 00424000 f   field.obj
 0001:00023020       ?sql_type@Field_tiny@@UBEXAAVString@@@Z 00424020 f   field.obj
 0001:00023070       ?val_real@Field_short@@UAENXZ 00424070 f   field.obj
 0001:000230a0       ?val_int@Field_short@@UAE_JXZ 004240a0 f   field.obj
 0001:000230c0       ?val_str@Field_short@@UAEPAVString@@PAV2@0@Z 004240c0 f   field.obj
 0001:00023160       ?send_binary@Field_short@@UAE_NPAVProtocol@@@Z 00424160 f   field.obj
 0001:00023190       ?cmp@Field_short@@UAEHPBE0@Z 00424190 f   field.obj
 0001:000231e0       ?sort_string@Field_short@@UAEXPAEI@Z 004241e0 f   field.obj
 0001:00023210       ?sql_type@Field_short@@UBEXAAVString@@@Z 00424210 f   field.obj
 0001:00023260       ?val_real@Field_medium@@UAENXZ 00424260 f   field.obj
 0001:000232e0       ?val_int@Field_medium@@UAE_JXZ 004242e0 f   field.obj
 0001:00023340       ?val_str@Field_medium@@UAEPAVString@@PAV2@0@Z 00424340 f   field.obj
 0001:00023420       ?send_binary@Field_medium@@UAE_NPAVProtocol@@@Z 00424420 f   field.obj
 0001:00023450       ?cmp@Field_medium@@UAEHPBE0@Z 00424450 f   field.obj
 0001:00023520       ?sort_string@Field_medium@@UAEXPAEI@Z 00424520 f   field.obj
 0001:00023560       ?sql_type@Field_medium@@UBEXAAVString@@@Z 00424560 f   field.obj
 0001:000235b0       ?val_real@Field_long@@UAENXZ 004245b0 f   field.obj
 0001:000235e0       ?val_int@Field_long@@UAE_JXZ 004245e0 f   field.obj
 0001:00023600       ?val_str@Field_long@@UAEPAVString@@PAV2@0@Z 00424600 f   field.obj
 0001:000236b0       ?send_binary@Field_long@@UAE_NPAVProtocol@@@Z 004246b0 f   field.obj
 0001:000236e0       ?cmp@Field_long@@UAEHPBE0@Z 004246e0 f   field.obj
 0001:00023720       ?sort_string@Field_long@@UAEXPAEI@Z 00424720 f   field.obj
 0001:00023770       ?sql_type@Field_long@@UBEXAAVString@@@Z 00424770 f   field.obj
 0001:000237c0       ?val_real@Field_longlong@@UAENXZ 004247c0 f   field.obj
 0001:00023810       ?val_int@Field_longlong@@UAE_JXZ 00424810 f   field.obj
 0001:00023820       ?val_str@Field_longlong@@UAEPAVString@@PAV2@0@Z 00424820 f   field.obj
 0001:000238b0       ?send_binary@Field_longlong@@UAE_NPAVProtocol@@@Z 004248b0 f   field.obj
 0001:000238e0       ?cmp@Field_longlong@@UAEHPBE0@Z 004248e0 f   field.obj
 0001:00023950       ?sort_string@Field_longlong@@UAEXPAEI@Z 00424950 f   field.obj
 0001:000239d0       ?sql_type@Field_longlong@@UBEXAAVString@@@Z 004249d0 f   field.obj
 0001:00023a20       ?pack@Field_real@@UAEPAEPAEPBEI_N@Z 00424a20 f   field.obj
 0001:00023a30       ?unpack@Field_real@@UAEPBEPAEPBEI_N@Z 00424a30 f   field.obj
 0001:00023a40       ?val_real@Field_float@@UAENXZ 00424a40 f   field.obj
 0001:00023a60       ?val_int@Field_float@@UAE_JXZ 00424a60 f   field.obj
 0001:00023ae0       ?val_str@Field_float@@UAEPAVString@@PAV2@0@Z 00424ae0 f   field.obj
 0001:00023ba0       ?cmp@Field_float@@UAEHPBE0@Z 00424ba0 f   field.obj
 0001:00023c00       ?sort_string@Field_float@@UAEXPAEI@Z 00424c00 f   field.obj
 0001:00023cd0       ?send_binary@Field_float@@UAE_NPAVProtocol@@@Z 00424cd0 f   field.obj
 0001:00023d10       ?do_save_field_metadata@Field_float@@EAEHPAE@Z 00424d10 f   field.obj
 0001:00023d30       ?sql_type@Field_float@@UBEXAAVString@@@Z 00424d30 f   field.obj
 0001:00023db0       ?store_decimal@Field_real@@UAEHPBVmy_decimal@@@Z 00424db0 f   field.obj
 0001:00023df0       ?val_real@Field_double@@UAENXZ 00424df0 f   field.obj
 0001:00023e10       ?val_decimal@Field_real@@UAEPAVmy_decimal@@PAV2@@Z 00424e10 f   field.obj
 0001:00023e40       ?val_str@Field_double@@UAEPAVString@@PAV2@0@Z 00424e40 f   field.obj
 0001:00023f10       ?send_binary@Field_double@@UAE_NPAVProtocol@@@Z 00424f10 f   field.obj
 0001:00023f40       ?cmp@Field_double@@UAEHPBE0@Z 00424f40 f   field.obj
 0001:00023fc0       ?sort_string@Field_double@@UAEXPAEI@Z 00424fc0 f   field.obj
 0001:00024000       ?do_save_field_metadata@Field_double@@EAEHPAE@Z 00425000 f   field.obj
 0001:00024020       ?sql_type@Field_double@@UBEXAAVString@@@Z 00425020 f   field.obj
 0001:000240a0       ?get_auto_set_type@Field_timestamp@@QBE?AW4timestamp_auto_set_type@@XZ 004250a0 f   field.obj
 0001:000240f0       ?val_int@Field_timestamp@@UAE_JXZ 004250f0 f   field.obj
 0001:000241c0       ?get_date@Field_timestamp@@UAE_NPAUst_mysql_time@@I@Z 004251c0 f   field.obj
 0001:00024260       ?get_time@Field_timestamp@@UAE_NPAUst_mysql_time@@@Z 00425260 f   field.obj
 0001:00024280       ?send_binary@Field_timestamp@@UAE_NPAVProtocol@@@Z 00425280 f   field.obj
 0001:000242b0       ?cmp@Field_timestamp@@UAEHPBE0@Z 004252b0 f   field.obj
 0001:000242e0       ?sort_string@Field_timestamp@@UAEXPAEI@Z 004252e0 f   field.obj
 0001:00024320       ?sql_type@Field_timestamp@@UBEXAAVString@@@Z 00425320 f   field.obj
 0001:00024340       ?set_time@Field_timestamp@@QAEXXZ 00425340 f   field.obj
 0001:000243a0       ?val_real@Field_time@@UAENXZ 004253a0 f   field.obj
 0001:000243d0       ?val_int@Field_time@@UAE_JXZ 004253d0 f   field.obj
 0001:00024420       ?val_str@Field_time@@UAEPAVString@@PAV2@0@Z 00425420 f   field.obj
 0001:00024520       ?get_date@Field_time@@UAE_NPAUst_mysql_time@@I@Z 00425520 f   field.obj
 0001:00024650       ?get_time@Field_time@@UAE_NPAUst_mysql_time@@@Z 00425650 f   field.obj
 0001:00024720       ?send_binary@Field_time@@UAE_NPAVProtocol@@@Z 00425720 f   field.obj
 0001:00024770       ?cmp@Field_time@@UAEHPBE0@Z 00425770 f   field.obj
 0001:00024820       ?sort_string@Field_time@@UAEXPAEI@Z 00425820 f   field.obj
 0001:00024850       ?sql_type@Field_time@@UBEXAAVString@@@Z 00425850 f   field.obj
 0001:00024870       ?val_int@Field_year@@UAE_JXZ 00425870 f   field.obj
 0001:000248c0       ?val_str@Field_year@@UAEPAVString@@PAV2@0@Z 004258c0 f   field.obj
 0001:00024920       ?sql_type@Field_year@@UBEXAAVString@@@Z 00425920 f   field.obj
 0001:00024960       ?val_real@Field_date@@UAENXZ 00425960 f   field.obj
 0001:00024980       ?val_int@Field_date@@UAE_JXZ 00425980 f   field.obj
 0001:00024990       ?val_str@Field_date@@UAEPAVString@@PAV2@0@Z 00425990 f   field.obj
 0001:00024a30       ?get_time@Field_date@@UAE_NPAUst_mysql_time@@@Z 00425a30 f   field.obj
 0001:00024a60       ?cmp@Field_date@@UAEHPBE0@Z 00425a60 f   field.obj
 0001:00024a90       ?sort_string@Field_date@@UAEXPAEI@Z 00425a90 f   field.obj
 0001:00024ad0       ?sql_type@Field_date@@UBEXAAVString@@@Z 00425ad0 f   field.obj
 0001:00024af0       ?val_int@Field_newdate@@UAE_JXZ 00425af0 f   field.obj
 0001:00024b30       ?val_str@Field_newdate@@UAEPAVString@@PAV2@0@Z 00425b30 f   field.obj
 0001:00024cd0       ?get_date@Field_newdate@@UAE_NPAUst_mysql_time@@I@Z 00425cd0 f   field.obj
 0001:00024d40       ?get_time@Field_newdate@@UAE_NPAUst_mysql_time@@@Z 00425d40 f   field.obj
 0001:00024d60       ?cmp@Field_newdate@@UAEHPBE0@Z 00425d60 f   field.obj
 0001:00024da0       ?sort_string@Field_newdate@@UAEXPAEI@Z 00425da0 f   field.obj
 0001:00024dd0       ?sql_type@Field_newdate@@UBEXAAVString@@@Z 00425dd0 f   field.obj
 0001:00024df0       ?val_int@Field_datetime@@UAE_JXZ 00425df0 f   field.obj
 0001:00024e00       ?val_str@Field_datetime@@UAEPAVString@@PAV2@0@Z 00425e00 f   field.obj
 0001:00025120       ?get_date@Field_datetime@@UAE_NPAUst_mysql_time@@I@Z 00426120 f   field.obj
 0001:00025210       ?get_time@Field_datetime@@UAE_NPAUst_mysql_time@@@Z 00426210 f   field.obj
 0001:00025230       ?cmp@Field_datetime@@UAEHPBE0@Z 00426230 f   field.obj
 0001:00025280       ?sort_string@Field_datetime@@UAEXPAEI@Z 00426280 f   field.obj
 0001:000252f0       ?sql_type@Field_datetime@@UBEXAAVString@@@Z 004262f0 f   field.obj
 0001:00025470       ?store@Field_str@@UAEHN@Z  00426470 f   field.obj
 0001:000257a0       ?is_equal@Field@@UAEIPAVCreate_field@@@Z 004267a0 f   field.obj
 0001:000257d0       ?compare_str_field_flags@Field_str@@QAE_NPAVCreate_field@@I@Z 004267d0 f   field.obj
 0001:00025810       ?is_equal@Field_str@@UAEIPAVCreate_field@@@Z 00426810 f   field.obj
 0001:00025880       ?max_data_length@Field_longstr@@UBEIXZ 00426880 f   field.obj
 0001:000258c0       ?compatible_field_size@Field_string@@UAEHIPBVRelay_log_info@@@Z 004268c0 f   field.obj
 0001:00025920       ?cmp@Field_string@@UAEHPBE0@Z 00426920 f   field.obj
 0001:000259b0       ?sort_string@Field_string@@UAEXPAEI@Z 004269b0 f   field.obj
 0001:000259e0       ?sql_type@Field_string@@UBEXAAVString@@@Z 004269e0 f   field.obj
 0001:00025b30       ?pack@Field_string@@UAEPAEPAEPBEI_N@Z 00426b30 f   field.obj
 0001:00025be0       ?unpack@Field_string@@UAEPBEPAEPBEI_N@Z 00426be0 f   field.obj
 0001:00025c70       ?do_save_field_metadata@Field_string@@EAEHPAE@Z 00426c70 f   field.obj
 0001:00025cb0       ?pack_cmp@Field_string@@UAEHPBE0ID@Z 00426cb0 f   field.obj
 0001:00025d20       ?pack_cmp@Field_string@@UAEHPBEID@Z 00426d20 f   field.obj
 0001:00025da0       ?packed_col_length@Field_string@@UAEIPBEI@Z 00426da0 f   field.obj
 0001:00025dd0       ?max_packed_col_length@Field_string@@UAEII@Z 00426dd0 f   field.obj
 0001:00025df0       ?get_key_image@Field_string@@UAEIPAEIW4imagetype@Field@@@Z 00426df0 f   field.obj
 0001:00025e70       ?do_save_field_metadata@Field_varstring@@EAEHPAE@Z 00426e70 f   field.obj
 0001:00025e90       ?val_real@Field_varstring@@UAENXZ 00426e90 f   field.obj
 0001:00025ee0       ?val_int@Field_varstring@@UAE_JXZ 00426ee0 f   field.obj
 0001:00025f30       ?val_decimal@Field_varstring@@UAEPAVmy_decimal@@PAV2@@Z 00426f30 f   field.obj
 0001:00025f90       ?cmp_max@Field_varstring@@UAEHPBE0I@Z 00426f90 f   field.obj
 0001:00026000       ?key_cmp@Field_varstring@@UAEHPBEI@Z 00427000 f   field.obj
 0001:00026090       ?key_cmp@Field_varstring@@UAEHPBE0@Z 00427090 f   field.obj
 0001:000260d0       ?sort_string@Field_varstring@@UAEXPAEI@Z 004270d0 f   field.obj
 0001:00026150       ?key_type@Field_varstring@@UBE?AW4ha_base_keytype@@XZ 00427150 f   field.obj
 0001:00026190       ?sql_type@Field_varstring@@UBEXAAVString@@@Z 00427190 f   field.obj
 0001:00026290       ?data_length@Field_varstring@@UAEIXZ 00427290 f   field.obj
 0001:000262b0       ?pack@Field_varstring@@UAEPAEPAEPBEI_N@Z 004272b0 f   field.obj
 0001:00026330       ?pack_key@Field_varstring@@UAEPAEPAEPBEI_N@Z 00427330 f   field.obj
 0001:000263e0       ?unpack_key@Field_varstring@@UAEPBEPAEPBEI_N@Z 004273e0 f   field.obj
 0001:00026440       ?pack_key_from_key_image@Field_varstring@@UAEPAEPAEPBEI_N@Z 00427440 f   field.obj
 0001:000264a0       ?unpack@Field_varstring@@UAEPBEPAEPBEI_N@Z 004274a0 f   field.obj
 0001:00026540       ?pack_cmp@Field_varstring@@UAEHPBE0ID@Z 00427540 f   field.obj
 0001:000265b0       ?pack_cmp@Field_varstring@@UAEHPBEID@Z 004275b0 f   field.obj
 0001:00026670       ?packed_col_length@Field_varstring@@UAEIPBEI@Z 00427670 f   field.obj
 0001:000266a0       ?max_packed_col_length@Field_varstring@@UAEII@Z 004276a0 f   field.obj
 0001:000266c0       ?get_key_image@Field_varstring@@UAEIPAEIW4imagetype@Field@@@Z 004276c0 f   field.obj
 0001:00026760       ?cmp_binary@Field_varstring@@UAEHPBE0I@Z 00427760 f   field.obj
 0001:00026870       ?new_key_field@Field_varstring@@UAEPAVField@@PAUst_mem_root@@PAUst_table@@PAE2I@Z 00427870 f   field.obj
 0001:000268b0       ?is_equal@Field_varstring@@UAEIPAVCreate_field@@@Z 004278b0 f   field.obj
 0001:00026970       ?hash@Field_varstring@@UAEXPAK0@Z 00427970 f   field.obj
 0001:00026a10       ?store_length@Field_blob@@SAXPAEII_N@Z 00427a10 f   field.obj
 0001:00026a90       ?get_length@Field_blob@@QAEIPBEI_N@Z 00427a90 f   field.obj
 0001:00026b00       ?put_length@Field_blob@@QAEXPAEI@Z 00427b00 f   field.obj
 0001:00026b90       ?cmp@Field_blob@@QAEHPBEI0I@Z 00427b90 f   field.obj
 0001:00026bd0       ?key_cmp@Field_blob@@UAEHPBE0@Z 00427bd0 f   field.obj
 0001:00026c00       ?do_save_field_metadata@Field_blob@@EAEHPAE@Z 00427c00 f   field.obj
 0001:00026c20       ?sort_length@Field_blob@@UBEIXZ 00427c20 f   field.obj
 0001:00026c60       ?sql_type@Field_blob@@UBEXAAVString@@@Z 00427c60 f   field.obj
 0001:00026d00       ?unpack@Field_blob@@UAEPBEPAEPBEI_N@Z 00427d00 f   field.obj
 0001:00026d80       ?pack_cmp@Field_blob@@UAEHPBE0ID@Z 00427d80 f   field.obj
 0001:00026df0       ?unpack_key@Field_blob@@UAEPBEPAEPBEI_N@Z 00427df0 f   field.obj
 0001:00026e60       ?pack_key_from_key_image@Field_blob@@UAEPAEPAEPBEI_N@Z 00427e60 f   field.obj
 0001:00026ec0       ?packed_col_length@Field_blob@@UAEIPBEI@Z 00427ec0 f   field.obj
 0001:00026ef0       ?max_packed_col_length@Field_blob@@UAEII@Z 00427ef0 f   field.obj
 0001:00026f10       ?store@Field_geom@@UAEHN@Z 00427f10 f   field.obj
 0001:00026f40       ?store@Field_geom@@UAEH_J_N@Z 00427f40 f   field.obj
 0001:00026f70       ?store_decimal@Field_geom@@UAEHPBVmy_decimal@@@Z 00427f70 f   field.obj
 0001:00026fa0       ?key_type@Field_enum@@UBE?AW4ha_base_keytype@@XZ 00427fa0 f   field.obj
 0001:00027000       ?store_type@Field_enum@@QAEX_K@Z 00428000 f   field.obj
 0001:000270c0       ?val_int@Field_enum@@UAE_JXZ 004280c0 f   field.obj
 0001:00027150       ?do_save_field_metadata@Field_enum@@EAEHPAE@Z 00428150 f   field.obj
 0001:00027190       ?cmp@Field_enum@@UAEHPBE0@Z 00428190 f   field.obj
 0001:00027210       ?sort_string@Field_enum@@UAEXPAEI@Z 00428210 f   field.obj
 0001:00027260       ?eq_def@Field@@UAE_NPAV1@@Z 00428260 f   field.obj
 0001:000272f0       ?compare_enum_values@Field_enum@@AAE_NPAUst_typelib@@@Z 004282f0 f   field.obj
 0001:00027380       ?is_equal@Field_enum@@EAEIPAVCreate_field@@@Z 00428380 f   field.obj
 0001:000273c0       ?eq_def@Field_num@@UAE_NPAVField@@@Z 004283c0 f   field.obj
 0001:00027420       ?is_equal@Field_num@@UAEIPAVCreate_field@@@Z 00428420 f   field.obj
 0001:00027490       ??1Field_bit@@UAE@XZ       00428490 f i field.obj
 0001:000274a0       ?do_last_null_byte@Field_bit@@EBEIXZ 004284a0 f   field.obj
 0001:000274e0       ?new_key_field@Field_bit@@UAEPAVField@@PAUst_mem_root@@PAUst_table@@PAE2I@Z 004284e0 f   field.obj
 0001:00027530       ?is_equal@Field_bit@@UAEIPAVCreate_field@@@Z 00428530 f   field.obj
 0001:00027580       ?store@Field_bit@@UAEH_J_N@Z 00428580 f   field.obj
 0001:00027620       ?val_int@Field_bit@@UAE_JXZ 00428620 f   field.obj
 0001:00027940       ?val_str@Field_bit@@UAEPAVString@@PAV2@0@Z 00428940 f   field.obj
 0001:00027a30       ?val_decimal@Field_bit@@UAEPAVmy_decimal@@PAV2@@Z 00428a30 f   field.obj
 0001:00027a70       ?cmp_max@Field_bit@@UAEHPBE0I@Z 00428a70 f   field.obj
 0001:00027bb0       ?key_cmp@Field_bit@@UAEHPBEI@Z 00428bb0 f   field.obj
 0001:00027cc0       ?cmp_offset@Field_bit@@UAEHI@Z 00428cc0 f   field.obj
 0001:00027df0       ?get_key_image@Field_bit@@UAEIPAEIW4imagetype@Field@@@Z 00428df0 f   field.obj
 0001:00027e70       ?do_save_field_metadata@Field_bit@@EAEHPAE@Z 00428e70 f   field.obj
 0001:00027e90       ?pack_length_from_metadata@Field_bit@@UAEII@Z 00428e90 f   field.obj
 0001:00027eb0       ?compatible_field_size@Field_bit@@UAEHIPBVRelay_log_info@@@Z 00428eb0 f   field.obj
 0001:00027f30       ?sql_type@Field_bit@@UBEXAAVString@@@Z 00428f30 f   field.obj
 0001:00027f70       ?pack@Field_bit@@UAEPAEPAEPBEI_N@Z 00428f70 f   field.obj
 0001:00028000       ?unpack@Field_bit@@UAEPBEPAEPBEI_N@Z 00429000 f   field.obj
 0001:000281e0       ?set_default@Field_bit@@UAEXXZ 004291e0 f   field.obj
 0001:000282d0       ?sql_type@Field_bit_as_char@@UBEXAAVString@@@Z 004292d0 f   field.obj
 0001:00028310       ?init_for_tmp_table@Create_field@@QAEXW4enum_field_types@@II_N1@Z 00429310 f   field.obj
 0001:00028380       ?get_blob_type_from_length@@YA?AW4enum_field_types@@K@Z 00429380 f   field.obj
 0001:000283c0       ?calc_pack_length@@YAIW4enum_field_types@@I@Z 004293c0 f   field.obj
 0001:00028610       ?pack_length_to_packflag@@YAII@Z 00429610 f   field.obj
 0001:00028680       ?max_display_length@Field_blob@@UAEIXZ 00429680 f   field.obj
 0001:000286f0       ?set_warning@Field@@QAE_NW4enum_warning_level@MYSQL_ERROR@@IH@Z 004296f0 f   field.obj
 0001:00028790       ?set_datetime_warning@Field@@QAEXW4enum_warning_level@MYSQL_ERROR@@IPBDIW4enum_mysql_timestamp_type@@H@Z 00429790 f   field.obj
 0001:00028840       ?set_datetime_warning@Field@@QAEXW4enum_warning_level@MYSQL_ERROR@@I_JW4enum_mysql_timestamp_type@@H@Z 00429840 f   field.obj
 0001:00028920       ?set_datetime_warning@Field@@QAEXW4enum_warning_level@MYSQL_ERROR@@INW4enum_mysql_timestamp_type@@@Z 00429920 f   field.obj
 0001:00028a00       ??0?$List@VString@@@@QAE@XZ 00429a00 f i field.obj
 0001:00028a20       ?push_back@?$List@VString@@@@QAE_NPAVString@@@Z 00429a20 f i field.obj
 0001:00028a80       ??E?$List_iterator@VString@@@@QAEPAVString@@H@Z 00429a80 f i field.obj
 0001:00028aa0       ?set_prefix@?$Bitmap@$0EA@@@QAEXI@Z 00429aa0 f i field.obj
 0001:00028af0       ??1String@@QAE@XZ          00429af0 f i field.obj
 0001:00028b30       ?set@String@@QAEXPBDIPAUcharset_info_st@@@Z 00429b30 f i field.obj
 0001:00028b80       ??0base_list_iterator@@QAE@AAVbase_list@@@Z 00429b80 f i field.obj
 0001:00028ba0       ?store_length@Field_blob@@QAEXPAEII@Z 00429ba0 f i field.obj
 0001:00028bd0       ?store_length@Field_blob@@QAEXI@Z 00429bd0 f i field.obj
 0001:00028c00       ?get_length@Field_blob@@QAEII@Z 00429c00 f i field.obj
 0001:00028c30       ?get_length@Field_blob@@QAEIPBE@Z 00429c30 f i field.obj
 0001:00028c60       ??1Field_blob@@UAE@XZ      00429c60 f i field.obj
 0001:00028ca0       ??1?$List@VString@@@@QAE@XZ 00429ca0 f i field.obj
 0001:00028cb0       ??1Item@@UAE@XZ            00429cb0 f i field.obj
 0001:00028cf0       ??3Item@@SAXPAXI@Z         00429cf0 f i field.obj
 0001:00028d00       ?save_org_in_field@Item@@UAEXPAVField@@@Z 00429d00 f i field.obj
 0001:00028d20       ?save_safe_in_field@Item@@UAEHPAVField@@@Z 00429d20 f i field.obj
 0001:00028d40       ?result_type@Item@@UBE?AW4Item_result@@XZ 00429d40 f i field.obj
 0001:00028d50       ?cast_to_int_type@Item@@UBE?AW4Item_result@@XZ 00429d50 f i field.obj
 0001:00028d60       ?get_monotonicity_info@Item@@UBE?AW4monotonicity_info@@XZ 00429d60 f i field.obj
 0001:00028d70       ?val_int_endpoint@Item@@UAE_J_NPA_N@Z 00429d70 f i field.obj
 0001:00028d80       ?val_nodeset@Item@@UAEPAVString@@PAV2@@Z 00429d80 f i field.obj
 0001:00028d90       ?get_tmp_table_field@Item@@UAEPAVField@@XZ 00429d90 f i field.obj
 0001:00028da0       ?tmp_table_field@Item@@UAEPAVField@@PAUst_table@@@Z 00429da0 f i field.obj
 0001:00028db0       ?full_name@Item@@UBEPBDXZ  00429db0 f i field.obj
 0001:00028dc0       ?val_result@Item@@UAENXZ   00429dc0 f i field.obj
 0001:00028dd0       ?val_int_result@Item@@UAE_JXZ 00429dd0 f i field.obj
 0001:00028de0       ?str_result@Item@@UAEPAVString@@PAV2@@Z 00429de0 f i field.obj
 0001:00028df0       ?val_decimal_result@Item@@UAEPAVmy_decimal@@PAV2@@Z 00429df0 f i field.obj
 0001:00028e00       ?val_bool_result@Item@@UAE_NXZ 00429e00 f i field.obj
 0001:00028e10       ?is_null_result@Item@@UAE_NXZ 00429e10 f i field.obj
 0001:00028e20       ?used_tables@Item@@UBE_KXZ 00429e20 f i field.obj
 0001:00028e30       ?not_null_tables@Item@@UBE_KXZ 00429e30 f i field.obj
 0001:00028e40       ?basic_const_item@Item@@UBE_NXZ 00429e40 f i field.obj
 0001:00028e50       ?clone_item@Item@@UAEPAV1@XZ 00429e50 f i field.obj
 0001:00028e60       ?eq_cmp_result@Item@@UBE?AW4cond_result@1@XZ 00429e60 f i field.obj
 0001:00028e70       ?const_item@Item@@UBE_NXZ  00429e70 f i field.obj
 0001:00028e90       ?const_during_execution@Item@@UBE_NXZ 00429e90 f i field.obj
 0001:00028eb0       ?print@Item@@UAEXPAVString@@W4enum_query_type@@@Z 00429eb0 f i field.obj
 0001:00028ed0       ?update_used_tables@Item@@UAEXXZ 00429ed0 f i field.obj
 0001:00028ee0       ?split_sum_func@Item@@UAEXPAVTHD@@PAPAV1@AAV?$List@VItem@@@@@Z 00429ee0 f i field.obj
 0001:00028ef0       ?get_date_result@Item@@UAE_NPAUst_mysql_time@@I@Z 00429ef0 f i field.obj
 0001:00028f00       ?is_null@Item@@UAE_NXZ     00429f00 f i field.obj
 0001:00028f10       ?update_null_value@Item@@UAEXXZ 00429f10 f i field.obj
 0001:00028f20       ?top_level_item@Item@@UAEXXZ 00429f20 f i field.obj
 0001:00028f30       ?set_result_field@Item@@UAEXPAVField@@@Z 00429f30 f i field.obj
 0001:00028f40       ?is_result_field@Item@@UAE_NXZ 00429f40 f i field.obj
 0001:00028f50       ?is_bool_func@Item@@UAE_NXZ 00429f50 f i field.obj
 0001:00028f60       ?save_in_result_field@Item@@UAEX_N@Z 00429f60 f i field.obj
 0001:00028f70       ?no_rows_in_result@Item@@UAEXXZ 00429f70 f i field.obj
 0001:00028f80       ?copy_or_same@Item@@UAEPAV1@PAVTHD@@@Z 00429f80 f i field.obj
 0001:00028f90       ?copy_andor_structure@Item@@UAEPAV1@PAVTHD@@@Z 00429f90 f i field.obj
 0001:00028fa0       ?real_item@Item@@UAEPAV1@XZ 00429fa0 f i field.obj
 0001:00028fb0       ?get_tmp_table_item@Item@@UAEPAV1@PAVTHD@@@Z 00429fb0 f i field.obj
 0001:00028fc0       ?compare_collation@Item@@UAEPAUcharset_info_st@@XZ 00429fc0 f i field.obj
 0001:00028fd0       ?walk@Item@@UAE_NP81@AE_NPAE@Z_N0@Z 00429fd0 f i field.obj
 0001:00028fe0       ?compile@Item@@UAEPAV1@P81@AE_NPAPAE@Z0P81@AEPAV1@PAE@Z2@Z 00429fe0 f i field.obj
 0001:00029010       ?traverse_cond@Item@@UAEXP6AXPBV1@PAX@Z1W4traverse_order@1@@Z 0042a010 f i field.obj
 0001:00029030       ?remove_dependence_processor@Item@@UAE_NPAE@Z 0042a030 f i field.obj
 0001:00029040       ?remove_fixed@Item@@UAE_NPAE@Z 0042a040 f i field.obj
 0001:00029050       ?collect_item_field_processor@Item@@UAE_NPAE@Z 0042a050 f i field.obj
 0001:00029060       ?find_item_in_field_list_processor@Item@@UAE_NPAE@Z 0042a060 f i field.obj
 0001:00029070       ?change_context_processor@Item@@UAE_NPAE@Z 0042a070 f i field.obj
 0001:00029080       ?reset_query_id_processor@Item@@UAE_NPAE@Z 0042a080 f i field.obj
 0001:00029090       ?is_expensive_processor@Item@@UAE_NPAE@Z 0042a090 f i field.obj
 0001:000290a0       ?register_field_in_read_map@Item@@UAE_NPAE@Z 0042a0a0 f i field.obj
 0001:000290b0       ?check_partition_func_processor@Item@@UAE_NPAE@Z 0042a0b0 f i field.obj
 0001:000290c0       ?subst_argument_checker@Item@@UAE_NPAPAE@Z 0042a0c0 f i field.obj
 0001:000290e0       ?equal_fields_propagator@Item@@UAEPAV1@PAE@Z 0042a0e0 f i field.obj
 0001:000290f0       ?set_no_const_sub@Item@@UAE_NPAE@Z 0042a0f0 f i field.obj
 0001:00029100       ?replace_equal_field@Item@@UAEPAV1@PAE@Z 0042a100 f i field.obj
 0001:00029110       ?this_item@Item@@UAEPAV1@XZ 0042a110 f i field.obj
 0001:00029120       ?this_item@Item@@UBEPBV1@XZ 0042a120 f i field.obj
 0001:00029130       ?this_item_addr@Item@@UAEPAPAV1@PAVTHD@@PAPAV1@@Z 0042a130 f i field.obj
 0001:00029140       ?cols@Item@@UAEIXZ         0042a140 f i field.obj
 0001:00029150       ?element_index@Item@@UAEPAV1@I@Z 0042a150 f i field.obj
 0001:00029160       ?addr@Item@@UAEPAPAV1@I@Z  0042a160 f i field.obj
 0001:00029170       ?null_inside@Item@@UAE_NXZ 0042a170 f i field.obj
 0001:00029180       ?bring_value@Item@@UAEXXZ  0042a180 f i field.obj
 0001:00029190       ?filed_for_view_update@Item@@UAEPAVItem_field@@XZ 0042a190 f i field.obj
 0001:000291a0       ?neg_transformer@Item@@UAEPAV1@PAVTHD@@@Z 0042a1a0 f i field.obj
 0001:000291b0       ?update_value_transformer@Item@@UAEPAV1@PAE@Z 0042a1b0 f i field.obj
 0001:000291c0       ?is_splocal@Item@@UAE_NXZ  0042a1c0 f i field.obj
 0001:000291d0       ?get_settable_routine_parameter@Item@@UAEPAVSettable_routine_parameter@@XZ 0042a1d0 f i field.obj
 0001:000291e0       ?result_as_longlong@Item@@UAE_NXZ 0042a1e0 f i field.obj
 0001:000291f0       ?get_geometry_type@Item@@UBE?AW4geometry_type@Field@@XZ 0042a1f0 f i field.obj
 0001:00029200       ??_EItem@@UAEPAXI@Z        0042a200 f i field.obj
 0001:00029200       ??_GItem@@UAEPAXI@Z        0042a200 f i field.obj
 0001:00029240       ??0Item_basic_constant@@QAE@XZ 0042a240 f i field.obj
 0001:00029260       ?cleanup@Item_basic_constant@@UAEXXZ 0042a260 f i field.obj
 0001:00029270       ??1Item_basic_constant@@UAE@XZ 0042a270 f i field.obj
 0001:000292b0       ??_GItem_basic_constant@@UAEPAXI@Z 0042a2b0 f i field.obj
 0001:000292b0       ??_EItem_basic_constant@@UAEPAXI@Z 0042a2b0 f i field.obj
 0001:000292f0       ??0Item_string@@QAE@PBDIPAUcharset_info_st@@W4Derivation@@I@Z 0042a2f0 f i field.obj
 0001:00029380       ?type@Item_string@@UBE?AW4Type@Item@@XZ 0042a380 f i field.obj
 0001:00029390       ?val_str@Item_string@@UAEPAVString@@PAV2@@Z 0042a390 f i field.obj
 0001:000293a0       ?result_type@Item_string@@UBE?AW4Item_result@@XZ 0042a3a0 f i field.obj
 0001:000293b0       ?field_type@Item_string@@UBE?AW4enum_field_types@@XZ 0042a3b0 f i field.obj
 0001:000293c0       ?basic_const_item@Item_string@@UBE_NXZ 0042a3c0 f i field.obj
 0001:000293d0       ?check_partition_func_processor@Item_string@@UAE_NPAE@Z 0042a3d0 f i field.obj
 0001:000293e0       ??0Item_string@@QAE@PBD0IPAUcharset_info_st@@W4Derivation@@I@Z 0042a3e0 f i field.obj
 0001:00029470       ?clone_item@Item_string@@UAEPAVItem@@XZ 0042a470 f i field.obj
 0001:000294c0       ??1Item_string@@UAE@XZ     0042a4c0 f i field.obj
 0001:00029500       ?check_int@Field_num@@QAEHPAUcharset_info_st@@PBDH1H@Z 0042a500 f   field.obj
 0001:00029680       ?get_int@Field_num@@QAE_NPAUcharset_info_st@@PBDIPA_J_K_J4@Z 0042a680 f   field.obj
 0001:000297a0       ?warn_if_overflow@Field@@QAEHH@Z 0042a7a0 f   field.obj
 0001:000297f0       ?send_binary@Field@@UAE_NPAVProtocol@@@Z 0042a7f0 f   field.obj
 0001:000298d0       ?convert_decimal2longlong@Field@@QAE_JPBVmy_decimal@@_NPAH@Z 0042a8d0 f   field.obj
 0001:00029a70       ?store_decimal@Field_num@@UAEHPBVmy_decimal@@@Z 0042aa70 f   field.obj
 0001:00029ad0       ?store_decimal@Field_str@@UAEHPBVmy_decimal@@@Z 0042aad0 f   field.obj
 0001:00029b20       ?get_date@Field@@UAE_NPAUst_mysql_time@@I@Z 0042ab20 f   field.obj
 0001:00029c20       ?get_time@Field@@UAE_NPAUst_mysql_time@@@Z 0042ac20 f   field.obj
 0001:00029d10       ?overflow@Field_decimal@@QAEX_N@Z 0042ad10 f   field.obj
 0001:00029de0       ?store@Field_decimal@@UAEHPBDIPAUcharset_info_st@@@Z 0042ade0 f   field.obj
 0001:0002a470       ?store@Field_decimal@@UAEHN@Z 0042b470 f   field.obj
 0001:0002a650       ?store@Field_decimal@@UAEH_J_N@Z 0042b650 f   field.obj
 0001:0002a810       ?store_value@Field_new_decimal@@QAE_NPBVmy_decimal@@@Z 0042b810 f   field.obj
 0001:0002a8e0       ?store@Field_new_decimal@@UAEHPBDIPAUcharset_info_st@@@Z 0042b8e0 f   field.obj
 0001:0002ab80       ?store@Field_new_decimal@@UAEHN@Z 0042bb80 f   field.obj
 0001:0002ac90       ?store@Field_new_decimal@@UAEH_J_N@Z 0042bc90 f   field.obj
 0001:0002ad90       ?store_decimal@Field_new_decimal@@UAEHPBVmy_decimal@@@Z 0042bd90 f   field.obj
 0001:0002adb0       ?store_time@Field_new_decimal@@UAEHPAUst_mysql_time@@W4enum_mysql_timestamp_type@@@Z 0042bdb0 f   field.obj
 0001:0002ae00       ?store@Field_tiny@@UAEHPBDIPAUcharset_info_st@@@Z 0042be00 f   field.obj
 0001:0002ae60       ?store@Field_tiny@@UAEHN@Z 0042be60 f   field.obj
 0001:0002afd0       ?store@Field_tiny@@UAEH_J_N@Z 0042bfd0 f   field.obj
 0001:0002b090       ?store@Field_short@@UAEHPBDIPAUcharset_info_st@@@Z 0042c090 f   field.obj
 0001:0002b0f0       ?store@Field_short@@UAEHN@Z 0042c0f0 f   field.obj
 0001:0002b240       ?store@Field_short@@UAEH_J_N@Z 0042c240 f   field.obj
 0001:0002b330       ?store@Field_medium@@UAEHPBDIPAUcharset_info_st@@@Z 0042c330 f   field.obj
 0001:0002b3b0       ?store@Field_medium@@UAEHN@Z 0042c3b0 f   field.obj
 0001:0002b610       ?store@Field_medium@@UAEH_J_N@Z 0042c610 f   field.obj
 0001:0002b760       ?store@Field_long@@UAEHPBDIPAUcharset_info_st@@@Z 0042c760 f   field.obj
 0001:0002b7c0       ?store@Field_long@@UAEHN@Z 0042c7c0 f   field.obj
 0001:0002b940       ?store@Field_long@@UAEH_J_N@Z 0042c940 f   field.obj
 0001:0002ba00       ?store@Field_longlong@@UAEHPBDIPAUcharset_info_st@@@Z 0042ca00 f   field.obj
 0001:0002baf0       ?store@Field_longlong@@UAEHN@Z 0042caf0 f   field.obj
 0001:0002bc90       ?store@Field_longlong@@UAEH_J_N@Z 0042cc90 f   field.obj
 0001:0002bd00       ?truncate@Field_real@@QAEHPANN@Z 0042cd00 f   field.obj
 0001:0002bf00       ?val_int@Field_double@@UAE_JXZ 0042cf00 f   field.obj
 0001:0002c0b0       ?store@Field_timestamp@@UAEHPBDIPAUcharset_info_st@@@Z 0042d0b0 f   field.obj
 0001:0002c230       ?store@Field_timestamp@@UAEH_J_N@Z 0042d230 f   field.obj
 0001:0002c390       ?val_real@Field_timestamp@@UAENXZ 0042d390 f   field.obj
 0001:0002c3b0       ?val_str@Field_timestamp@@UAEPAVString@@PAV2@0@Z 0042d3b0 f   field.obj
 0001:0002c640       ?store@Field_time@@UAEHPBDIPAUcharset_info_st@@@Z 0042d640 f   field.obj
 0001:0002c760       ?store@Field_time@@UAEHN@Z 0042d760 f   field.obj
 0001:0002c8b0       ?store@Field_time@@UAEH_J_N@Z 0042d8b0 f   field.obj
 0001:0002c9f0       ?store@Field_year@@UAEHPBDIPAUcharset_info_st@@@Z 0042d9f0 f   field.obj
 0001:0002cbb0       ?store@Field_year@@UAEH_J_N@Z 0042dbb0 f   field.obj
 0001:0002cca0       ?send_binary@Field_year@@UAE_NPAVProtocol@@@Z 0042dca0 f   field.obj
 0001:0002ccc0       ?val_real@Field_year@@UAENXZ 0042dcc0 f   field.obj
 0001:0002cce0       ?store@Field_date@@UAEHPBDIPAUcharset_info_st@@@Z 0042dce0 f   field.obj
 0001:0002cdb0       ?store@Field_date@@UAEH_J_N@Z 0042ddb0 f   field.obj
 0001:0002cf00       ?send_binary@Field_date@@UAE_NPAVProtocol@@@Z 0042df00 f   field.obj
 0001:0002cf80       ?store@Field_newdate@@UAEHPBDIPAUcharset_info_st@@@Z 0042df80 f   field.obj
 0001:0002d0a0       ?store@Field_newdate@@UAEH_J_N@Z 0042e0a0 f   field.obj
 0001:0002d1e0       ?store_time@Field_newdate@@UAEHPAUst_mysql_time@@W4enum_mysql_timestamp_type@@@Z 0042e1e0 f   field.obj
 0001:0002d430       ?send_binary@Field_newdate@@UAE_NPAVProtocol@@@Z 0042e430 f   field.obj
 0001:0002d460       ?val_real@Field_newdate@@UAENXZ 0042e460 f   field.obj
 0001:0002d480       ?store@Field_datetime@@UAEHPBDIPAUcharset_info_st@@@Z 0042e480 f   field.obj
 0001:0002d560       ?store@Field_datetime@@UAEH_J_N@Z 0042e560 f   field.obj
 0001:0002d650       ?store_time@Field_datetime@@UAEHPAUst_mysql_time@@W4enum_mysql_timestamp_type@@@Z 0042e650 f   field.obj
 0001:0002d7f0       ?send_binary@Field_datetime@@UAE_NPAVProtocol@@@Z 0042e7f0 f   field.obj
 0001:0002d820       ?val_real@Field_datetime@@UAENXZ 0042e820 f   field.obj
 0001:0002d840       ?report_if_important_data@Field_longstr@@IAEHPBD0_N@Z 0042e840 f   field.obj
 0001:0002d900       ?store@Field_string@@UAEHPBDIPAUcharset_info_st@@@Z 0042e900 f   field.obj
 0001:0002d9e0       ?store@Field_string@@UAEH_J_N@Z 0042e9e0 f   field.obj
 0001:0002da70       ?store_decimal@Field_longstr@@UAEHPBVmy_decimal@@@Z 0042ea70 f   field.obj
 0001:0002db40       ?val_real@Field_string@@UAENXZ 0042eb40 f   field.obj
 0001:0002dd00       ?val_int@Field_string@@UAE_JXZ 0042ed00 f   field.obj
 0001:0002dec0       ?val_str@Field_string@@UAEPAVString@@PAV2@0@Z 0042eec0 f   field.obj
 0001:0002df90       ?val_decimal@Field_string@@UAEPAVmy_decimal@@PAV2@@Z 0042ef90 f   field.obj
 0001:0002e110       ?store@Field_varstring@@UAEHPBDIPAUcharset_info_st@@@Z 0042f110 f   field.obj
 0001:0002e1e0       ?store@Field_varstring@@UAEH_J_N@Z 0042f1e0 f   field.obj
 0001:0002e260       ?val_str@Field_varstring@@UAEPAVString@@PAV2@0@Z 0042f260 f   field.obj
 0001:0002e2e0       ?set_key_image@Field_varstring@@UAEXPBEI@Z 0042f2e0 f   field.obj
 0001:0002e300       ?store@Field_blob@@UAEHPBDIPAUcharset_info_st@@@Z 0042f300 f   field.obj
 0001:0002e670       ?store@Field_blob@@UAEHN@Z 0042f670 f   field.obj
 0001:0002e6c0       ?store@Field_blob@@UAEH_J_N@Z 0042f6c0 f   field.obj
 0001:0002e710       ?val_real@Field_blob@@UAENXZ 0042f710 f   field.obj
 0001:0002e790       ?val_int@Field_blob@@UAE_JXZ 0042f790 f   field.obj
 0001:0002e820       ?val_str@Field_blob@@UAEPAVString@@PAV2@0@Z 0042f820 f   field.obj
 0001:0002e920       ?val_decimal@Field_blob@@UAEPAVmy_decimal@@PAV2@@Z 0042f920 f   field.obj
 0001:0002e9a0       ?cmp_max@Field_blob@@UAEHPBE0I@Z 0042f9a0 f   field.obj
 0001:0002ea30       ?cmp_binary@Field_blob@@UAEHPBE0I@Z 0042fa30 f   field.obj
 0001:0002eb70       ?get_key_image@Field_blob@@UAEIPAEIW4imagetype@Field@@@Z 0042fb70 f   field.obj
 0001:0002ed20       ?set_key_image@Field_blob@@UAEXPBEI@Z 0042fd20 f   field.obj
 0001:0002ed40       ?key_cmp@Field_blob@@UAEHPBEI@Z 0042fd40 f   field.obj
 0001:0002edd0       ?sort_string@Field_blob@@UAEXPAEI@Z 0042fdd0 f   field.obj
 0001:0002eee0       ?pack@Field_blob@@UAEPAEPAEPBEI_N@Z 0042fee0 f   field.obj
 0001:0002ef80       ?pack_cmp@Field_blob@@UAEHPBEID@Z 0042ff80 f   field.obj
 0001:0002f010       ?pack_key@Field_blob@@UAEPAEPAEPBEI_N@Z 00430010 f   field.obj
 0001:0002f0e0       ?is_equal@Field_blob@@UAEIPAVCreate_field@@@Z 004300e0 f   field.obj
 0001:0002f160       ?sql_type@Field_geom@@UBEXAAVString@@@Z 00430160 f   field.obj
 0001:0002f2d0       ?store@Field_geom@@UAEHPBDIPAUcharset_info_st@@@Z 004302d0 f   field.obj
 0001:0002f3f0       ?store@Field_enum@@UAEHPBDIPAUcharset_info_st@@@Z 004303f0 f   field.obj
 0001:0002f5d0       ?store@Field_enum@@UAEH_J_N@Z 004305d0 f   field.obj
 0001:0002f650       ?val_real@Field_enum@@UAENXZ 00430650 f   field.obj
 0001:0002f670       ?val_str@Field_enum@@UAEPAVString@@PAV2@0@Z 00430670 f   field.obj
 0001:0002f710       ?sql_type@Field_enum@@UBEXAAVString@@@Z 00430710 f   field.obj
 0001:0002f8b0       ?store@Field_set@@UAEHPBDIPAUcharset_info_st@@@Z 004308b0 f   field.obj
 0001:0002fab0       ?store@Field_set@@UAEH_J_N@Z 00430ab0 f   field.obj
 0001:0002fb40       ?val_str@Field_set@@UAEPAVString@@PAV2@0@Z 00430b40 f   field.obj
 0001:0002fc60       ?sql_type@Field_set@@UBEXAAVString@@@Z 00430c60 f   field.obj
 0001:0002fe00       ?eq_def@Field_enum@@UAE_NPAVField@@@Z 00430e00 f   field.obj
 0001:0002fe30       ?hash@Field_bit@@UAEXPAK0@Z 00430e30 f   field.obj
 0001:0002ff40       ?store@Field_bit@@UAEHPBDIPAUcharset_info_st@@@Z 00430f40 f   field.obj
 0001:00030290       ?store@Field_bit@@UAEHN@Z  00431290 f   field.obj
 0001:000302c0       ?store_decimal@Field_bit@@UAEHPBVmy_decimal@@@Z 004312c0 f   field.obj
 0001:00030310       ?val_real@Field_bit@@UAENXZ 00431310 f   field.obj
 0001:00030330       ?store@Field_bit_as_char@@UAEHPBDIPAUcharset_info_st@@@Z 00431330 f   field.obj
 0001:00030470       ?create_length_to_internal_length@Create_field@@QAEXXZ 00431470 f   field.obj
 0001:000306c0       ??0Create_field@@QAE@PAVField@@0@Z 004316c0 f   field.obj
 0001:00030b80       ??0?$List_iterator@VString@@@@QAE@AAV?$List@VString@@@@@Z 00431b80 f i field.obj
 0001:00030ba0       ??0?$Bitmap@$0EA@@@QAE@I@Z 00431ba0 f i field.obj
 0001:00030bf0       ?init@?$Bitmap@$0EA@@@QAEXI@Z 00431bf0 f i field.obj
 0001:00030c40       ??_EItem_string@@UAEPAXI@Z 00431c40 f i field.obj
 0001:00030c40       ??_GItem_string@@UAEPAXI@Z 00431c40 f i field.obj
 0001:00030c80       ??0Field@@QAE@PAEI0EW4utype@0@PBD@Z 00431c80 f   field.obj
 0001:00030d20       ??0Field_str@@QAE@PAEI0EW4utype@Field@@PBDPAUcharset_info_st@@@Z 00431d20 f   field.obj
 0001:00030d90       ?result_type@Field_str@@UBE?AW4Item_result@@XZ 00431d90 f i field.obj
 0001:00030da0       ?decimals@Field_str@@UBEIXZ 00431da0 f i field.obj
 0001:00030db0       ?size_of@Field_str@@UBEIXZ 00431db0 f i field.obj
 0001:00030dc0       ?charset@Field_str@@UBEPAUcharset_info_st@@XZ 00431dc0 f i field.obj
 0001:00030dd0       ?set_charset@Field_str@@UAEXPAUcharset_info_st@@@Z 00431dd0 f i field.obj
 0001:00030de0       ?derivation@Field_str@@UBE?AW4Derivation@@XZ 00431de0 f i field.obj
 0001:00030df0       ?set_derivation@Field_str@@UAEXW4Derivation@@@Z 00431df0 f i field.obj
 0001:00030e00       ?binary@Field_str@@UBE_NXZ 00431e00 f i field.obj
 0001:00030e10       ?max_display_length@Field_str@@UAEIXZ 00431e10 f i field.obj
 0001:00030e20       ?str_needs_quotes@Field_str@@UAE_NXZ 00431e20 f i field.obj
 0001:00030e30       ??_EField_str@@UAEPAXI@Z   00431e30 f i field.obj
 0001:00030e30       ??_GField_str@@UAEPAXI@Z   00431e30 f i field.obj
 0001:00030e40       ?new_field@Field@@UAEPAV1@PAUst_mem_root@@PAUst_table@@_N@Z 00431e40 f   field.obj
 0001:00030ed0       ?reset@Field_decimal@@UAEHXZ 00431ed0 f   field.obj
 0001:00030ef0       ?reset@Field_new_decimal@@UAEHXZ 00431ef0 f   field.obj
 0001:00030f00       ?store@Field_float@@UAEHN@Z 00431f00 f   field.obj
 0001:00030f40       ?store@Field_float@@UAEH_J_N@Z 00431f40 f   field.obj
 0001:00030fa0       ?store@Field_double@@UAEHN@Z 00431fa0 f   field.obj
 0001:00030fe0       ?store@Field_double@@UAEH_J_N@Z 00431fe0 f   field.obj
 0001:00031040       ??0Field_timestamp@@QAE@PAEI0EW4utype@Field@@PBDPAUst_table_share@@PAUcharset_info_st@@@Z 00432040 f   field.obj
 0001:000310d0       ?handle_int32@Field@@KAXPAEPBE_N2@Z 004320d0 f i field.obj
 0001:000310e0       ?pack_int32@Field@@IAEPAEPAEPBE_N@Z 004320e0 f i field.obj
 0001:00031100       ?unpack_int32@Field@@IAEPBEPAEPBE_N@Z 00432100 f i field.obj
 0001:00031120       ?type@Field_timestamp@@UBE?AW4enum_field_types@@XZ 00432120 f i field.obj
 0001:00031130       ?key_type@Field_timestamp@@UBE?AW4ha_base_keytype@@XZ 00432130 f i field.obj
 0001:00031140       ?cmp_type@Field_timestamp@@UBE?AW4Item_result@@XZ 00432140 f i field.obj
 0001:00031150       ?reset@Field_timestamp@@UAEHXZ 00432150 f i field.obj
 0001:00031180       ?pack_length@Field_timestamp@@UBEIXZ 00432180 f i field.obj
 0001:00031190       ?can_be_compared_as_longlong@Field_timestamp@@UBE_NXZ 00432190 f i field.obj
 0001:000311a0       ?zero_pack@Field_timestamp@@UBE_NXZ 004321a0 f i field.obj
 0001:000311b0       ?pack@Field_timestamp@@UAEPAEPAEPBEI_N@Z 004321b0 f i field.obj
 0001:000311d0       ?unpack@Field_timestamp@@UAEPBEPAEPBEI_N@Z 004321d0 f i field.obj
 0001:000311f0       ??1Field_timestamp@@UAE@XZ 004321f0 f i field.obj
 0001:00031200       ?set_default@Field_timestamp@@UAEXXZ 00432200 f i field.obj
 0001:00031220       ??_EField_timestamp@@UAEPAXI@Z 00432220 f i field.obj
 0001:00031220       ??_GField_timestamp@@UAEPAXI@Z 00432220 f i field.obj
 0001:00031230       ??0Field_timestamp@@QAE@_NPBDPAUcharset_info_st@@@Z 00432230 f   field.obj
 0001:00031290       ?store@Field_timestamp@@UAEHN@Z 00432290 f   field.obj
 0001:00031360       ?store_time@Field_time@@UAEHPAUst_mysql_time@@W4enum_mysql_timestamp_type@@@Z 00432360 f   field.obj
 0001:000313c0       ?store@Field_year@@UAEHN@Z 004323c0 f   field.obj
 0001:00031420       ?store@Field_date@@UAEHN@Z 00432420 f   field.obj
 0001:00031500       ?store@Field_newdate@@UAEHN@Z 00432500 f   field.obj
 0001:000315a0       ?store@Field_datetime@@UAEHN@Z 004325a0 f   field.obj
 0001:00031670       ?new_field@Field_varstring@@UAEPAVField@@PAUst_mem_root@@PAUst_table@@_N@Z 00432670 f   field.obj
 0001:000316a0       ?store@Field_enum@@UAEHN@Z 004326a0 f   field.obj
 0001:000316d0       ?new_field@Field_enum@@UAEPAVField@@PAUst_mem_root@@PAUst_table@@_N@Z 004326d0 f   field.obj
 0001:00031720       ??0Field_bit@@QAE@PAEI0E0EW4utype@Field@@PBD@Z 00432720 f   field.obj
 0001:000317a0       ?type@Field_bit@@UBE?AW4enum_field_types@@XZ 004327a0 f i field.obj
 0001:000317b0       ?key_type@Field_bit@@UBE?AW4ha_base_keytype@@XZ 004327b0 f i field.obj
 0001:000317c0       ?key_length@Field_bit@@UBEIXZ 004327c0 f i field.obj
 0001:000317d0       ?max_data_length@Field_bit@@UBEIXZ 004327d0 f i field.obj
 0001:000317e0       ?max_display_length@Field_bit@@UAEIXZ 004327e0 f i field.obj
 0001:000317f0       ?size_of@Field_bit@@UBEIXZ 004327f0 f i field.obj
 0001:00031800       ?result_type@Field_bit@@UBE?AW4Item_result@@XZ 00432800 f i field.obj
 0001:00031810       ?reset@Field_bit@@UAEHXZ   00432810 f i field.obj
 0001:00031830       ?str_needs_quotes@Field_bit@@UAE_NXZ 00432830 f i field.obj
 0001:00031840       ?cmp_binary_offset@Field_bit@@UAEHI@Z 00432840 f i field.obj
 0001:00031850       ?key_cmp@Field_bit@@UAEHPBE0@Z 00432850 f i field.obj
 0001:00031870       ?get_image@Field_bit@@UAEXPAEIPAUcharset_info_st@@@Z 00432870 f i field.obj
 0001:00031890       ?sort_string@Field_bit@@UAEXPAEI@Z 00432890 f i field.obj
 0001:000318b0       ?pack_length@Field_bit@@UBEIXZ 004328b0 f i field.obj
 0001:000318c0       ?pack_length_in_rec@Field_bit@@UBEIXZ 004328c0 f i field.obj
 0001:000318d0       ?row_pack_length@Field_bit@@UAEIXZ 004328d0 f i field.obj
 0001:000318e0       ?eq@Field_bit@@UAE_NPAVField@@@Z 004328e0 f i field.obj
 0001:00031960       ?move_field_offset@Field_bit@@UAEXJ@Z 00432960 f i field.obj
 0001:00031980       ?cmp@Field_bit@@UAEHPBE0@Z 00432980 f i field.obj
 0001:000319a0       ??_GField_bit@@UAEPAXI@Z   004329a0 f i field.obj
 0001:000319a0       ??_EField_bit@@UAEPAXI@Z   004329a0 f i field.obj
 0001:000319b0       ?set_image@Field_bit@@UAEXPBEIPAUcharset_info_st@@@Z 004329b0 f i field.obj
 0001:000319c0       ?set_key_image@Field_bit@@UAEXPBEI@Z 004329c0 f i field.obj
 0001:000319e0       ??0Field_bit_as_char@@QAE@PAEI0EW4utype@Field@@PBD@Z 004329e0 f   field.obj
 0001:00031a50       ?key_type@Field_bit_as_char@@UBE?AW4ha_base_keytype@@XZ 00432a50 f i field.obj
 0001:00031a60       ?size_of@Field_bit_as_char@@UBEIXZ 00432a60 f i field.obj
 0001:00031a70       ??1Field_bit_as_char@@UAE@XZ 00432a70 f i field.obj
 0001:00031a80       ?store@Field_bit_as_char@@UAEH_J_N@Z 00432a80 f i field.obj
 0001:00031aa0       ??_GField_bit_as_char@@UAEPAXI@Z 00432aa0 f i field.obj
 0001:00031aa0       ??_EField_bit_as_char@@UAEPAXI@Z 00432aa0 f i field.obj
 0001:00031ab0       ?store@Field_bit_as_char@@UAEHN@Z 00432ab0 f i field.obj
 0001:00031ad0       ?init@Create_field@@QAE_NPAVTHD@@PADW4enum_field_types@@11IPAVItem@@3PAUst_mysql_lex_string@@1PAV?$List@VString@@@@PAUcharset_info_st@@I@Z 00432ad0 f   field.obj
 0001:00032380       ??0Field_longstr@@QAE@PAEI0EW4utype@Field@@PBDPAUcharset_info_st@@@Z 00433380 f i field.obj
 0001:000323d0       ??_GField_longstr@@UAEPAXI@Z 004333d0 f i field.obj
 0001:000323d0       ??_EField_longstr@@UAEPAXI@Z 004333d0 f i field.obj
 0001:000323e0       ??0Field_null@@QAE@PAEIW4utype@Field@@PBDPAUcharset_info_st@@@Z 004333e0 f i field.obj
 0001:00032430       ?type@Field_null@@UBE?AW4enum_field_types@@XZ 00433430 f i field.obj
 0001:00032440       ?store@Field_null@@UAEHPBDIPAUcharset_info_st@@@Z 00433440 f i field.obj
 0001:00032450       ?store@Field_null@@UAEHN@Z 00433450 f i field.obj
 0001:00032460       ?store@Field_null@@UAEH_J_N@Z 00433460 f i field.obj
 0001:00032470       ?store_decimal@Field_null@@UAEHPBVmy_decimal@@@Z 00433470 f i field.obj
 0001:00032480       ?reset@Field_null@@UAEHXZ  00433480 f i field.obj
 0001:00032490       ?val_real@Field_null@@UAENXZ 00433490 f i field.obj
 0001:000324a0       ?val_int@Field_null@@UAE_JXZ 004334a0 f i field.obj
 0001:000324b0       ?val_decimal@Field_null@@UAEPAVmy_decimal@@PAV2@@Z 004334b0 f i field.obj
 0001:000324c0       ?val_str@Field_null@@UAEPAVString@@PAV2@0@Z 004334c0 f i field.obj
 0001:000324e0       ?cmp@Field_null@@UAEHPBE0@Z 004334e0 f i field.obj
 0001:000324f0       ?sort_string@Field_null@@UAEXPAEI@Z 004334f0 f i field.obj
 0001:00032500       ?pack_length@Field_null@@UBEIXZ 00433500 f i field.obj
 0001:00032510       ?size_of@Field_null@@UBEIXZ 00433510 f i field.obj
 0001:00032520       ?max_display_length@Field_null@@UAEIXZ 00433520 f i field.obj
 0001:00032530       ??1Field_null@@UAE@XZ      00433530 f i field.obj
 0001:00032540       ??_GField_null@@UAEPAXI@Z  00433540 f i field.obj
 0001:00032540       ??_EField_null@@UAEPAXI@Z  00433540 f i field.obj
 0001:00032550       ??0Field_date@@QAE@PAE0EW4utype@Field@@PBDPAUcharset_info_st@@@Z 00433550 f i field.obj
 0001:000325a0       ?type@Field_date@@UBE?AW4enum_field_types@@XZ 004335a0 f i field.obj
 0001:000325b0       ?key_type@Field_date@@UBE?AW4ha_base_keytype@@XZ 004335b0 f i field.obj
 0001:000325c0       ?cmp_type@Field_date@@UBE?AW4Item_result@@XZ 004335c0 f i field.obj
 0001:000325d0       ?reset@Field_date@@UAEHXZ  004335d0 f i field.obj
 0001:00032600       ?pack_length@Field_date@@UBEIXZ 00433600 f i field.obj
 0001:00032610       ?can_be_compared_as_longlong@Field_date@@UBE_NXZ 00433610 f i field.obj
 0001:00032620       ?zero_pack@Field_date@@UBE_NXZ 00433620 f i field.obj
 0001:00032630       ?pack@Field_date@@UAEPAEPAEPBEI_N@Z 00433630 f i field.obj
 0001:00032650       ?unpack@Field_date@@UAEPBEPAEPBEI_N@Z 00433650 f i field.obj
 0001:00032670       ??1Field_date@@UAE@XZ      00433670 f i field.obj
 0001:00032680       ??_GField_date@@UAEPAXI@Z  00433680 f i field.obj
 0001:00032680       ??_EField_date@@UAEPAXI@Z  00433680 f i field.obj
 0001:00032690       ??0Field_newdate@@QAE@PAE0EW4utype@Field@@PBDPAUcharset_info_st@@@Z 00433690 f i field.obj
 0001:000326e0       ?type@Field_newdate@@UBE?AW4enum_field_types@@XZ 004336e0 f i field.obj
 0001:000326f0       ?real_type@Field_newdate@@UBE?AW4enum_field_types@@XZ 004336f0 f i field.obj
 0001:00032700       ?key_type@Field_newdate@@UBE?AW4ha_base_keytype@@XZ 00433700 f i field.obj
 0001:00032710       ?cmp_type@Field_newdate@@UBE?AW4Item_result@@XZ 00433710 f i field.obj
 0001:00032720       ?reset@Field_newdate@@UAEHXZ 00433720 f i field.obj
 0001:00032740       ?pack_length@Field_newdate@@UBEIXZ 00433740 f i field.obj
 0001:00032750       ?can_be_compared_as_longlong@Field_newdate@@UBE_NXZ 00433750 f i field.obj
 0001:00032760       ?zero_pack@Field_newdate@@UBE_NXZ 00433760 f i field.obj
 0001:00032770       ??1Field_newdate@@UAE@XZ   00433770 f i field.obj
 0001:00032780       ??_EField_newdate@@UAEPAXI@Z 00433780 f i field.obj
 0001:00032780       ??_GField_newdate@@UAEPAXI@Z 00433780 f i field.obj
 0001:00032790       ??0Field_time@@QAE@PAE0EW4utype@Field@@PBDPAUcharset_info_st@@@Z 00433790 f i field.obj
 0001:000327e0       ?type@Field_time@@UBE?AW4enum_field_types@@XZ 004337e0 f i field.obj
 0001:000327f0       ?key_type@Field_time@@UBE?AW4ha_base_keytype@@XZ 004337f0 f i field.obj
 0001:00032800       ?cmp_type@Field_time@@UBE?AW4Item_result@@XZ 00433800 f i field.obj
 0001:00032810       ?reset@Field_time@@UAEHXZ  00433810 f i field.obj
 0001:00032830       ?pack_length@Field_time@@UBEIXZ 00433830 f i field.obj
 0001:00032840       ?can_be_compared_as_longlong@Field_time@@UBE_NXZ 00433840 f i field.obj
 0001:00032850       ?zero_pack@Field_time@@UBE_NXZ 00433850 f i field.obj
 0001:00032860       ??1Field_time@@UAE@XZ      00433860 f i field.obj
 0001:00032870       ??_GField_time@@UAEPAXI@Z  00433870 f i field.obj
 0001:00032870       ??_EField_time@@UAEPAXI@Z  00433870 f i field.obj
 0001:00032880       ??0Field_datetime@@QAE@PAE0EW4utype@Field@@PBDPAUcharset_info_st@@@Z 00433880 f i field.obj
 0001:000328d0       ?handle_int64@Field@@KAXPAEPBE_N2@Z 004338d0 f i field.obj
 0001:000328f0       ?pack_int64@Field@@IAEPAEPAEPBE_N@Z 004338f0 f i field.obj
 0001:00032910       ?unpack_int64@Field@@IAEPBEPAEPBE_N@Z 00433910 f i field.obj
 0001:00032930       ?type@Field_datetime@@UBE?AW4enum_field_types@@XZ 00433930 f i field.obj
 0001:00032940       ?key_type@Field_datetime@@UBE?AW4ha_base_keytype@@XZ 00433940 f i field.obj
 0001:00032950       ?cmp_type@Field_datetime@@UBE?AW4Item_result@@XZ 00433950 f i field.obj
 0001:00032960       ?decimals@Field_datetime@@UBEIXZ 00433960 f i field.obj
 0001:00032970       ?reset@Field_datetime@@UAEHXZ 00433970 f i field.obj
 0001:000329c0       ?pack_length@Field_datetime@@UBEIXZ 004339c0 f i field.obj
 0001:000329d0       ?can_be_compared_as_longlong@Field_datetime@@UBE_NXZ 004339d0 f i field.obj
 0001:000329e0       ?zero_pack@Field_datetime@@UBE_NXZ 004339e0 f i field.obj
 0001:000329f0       ?pack@Field_datetime@@UAEPAEPAEPBEI_N@Z 004339f0 f i field.obj
 0001:00032a10       ?unpack@Field_datetime@@UAEPBEPAEPBEI_N@Z 00433a10 f i field.obj
 0001:00032a30       ??1Field_datetime@@UAE@XZ  00433a30 f i field.obj
 0001:00032a40       ??_GField_datetime@@UAEPAXI@Z 00433a40 f i field.obj
 0001:00032a40       ??_EField_datetime@@UAEPAXI@Z 00433a40 f i field.obj
 0001:00032a50       ??0Field_string@@QAE@PAEI0EW4utype@Field@@PBDPAUcharset_info_st@@@Z 00433a50 f i field.obj
 0001:00032aa0       ?type@Field_string@@UBE?AW4enum_field_types@@XZ 00433aa0 f i field.obj
 0001:00032ae0       ?key_type@Field_string@@UBE?AW4ha_base_keytype@@XZ 00433ae0 f i field.obj
 0001:00032b00       ?zero_pack@Field_string@@UBE_NXZ 00433b00 f i field.obj
 0001:00032b10       ?reset@Field_string@@UAEHXZ 00433b10 f i field.obj
 0001:00032b70       ?pack_length_from_metadata@Field_string@@UAEII@Z 00433b70 f i field.obj
 0001:00032ba0       ?row_pack_length@Field_string@@UAEIXZ 00433ba0 f i field.obj
 0001:00032bb0       ?size_of@Field_string@@UBEIXZ 00433bb0 f i field.obj
 0001:00032bc0       ?real_type@Field_string@@UBE?AW4enum_field_types@@XZ 00433bc0 f i field.obj
 0001:00032bd0       ?has_charset@Field_string@@UBE_NXZ 00433bd0 f i field.obj
 0001:00032bf0       ??1Field_string@@UAE@XZ    00433bf0 f i field.obj
 0001:00032c00       ?store@Field_string@@UAEHN@Z 00433c00 f i field.obj
 0001:00032c20       ??_EField_string@@UAEPAXI@Z 00433c20 f i field.obj
 0001:00032c20       ??_GField_string@@UAEPAXI@Z 00433c20 f i field.obj
 0001:00032c30       ??0Field_varstring@@QAE@PAEII0EW4utype@Field@@PBDPAUst_table_share@@PAUcharset_info_st@@@Z 00433c30 f i field.obj
 0001:00032c90       ?type@Field_varstring@@UBE?AW4enum_field_types@@XZ 00433c90 f i field.obj
 0001:00032ca0       ?row_pack_length@Field_varstring@@UAEIXZ 00433ca0 f i field.obj
 0001:00032cb0       ?zero_pack@Field_varstring@@UBE_NXZ 00433cb0 f i field.obj
 0001:00032cc0       ?reset@Field_varstring@@UAEHXZ 00433cc0 f i field.obj
 0001:00032ce0       ?pack_length@Field_varstring@@UBEIXZ 00433ce0 f i field.obj
 0001:00032cf0       ?key_length@Field_varstring@@UBEIXZ 00433cf0 f i field.obj
 0001:00032d00       ?sort_length@Field_varstring@@UBEIXZ 00433d00 f i field.obj
 0001:00032d20       ?cmp@Field_varstring@@UAEHPBE0@Z 00433d20 f i field.obj
 0001:00032d40       ?size_of@Field_varstring@@UBEIXZ 00433d40 f i field.obj
 0001:00032d50       ?real_type@Field_varstring@@UBE?AW4enum_field_types@@XZ 00433d50 f i field.obj
 0001:00032d60       ?has_charset@Field_varstring@@UBE_NXZ 00433d60 f i field.obj
 0001:00032d80       ??1Field_varstring@@UAE@XZ 00433d80 f i field.obj
 0001:00032d90       ?store@Field_varstring@@UAEHN@Z 00433d90 f i field.obj
 0001:00032db0       ??_GField_varstring@@UAEPAXI@Z 00433db0 f i field.obj
 0001:00032db0       ??_EField_varstring@@UAEPAXI@Z 00433db0 f i field.obj
 0001:00032dc0       ??0Field_varstring@@QAE@I_NPBDPAUst_table_share@@PAUcharset_info_st@@@Z 00433dc0 f i field.obj
 0001:00032e30       ??0Field_enum@@QAE@PAEI0EW4utype@Field@@PBDIPAUst_typelib@@PAUcharset_info_st@@@Z 00433e30 f i field.obj
 0001:00032ea0       ?type@Field_enum@@UBE?AW4enum_field_types@@XZ 00433ea0 f i field.obj
 0001:00032eb0       ?cmp_type@Field_enum@@UBE?AW4Item_result@@XZ 00433eb0 f i field.obj
 0001:00032ec0       ?cast_to_int_type@Field_enum@@UBE?AW4Item_result@@XZ 00433ec0 f i field.obj
 0001:00032ed0       ?pack_length@Field_enum@@UBEIXZ 00433ed0 f i field.obj
 0001:00032ee0       ?size_of@Field_enum@@UBEIXZ 00433ee0 f i field.obj
 0001:00032ef0       ?real_type@Field_enum@@UBE?AW4enum_field_types@@XZ 00433ef0 f i field.obj
 0001:00032f00       ?pack_length_from_metadata@Field_enum@@UAEII@Z 00433f00 f i field.obj
 0001:00032f10       ?row_pack_length@Field_enum@@UAEIXZ 00433f10 f i field.obj
 0001:00032f20       ?zero_pack@Field_enum@@UBE_NXZ 00433f20 f i field.obj
 0001:00032f30       ?optimize_range@Field_enum@@UAE_NII@Z 00433f30 f i field.obj
 0001:00032f40       ?has_charset@Field_enum@@UBE_NXZ 00433f40 f i field.obj
 0001:00032f50       ?sort_charset@Field_enum@@UBEPAUcharset_info_st@@XZ 00433f50 f i field.obj
 0001:00032f60       ??_EField_enum@@UAEPAXI@Z  00433f60 f i field.obj
 0001:00032f60       ??_GField_enum@@UAEPAXI@Z  00433f60 f i field.obj
 0001:00032f70       ??0Field_set@@QAE@PAEI0EW4utype@Field@@PBDIPAUst_typelib@@PAUcharset_info_st@@@Z 00433f70 f i field.obj
 0001:00032fe0       ?zero_pack@Field_set@@UBE_NXZ 00433fe0 f i field.obj
 0001:00032ff0       ?real_type@Field_set@@UBE?AW4enum_field_types@@XZ 00433ff0 f i field.obj
 0001:00033000       ?has_charset@Field_set@@UBE_NXZ 00434000 f i field.obj
 0001:00033010       ??1Field_set@@UAE@XZ       00434010 f i field.obj
 0001:00033020       ??_GField_set@@UAEPAXI@Z   00434020 f i field.obj
 0001:00033020       ??_EField_set@@UAEPAXI@Z   00434020 f i field.obj
 0001:00033030       ?store@Field_set@@UAEHN@Z  00434030 f i field.obj
 0001:00033060       ??0Field_num@@QAE@PAEI0EW4utype@Field@@PBDE_N3@Z 00434060 f   field.obj
 0001:000330d0       ?result_type@Field_num@@UBE?AW4Item_result@@XZ 004340d0 f i field.obj
 0001:000330e0       ?decimals@Field_num@@UBEIXZ 004340e0 f i field.obj
 0001:000330f0       ?size_of@Field_num@@UBEIXZ 004340f0 f i field.obj
 0001:00033100       ??_GField_num@@UAEPAXI@Z   00434100 f i field.obj
 0001:00033100       ??_EField_num@@UAEPAXI@Z   00434100 f i field.obj
 0001:00033110       ??0Field_new_decimal@@QAE@PAEI0EW4utype@Field@@PBDE_N3@Z 00434110 f   field.obj
 0001:000331c0       ?type@Field_new_decimal@@UBE?AW4enum_field_types@@XZ 004341c0 f i field.obj
 0001:000331d0       ?key_type@Field_new_decimal@@UBE?AW4ha_base_keytype@@XZ 004341d0 f i field.obj
 0001:000331e0       ?result_type@Field_new_decimal@@UBE?AW4Item_result@@XZ 004341e0 f i field.obj
 0001:000331f0       ?zero_pack@Field_new_decimal@@UBE_NXZ 004341f0 f i field.obj
 0001:00033200       ?max_display_length@Field_new_decimal@@UAEIXZ 00434200 f i field.obj
 0001:00033210       ?size_of@Field_new_decimal@@UBEIXZ 00434210 f i field.obj
 0001:00033220       ?pack_length@Field_new_decimal@@UBEIXZ 00434220 f i field.obj
 0001:00033230       ?row_pack_length@Field_new_decimal@@UAEIXZ 00434230 f i field.obj
 0001:00033240       ??1Field_new_decimal@@UAE@XZ 00434240 f i field.obj
 0001:00033250       ??_GField_new_decimal@@UAEPAXI@Z 00434250 f i field.obj
 0001:00033250       ??_EField_new_decimal@@UAEPAXI@Z 00434250 f i field.obj
 0001:00033260       ??0Field_new_decimal@@QAE@I_NPBDE0@Z 00434260 f   field.obj
 0001:00033310       ?store@Field_float@@UAEHPBDIPAUcharset_info_st@@@Z 00434310 f   field.obj
 0001:000333d0       ?store@Field_double@@UAEHPBDIPAUcharset_info_st@@@Z 004343d0 f   field.obj
 0001:00033490       ?new_field@Field_string@@UAEPAVField@@PAUst_mem_root@@PAUst_table@@_N@Z 00434490 f   field.obj
 0001:00033570       ??0Field_blob@@QAE@PAE0EW4utype@Field@@PBDPAUst_table_share@@IPAUcharset_info_st@@@Z 00434570 f   field.obj
 0001:00033620       ?type@Field_blob@@UBE?AW4enum_field_types@@XZ 00434620 f i field.obj
 0001:00033630       ?key_type@Field_blob@@UBE?AW4ha_base_keytype@@XZ 00434630 f i field.obj
 0001:00033650       ?cmp@Field_blob@@UAEHPBE0@Z 00434650 f i field.obj
 0001:00033670       ?key_length@Field_blob@@UBEIXZ 00434670 f i field.obj
 0001:00033680       ?row_pack_length@Field_blob@@UAEIXZ 00434680 f i field.obj
 0001:00033690       ?max_data_length@Field_blob@@UBEIXZ 00434690 f i field.obj
 0001:000336b0       ?reset@Field_blob@@UAEHXZ  004346b0 f i field.obj
 0001:000336d0       ?reset_fields@Field_blob@@UAEXXZ 004346d0 f i field.obj
 0001:000336f0       ?free@Field_blob@@UAEXXZ   004346f0 f i field.obj
 0001:00033720       ?size_of@Field_blob@@UBEIXZ 00434720 f i field.obj
 0001:00033730       ?has_charset@Field_blob@@UBE_NXZ 00434730 f i field.obj
 0001:00033750       ??_GField_blob@@UAEPAXI@Z  00434750 f i field.obj
 0001:00033750       ??_EField_blob@@UAEPAXI@Z  00434750 f i field.obj
 0001:00033790       ??0Field_real@@QAE@PAEI0EW4utype@Field@@PBDE_N3@Z 00434790 f i field.obj
 0001:00033800       ?max_display_length@Field_real@@UAEIXZ 00434800 f i field.obj
 0001:00033810       ?size_of@Field_real@@UBEIXZ 00434810 f i field.obj
 0001:00033820       ??_GField_real@@UAEPAXI@Z  00434820 f i field.obj
 0001:00033820       ??_EField_real@@UAEPAXI@Z  00434820 f i field.obj
 0001:00033830       ??0Field_decimal@@QAE@PAEI0EW4utype@Field@@PBDE_N3@Z 00434830 f i field.obj
 0001:000338a0       ?type@Field_decimal@@UBE?AW4enum_field_types@@XZ 004348a0 f i field.obj
 0001:000338b0       ?key_type@Field_decimal@@UBE?AW4ha_base_keytype@@XZ 004348b0 f i field.obj
 0001:000338d0       ?zero_pack@Field_decimal@@UBE_NXZ 004348d0 f i field.obj
 0001:000338e0       ??1Field_decimal@@UAE@XZ   004348e0 f i field.obj
 0001:000338f0       ?unpack@Field_decimal@@UAEPBEPAEPBEI_N@Z 004348f0 f i field.obj
 0001:00033900       ?pack@Field_decimal@@UAEPAEPAEPBEI_N@Z 00434900 f i field.obj
 0001:00033910       ??_GField_decimal@@UAEPAXI@Z 00434910 f i field.obj
 0001:00033910       ??_EField_decimal@@UAEPAXI@Z 00434910 f i field.obj
 0001:00033920       ??0Field_tiny@@QAE@PAEI0EW4utype@Field@@PBD_N3@Z 00434920 f i field.obj
 0001:00033970       ?result_type@Field_tiny@@UBE?AW4Item_result@@XZ 00434970 f i field.obj
 0001:00033980       ?type@Field_tiny@@UBE?AW4enum_field_types@@XZ 00434980 f i field.obj
 0001:00033990       ?key_type@Field_tiny@@UBE?AW4ha_base_keytype@@XZ 00434990 f i field.obj
 0001:000339b0       ?reset@Field_tiny@@UAEHXZ  004349b0 f i field.obj
 0001:000339c0       ?pack_length@Field_tiny@@UBEIXZ 004349c0 f i field.obj
 0001:000339d0       ?max_display_length@Field_tiny@@UAEIXZ 004349d0 f i field.obj
 0001:000339e0       ?pack@Field_tiny@@UAEPAEPAEPBEI_N@Z 004349e0 f i field.obj
 0001:00033a00       ?unpack@Field_tiny@@UAEPBEPAEPBEI_N@Z 00434a00 f i field.obj
 0001:00033a20       ??_EField_tiny@@UAEPAXI@Z  00434a20 f i field.obj
 0001:00033a20       ??_GField_tiny@@UAEPAXI@Z  00434a20 f i field.obj
 0001:00033a30       ??0Field_short@@QAE@PAEI0EW4utype@Field@@PBD_N3@Z 00434a30 f i field.obj
 0001:00033a80       ?result_type@Field_short@@UBE?AW4Item_result@@XZ 00434a80 f i field.obj
 0001:00033a90       ?type@Field_short@@UBE?AW4enum_field_types@@XZ 00434a90 f i field.obj
 0001:00033aa0       ?key_type@Field_short@@UBE?AW4ha_base_keytype@@XZ 00434aa0 f i field.obj
 0001:00033ac0       ?reset@Field_short@@UAEHXZ 00434ac0 f i field.obj
 0001:00033ae0       ?pack_length@Field_short@@UBEIXZ 00434ae0 f i field.obj
 0001:00033af0       ?max_display_length@Field_short@@UAEIXZ 00434af0 f i field.obj
 0001:00033b00       ?pack@Field_short@@UAEPAEPAEPBEI_N@Z 00434b00 f i field.obj
 0001:00033b20       ?unpack@Field_short@@UAEPBEPAEPBEI_N@Z 00434b20 f i field.obj
 0001:00033b40       ??1Field_short@@UAE@XZ     00434b40 f i field.obj
 0001:00033b50       ??_GField_short@@UAEPAXI@Z 00434b50 f i field.obj
 0001:00033b50       ??_EField_short@@UAEPAXI@Z 00434b50 f i field.obj
 0001:00033b60       ??0Field_medium@@QAE@PAEI0EW4utype@Field@@PBD_N3@Z 00434b60 f i field.obj
 0001:00033bb0       ?result_type@Field_medium@@UBE?AW4Item_result@@XZ 00434bb0 f i field.obj
 0001:00033bc0       ?type@Field_medium@@UBE?AW4enum_field_types@@XZ 00434bc0 f i field.obj
 0001:00033bd0       ?key_type@Field_medium@@UBE?AW4ha_base_keytype@@XZ 00434bd0 f i field.obj
 0001:00033be0       ?reset@Field_medium@@UAEHXZ 00434be0 f i field.obj
 0001:00033c00       ?pack_length@Field_medium@@UBEIXZ 00434c00 f i field.obj
 0001:00033c10       ?max_display_length@Field_medium@@UAEIXZ 00434c10 f i field.obj
 0001:00033c20       ??1Field_medium@@UAE@XZ    00434c20 f i field.obj
 0001:00033c30       ?pack@Field_medium@@UAEPAEPAEPBEI_N@Z 00434c30 f i field.obj
 0001:00033c40       ?unpack@Field_medium@@UAEPBEPAEPBEI_N@Z 00434c40 f i field.obj
 0001:00033c50       ??_GField_medium@@UAEPAXI@Z 00434c50 f i field.obj
 0001:00033c50       ??_EField_medium@@UAEPAXI@Z 00434c50 f i field.obj
 0001:00033c60       ??0Field_long@@QAE@PAEI0EW4utype@Field@@PBD_N3@Z 00434c60 f i field.obj
 0001:00033cb0       ?result_type@Field_long@@UBE?AW4Item_result@@XZ 00434cb0 f i field.obj
 0001:00033cc0       ?type@Field_long@@UBE?AW4enum_field_types@@XZ 00434cc0 f i field.obj
 0001:00033cd0       ?key_type@Field_long@@UBE?AW4ha_base_keytype@@XZ 00434cd0 f i field.obj
 0001:00033cf0       ?reset@Field_long@@UAEHXZ  00434cf0 f i field.obj
 0001:00033d20       ?pack_length@Field_long@@UBEIXZ 00434d20 f i field.obj
 0001:00033d30       ?max_display_length@Field_long@@UAEIXZ 00434d30 f i field.obj
 0001:00033d40       ?pack@Field_long@@UAEPAEPAEPBEI_N@Z 00434d40 f i field.obj
 0001:00033d60       ?unpack@Field_long@@UAEPBEPAEPBEI_N@Z 00434d60 f i field.obj
 0001:00033d80       ??1Field_long@@UAE@XZ      00434d80 f i field.obj
 0001:00033d90       ??_GField_long@@UAEPAXI@Z  00434d90 f i field.obj
 0001:00033d90       ??_EField_long@@UAEPAXI@Z  00434d90 f i field.obj
 0001:00033da0       ??0Field_longlong@@QAE@PAEI0EW4utype@Field@@PBD_N3@Z 00434da0 f i field.obj
 0001:00033df0       ?result_type@Field_longlong@@UBE?AW4Item_result@@XZ 00434df0 f i field.obj
 0001:00033e00       ?type@Field_longlong@@UBE?AW4enum_field_types@@XZ 00434e00 f i field.obj
 0001:00033e10       ?key_type@Field_longlong@@UBE?AW4ha_base_keytype@@XZ 00434e10 f i field.obj
 0001:00033e20       ?reset@Field_longlong@@UAEHXZ 00434e20 f i field.obj
 0001:00033e70       ?pack_length@Field_longlong@@UBEIXZ 00434e70 f i field.obj
 0001:00033e80       ?can_be_compared_as_longlong@Field_longlong@@UBE_NXZ 00434e80 f i field.obj
 0001:00033e90       ?max_display_length@Field_longlong@@UAEIXZ 00434e90 f i field.obj
 0001:00033ea0       ?pack@Field_longlong@@UAEPAEPAEPBEI_N@Z 00434ea0 f i field.obj
 0001:00033ec0       ?unpack@Field_longlong@@UAEPBEPAEPBEI_N@Z 00434ec0 f i field.obj
 0001:00033ee0       ??1Field_longlong@@UAE@XZ  00434ee0 f i field.obj
 0001:00033ef0       ??_GField_longlong@@UAEPAXI@Z 00434ef0 f i field.obj
 0001:00033ef0       ??_EField_longlong@@UAEPAXI@Z 00434ef0 f i field.obj
 0001:00033f00       ??0Field_float@@QAE@PAEI0EW4utype@Field@@PBDE_N3@Z 00434f00 f i field.obj
 0001:00033f70       ?type@Field_float@@UBE?AW4enum_field_types@@XZ 00434f70 f i field.obj
 0001:00033f80       ?key_type@Field_float@@UBE?AW4ha_base_keytype@@XZ 00434f80 f i field.obj
 0001:00033f90       ?reset@Field_float@@UAEHXZ 00434f90 f i field.obj
 0001:00033fa0       ?pack_length@Field_float@@UBEIXZ 00434fa0 f i field.obj
 0001:00033fb0       ?row_pack_length@Field_float@@UAEIXZ 00434fb0 f i field.obj
 0001:00033fc0       ??1Field_float@@UAE@XZ     00434fc0 f i field.obj
 0001:00033fd0       ??_GField_float@@UAEPAXI@Z 00434fd0 f i field.obj
 0001:00033fd0       ??_EField_float@@UAEPAXI@Z 00434fd0 f i field.obj
 0001:00033fe0       ??0Field_double@@QAE@PAEI0EW4utype@Field@@PBDE_N3@Z 00434fe0 f i field.obj
 0001:00034050       ?type@Field_double@@UBE?AW4enum_field_types@@XZ 00435050 f i field.obj
 0001:00034060       ?key_type@Field_double@@UBE?AW4ha_base_keytype@@XZ 00435060 f i field.obj
 0001:00034070       ?reset@Field_double@@UAEHXZ 00435070 f i field.obj
 0001:00034080       ?pack_length@Field_double@@UBEIXZ 00435080 f i field.obj
 0001:00034090       ?row_pack_length@Field_double@@UAEIXZ 00435090 f i field.obj
 0001:000340a0       ??1Field_double@@UAE@XZ    004350a0 f i field.obj
 0001:000340b0       ??_GField_double@@UAEPAXI@Z 004350b0 f i field.obj
 0001:000340b0       ??_EField_double@@UAEPAXI@Z 004350b0 f i field.obj
 0001:000340c0       ??0Field_year@@QAE@PAEI0EW4utype@Field@@PBD@Z 004350c0 f i field.obj
 0001:00034110       ?type@Field_year@@UBE?AW4enum_field_types@@XZ 00435110 f i field.obj
 0001:00034120       ?can_be_compared_as_longlong@Field_year@@UBE_NXZ 00435120 f i field.obj
 0001:00034130       ??1Field_year@@UAE@XZ      00435130 f i field.obj
 0001:00034140       ??_GField_year@@UAEPAXI@Z  00435140 f i field.obj
 0001:00034140       ??_EField_year@@UAEPAXI@Z  00435140 f i field.obj
 0001:00034150       ??0Field_geom@@QAE@PAE0IW4utype@Field@@PBDPAUst_table_share@@IW4geometry_type@2@@Z 00435150 f i field.obj
 0001:000341b0       ?key_type@Field_geom@@UBE?AW4ha_base_keytype@@XZ 004351b0 f i field.obj
 0001:000341c0       ?type@Field_geom@@UBE?AW4enum_field_types@@XZ 004351c0 f i field.obj
 0001:000341d0       ?size_of@Field_geom@@UBEIXZ 004351d0 f i field.obj
 0001:000341e0       ?reset@Field_geom@@UAEHXZ  004351e0 f i field.obj
 0001:00034220       ?get_geometry_type@Field_geom@@UAE?AW4geometry_type@Field@@XZ 00435220 f i field.obj
 0001:00034230       ??1Field_geom@@UAE@XZ      00435230 f i field.obj
 0001:00034270       ??_GField_geom@@UAEPAXI@Z  00435270 f i field.obj
 0001:00034270       ??_EField_geom@@UAEPAXI@Z  00435270 f i field.obj
 0001:000342b0       ?make_field@@YAPAVField@@PAUst_table_share@@PAEI1EIW4enum_field_types@@PAUcharset_info_st@@W4geometry_type@1@W4utype@1@PAUst_typelib@@PBD@Z 004352b0 f   field.obj
 0001:00034dd0       ?set_quick@String@@QAEXPADIPAUcharset_info_st@@@Z 00435dd0 f i field_conv.obj
 0001:00034e10       ?is_alloced@String@@QAE_NXZ 00435e10 f i field_conv.obj
 0001:00034e20       ?real_maybe_null@Field@@QAE_NXZ 00435e20 f i field_conv.obj
 0001:000350c0       ?set_field_to_null@@YAHPAVField@@@Z 004360c0 f   field_conv.obj
 0001:00035150       ?set_field_to_null_with_conversions@@YAHPAVField@@_N@Z 00436150 f   field_conv.obj
 0001:00035b70       ?set@Copy_field@@QAEXPAEPAVField@@@Z 00436b70 f   field_conv.obj
 0001:00035c30       ?get_copy_func@Copy_field@@AAEP6AXPAV1@@ZPAVField@@1@Z 00436c30 f   field_conv.obj
 0001:000362c0       ?set@Copy_field@@QAEXPAVField@@0_N@Z 004372c0 f   field_conv.obj
 0001:00036460       ?field_conv@@YAHPAVField@@0@Z 00437460 f   field_conv.obj
 0001:00036970       ?ha_rnd_init@handler@@QAEH_N@Z 00437970 f i filesort.obj
 0001:000369b0       ?ha_rnd_end@handler@@QAEHXZ 004379b0 f i filesort.obj
 0001:000369d0       ?ha_table_flags@handler@@QBE_KXZ 004379d0 f i filesort.obj
 0001:000369e0       ?column_bitmaps_set@st_table@@QAEXPAUst_bitmap@@0@Z 004379e0 f i filesort.obj
 0001:00036a10       ?pack@Field@@QAEPAEPAEPBE@Z 00437a10 f i filesort.obj
 0001:00036a40       ?unpack@Field@@QAEPBEPAEPBE@Z 00437a40 f i filesort.obj
 0001:00036a70       ?is_uncacheable@Item_subselect@@QBE_NXZ 00437a70 f i filesort.obj
 0001:00036a90       ?is_error@Diagnostics_area@@QBE_NXZ 00437a90 f i filesort.obj
 0001:00036aa0       ?is_error@THD@@QBE_NXZ     00437aa0 f i filesort.obj
 0001:00036ab0       ?skip_record@SQL_SELECT@@QAE_NXZ 00437ab0 f i filesort.obj
 0001:00036ae0       ?filesort_free_buffers@@YAXPAUst_table@@_N@Z 00437ae0 f   filesort.obj
 0001:00036f30       ?read_to_buffer@@YAIPAUst_io_cache@@PAUst_buffpek@@I@Z 00437f30 f   filesort.obj
 0001:00036fd0       ?reuse_freed_buff@@YAXPAUst_queue@@PAUst_buffpek@@I@Z 00437fd0 f   filesort.obj
 0001:00037070       ?merge_buffers@@YAHPAUst_sort_param@@PAUst_io_cache@@1PAEPAUst_buffpek@@33H@Z 00438070 f   filesort.obj
 0001:00037c30       ?change_double_for_sort@@YAXNPAE@Z 00438c30 f   filesort.obj
 0001:00037d30       ??_9Item@@$BBBI@AE         00438d30 f i filesort.obj
 0001:00038390       ?merge_many_buff@@YAHPAUst_sort_param@@PAEPAUst_buffpek@@PAIPAUst_io_cache@@@Z 00439390 f   filesort.obj
 0001:00038c50       ?filesort@@YA_KPAVTHD@@PAUst_table@@PAUst_sort_field@@IPAVSQL_SELECT@@_K_NPA_K@Z 00439c50 f   filesort.obj
 0001:00039420       ?skip_space@Gis_read_stream@@QAEXXZ 0043a420 f i gstream.obj
 0001:00039460       ?get_next_toc_type@Gis_read_stream@@QAE?AW4enum_tok_types@1@XZ 0043a460 f   gstream.obj
 0001:000394f0       ?get_next_word@Gis_read_stream@@QAE_NPAUst_mysql_lex_string@@@Z 0043a4f0 f   gstream.obj
 0001:00039590       ?set_error_msg@Gis_read_stream@@QAEXPBD@Z 0043a590 f   gstream.obj
 0001:000395e0       ?get_next_number@Gis_read_stream@@QAE_NPAN@Z 0043a5e0 f   gstream.obj
 0001:00039680       ?check_next_symbol@Gis_read_stream@@QAE_ND@Z 0043a680 f   gstream.obj
 0001:00039720       ?replace@Discrete_interval@@QAEX_K00@Z 0043a720 f i ha_partition.obj
 0001:00039790       ??0Discrete_interval@@QAE@XZ 0043a790 f i ha_partition.obj
 0001:000397b0       ?maximum@Discrete_interval@@QBE_KXZ 0043a7b0 f i ha_partition.obj
 0001:000397c0       ??2Sql_alloc@@SAPAXIPAUst_mem_root@@@Z 0043a7c0 f i ha_partition.obj
 0001:000397e0       ?next_fast@base_list_iterator@@QAEPAXXZ 0043a7e0 f i ha_partition.obj
 0001:000397f0       ?rewind@base_list_iterator@@QAEXXZ 0043a7f0 f i ha_partition.obj
 0001:00039800       ??0ha_statistics@@QAE@XZ   0043a800 f i ha_partition.obj
 0001:00039860       ??0handler@@QAE@PAUhandlerton@@PAUst_table_share@@@Z 0043a860 f i ha_partition.obj
 0001:000399a0       ??3Sql_alloc@@SAXPAXI@Z    0043a9a0 f i ha_partition.obj
 0001:000399b0       ??1handler@@UAE@XZ         0043a9b0 f i ha_partition.obj
 0001:000399c0       ?ha_index_init@handler@@QAEHI_N@Z 0043a9c0 f i ha_partition.obj
 0001:00039a00       ?ha_index_end@handler@@QAEHXZ 0043aa00 f i ha_partition.obj
 0001:00039a20       ?ha_start_bulk_insert@handler@@QAEX_K@Z 0043aa20 f i ha_partition.obj
 0001:00039a50       ?ha_end_bulk_insert@handler@@QAEHXZ 0043aa50 f i ha_partition.obj
 0001:00039a70       ?change_table_ptr@handler@@UAEXPAUst_table@@PAUst_table_share@@@Z 0043aa70 f i ha_partition.obj
 0001:00039a90       ?scan_time@handler@@UAENXZ 0043aa90 f i ha_partition.obj
 0001:00039af0       ?read_time@handler@@UAENII_K@Z 0043aaf0 f i ha_partition.obj
 0001:00039b40       ?keys_to_use_for_scanning@handler@@UAEPBV?$Bitmap@$0EA@@@XZ 0043ab40 f i ha_partition.obj
 0001:00039b50       ?extra_rec_buf_length@handler@@UBEIXZ 0043ab50 f i ha_partition.obj
 0001:00039b60       ?is_fatal_error@handler@@UAE_NHI@Z 0043ab60 f i ha_partition.obj
 0001:00039b90       ?records@handler@@UAE_KXZ  0043ab90 f i ha_partition.obj
 0001:00039ba0       ?estimate_rows_upper_bound@handler@@UAE_KXZ 0043aba0 f i ha_partition.obj
 0001:00039bb0       ?get_row_type@handler@@UBE?AW4row_type@@XZ 0043abb0 f i ha_partition.obj
 0001:00039bc0       ?index_type@handler@@UAEPBDI@Z 0043abc0 f i ha_partition.obj
 0001:00039bd0       ?start_bulk_update@handler@@UAE_NXZ 0043abd0 f i ha_partition.obj
 0001:00039be0       ?start_bulk_delete@handler@@UAE_NXZ 0043abe0 f i ha_partition.obj
 0001:00039bf0       ?exec_bulk_update@handler@@UAEHPAI@Z 0043abf0 f i ha_partition.obj
 0001:00039c00       ?end_bulk_update@handler@@UAEXXZ 0043ac00 f i ha_partition.obj
 0001:00039c10       ?end_bulk_delete@handler@@UAEHXZ 0043ac10 f i ha_partition.obj
 0001:00039c20       ?index_read_map@handler@@UAEHPAEPBEKW4ha_rkey_function@@@Z 0043ac20 f i ha_partition.obj
 0001:00039c70       ?index_next@handler@@UAEHPAE@Z 0043ac70 f i ha_partition.obj
 0001:00039c80       ?index_prev@handler@@UAEHPAE@Z 0043ac80 f i ha_partition.obj
 0001:00039c90       ?index_first@handler@@UAEHPAE@Z 0043ac90 f i ha_partition.obj
 0001:00039ca0       ?index_last@handler@@UAEHPAE@Z 0043aca0 f i ha_partition.obj
 0001:00039cb0       ?index_read_last_map@handler@@UAEHPAEPBEK@Z 0043acb0 f i ha_partition.obj
 0001:00039d00       ?ft_init@handler@@UAEHXZ   0043ad00 f i ha_partition.obj
 0001:00039d10       ?ft_init_ext@handler@@UAEPAUst_ft_info@@IIPAVString@@@Z 0043ad10 f i ha_partition.obj
 0001:00039d20       ?ft_read@handler@@UAEHPAE@Z 0043ad20 f i ha_partition.obj
 0001:00039d30       ?rnd_pos_by_record@handler@@UAEHPAE@Z 0043ad30 f i ha_partition.obj
 0001:00039d70       ?restart_rnd_next@handler@@UAEHPAE0@Z 0043ad70 f i ha_partition.obj
 0001:00039d80       ?rnd_same@handler@@UAEHPAEI@Z 0043ad80 f i ha_partition.obj
 0001:00039d90       ?records_in_range@handler@@UAE_KIPAUst_key_range@@0@Z 0043ad90 f i ha_partition.obj
 0001:00039da0       ?extra@handler@@UAEHW4ha_extra_function@@@Z 0043ada0 f i ha_partition.obj
 0001:00039db0       ?extra_opt@handler@@UAEHW4ha_extra_function@@K@Z 0043adb0 f i ha_partition.obj
 0001:00039dd0       ?was_semi_consistent_read@handler@@UAE_NXZ 0043add0 f i ha_partition.obj
 0001:00039de0       ?try_semi_consistent_read@handler@@UAEX_N@Z 0043ade0 f i ha_partition.obj
 0001:00039df0       ?unlock_row@handler@@UAEXXZ 0043adf0 f i ha_partition.obj
 0001:00039e00       ?start_stmt@handler@@UAEHPAVTHD@@W4thr_lock_type@@@Z 0043ae00 f i ha_partition.obj
 0001:00039e10       ?update_create_info@handler@@UAEXPAUst_ha_create_information@@@Z 0043ae10 f i ha_partition.obj
 0001:00039e20       ?assign_to_keycache@handler@@UAEHPAVTHD@@PAUst_ha_check_opt@@@Z 0043ae20 f i ha_partition.obj
 0001:00039e30       ?preload_keys@handler@@UAEHPAVTHD@@PAUst_ha_check_opt@@@Z 0043ae30 f i ha_partition.obj
 0001:00039e40       ?dump@handler@@UAEHPAVTHD@@H@Z 0043ae40 f i ha_partition.obj
 0001:00039e50       ?indexes_are_disabled@handler@@UAEHXZ 0043ae50 f i ha_partition.obj
 0001:00039e60       ?net_read_dump@handler@@UAEHPAUst_net@@@Z 0043ae60 f i ha_partition.obj
 0001:00039e70       ?update_table_comment@handler@@UAEPADPBD@Z 0043ae70 f i ha_partition.obj
 0001:00039e80       ?append_create_info@handler@@UAEXPAVString@@@Z 0043ae80 f i ha_partition.obj
 0001:00039e90       ?is_fk_defined_on_table_or_index@handler@@UAE_NI@Z 0043ae90 f i ha_partition.obj
 0001:00039ea0       ?get_foreign_key_create_info@handler@@UAEPADXZ 0043aea0 f i ha_partition.obj
 0001:00039eb0       ?get_tablespace_name@handler@@UAEPADPAVTHD@@PADI@Z 0043aeb0 f i ha_partition.obj
 0001:00039ec0       ?can_switch_engines@handler@@UAE_NXZ 0043aec0 f i ha_partition.obj
 0001:00039ed0       ?get_foreign_key_list@handler@@UAEHPAVTHD@@PAV?$List@Ust_foreign_key_info@@@@@Z 0043aed0 f i ha_partition.obj
 0001:00039ee0       ?referenced_by_foreign_key@handler@@UAEIXZ 0043aee0 f i ha_partition.obj
 0001:00039ef0       ?init_table_handle_for_HANDLER@handler@@UAEXXZ 0043aef0 f i ha_partition.obj
 0001:00039f00       ?free_foreign_key_create_info@handler@@UAEXPAD@Z 0043af00 f i ha_partition.obj
 0001:00039f10       ?get_default_no_partitions@handler@@UAEHPAUst_ha_create_information@@@Z 0043af10 f i ha_partition.obj
 0001:00039f20       ?set_auto_partitions@handler@@UAEXPAVpartition_info@@@Z 0043af20 f i ha_partition.obj
 0001:00039f30       ?get_no_parts@handler@@UAE_NPBDPAI@Z 0043af30 f i ha_partition.obj
 0001:00039f50       ?set_part_info@handler@@UAEXPAVpartition_info@@@Z 0043af50 f i ha_partition.obj
 0001:00039f60       ?add_index@handler@@UAEHPAUst_table@@PAUst_key@@I@Z 0043af60 f i ha_partition.obj
 0001:00039f70       ?prepare_drop_index@handler@@UAEHPAUst_table@@PAII@Z 0043af70 f i ha_partition.obj
 0001:00039f80       ?final_drop_index@handler@@UAEHPAUst_table@@@Z 0043af80 f i ha_partition.obj
 0001:00039f90       ?max_supported_record_length@handler@@UBEIXZ 0043af90 f i ha_partition.obj
 0001:00039fa0       ?max_supported_keys@handler@@UBEIXZ 0043afa0 f i ha_partition.obj
 0001:00039fb0       ?max_supported_key_parts@handler@@UBEIXZ 0043afb0 f i ha_partition.obj
 0001:00039fc0       ?max_supported_key_length@handler@@UBEIXZ 0043afc0 f i ha_partition.obj
 0001:00039fd0       ?max_supported_key_part_length@handler@@UBEIXZ 0043afd0 f i ha_partition.obj
 0001:00039fe0       ?min_record_length@handler@@UBEII@Z 0043afe0 f i ha_partition.obj
 0001:00039ff0       ?low_byte_first@handler@@UBE_NXZ 0043aff0 f i ha_partition.obj
 0001:0003a000       ?checksum@handler@@UBEIXZ  0043b000 f i ha_partition.obj
 0001:0003a010       ?is_crashed@handler@@UBE_NXZ 0043b010 f i ha_partition.obj
 0001:0003a020       ?auto_repair@handler@@UBE_NXZ 0043b020 f i ha_partition.obj
 0001:0003a030       ?lock_count@handler@@UBEIXZ 0043b030 f i ha_partition.obj
 0001:0003a040       ?table_cache_type@handler@@UAEEXZ 0043b040 f i ha_partition.obj
 0001:0003a050       ?register_query_cache_table@handler@@UAEDPAVTHD@@PADIPAP6AD01IPA_K@Z2@Z 0043b050 f i ha_partition.obj
 0001:0003a070       ?primary_key_is_clustered@handler@@UAE_NXZ 0043b070 f i ha_partition.obj
 0001:0003a080       ?cmp_ref@handler@@UAEHPBE0@Z 0043b080 f i ha_partition.obj
 0001:0003a140       ?cond_push@handler@@UAEPBVItem@@PBV2@@Z 0043b140 f i ha_partition.obj
 0001:0003a150       ?cond_pop@handler@@UAEXXZ  0043b150 f i ha_partition.obj
 0001:0003a160       ?check_if_incompatible_data@handler@@UAE_NPAUst_ha_create_information@@I@Z 0043b160 f i ha_partition.obj
 0001:0003a170       ?alter_table_flags@handler@@UAEII@Z 0043b170 f i ha_partition.obj
 0001:0003a1a0       ?index_init@handler@@EAEHI_N@Z 0043b1a0 f i ha_partition.obj
 0001:0003a1c0       ?index_end@handler@@EAEHXZ 0043b1c0 f i ha_partition.obj
 0001:0003a1d0       ?rnd_end@handler@@EAEHXZ   0043b1d0 f i ha_partition.obj
 0001:0003a1e0       ?write_row@handler@@EAEHPAE@Z 0043b1e0 f i ha_partition.obj
 0001:0003a1f0       ?update_row@handler@@EAEHPBEPAE@Z 0043b1f0 f i ha_partition.obj
 0001:0003a200       ?delete_row@handler@@EAEHPBE@Z 0043b200 f i ha_partition.obj
 0001:0003a210       ?reset@handler@@EAEHXZ     0043b210 f i ha_partition.obj
 0001:0003a220       ?external_lock@handler@@EAEHPAVTHD@@H@Z 0043b220 f i ha_partition.obj
 0001:0003a230       ?release_auto_increment@handler@@EAEXXZ 0043b230 f i ha_partition.obj
 0001:0003a240       ?check_for_upgrade@handler@@EAEHPAUst_ha_check_opt@@@Z 0043b240 f i ha_partition.obj
 0001:0003a250       ?check@handler@@EAEHPAVTHD@@PAUst_ha_check_opt@@@Z 0043b250 f i ha_partition.obj
 0001:0003a260       ?repair@handler@@EAEHPAVTHD@@PAUst_ha_check_opt@@@Z 0043b260 f i ha_partition.obj
 0001:0003a270       ?start_bulk_insert@handler@@EAEX_K@Z 0043b270 f i ha_partition.obj
 0001:0003a280       ?end_bulk_insert@handler@@EAEHXZ 0043b280 f i ha_partition.obj
 0001:0003a290       ?index_read@handler@@EAEHPAEPBEIW4ha_rkey_function@@@Z 0043b290 f i ha_partition.obj
 0001:0003a2a0       ?index_read_last@handler@@EAEHPAEPBEI@Z 0043b2a0 f i ha_partition.obj
 0001:0003a2c0       ?bulk_update_row@handler@@EAEHPBEPAEPAI@Z 0043b2c0 f i ha_partition.obj
 0001:0003a2d0       ?delete_all_rows@handler@@EAEHXZ 0043b2d0 f i ha_partition.obj
 0001:0003a2f0       ?reset_auto_increment@handler@@EAEH_K@Z 0043b2f0 f i ha_partition.obj
 0001:0003a300       ?backup@handler@@EAEHPAVTHD@@PAUst_ha_check_opt@@@Z 0043b300 f i ha_partition.obj
 0001:0003a310       ?restore@handler@@EAEHPAVTHD@@PAUst_ha_check_opt@@@Z 0043b310 f i ha_partition.obj
 0001:0003a320       ?optimize@handler@@EAEHPAVTHD@@PAUst_ha_check_opt@@@Z 0043b320 f i ha_partition.obj
 0001:0003a330       ?analyze@handler@@EAEHPAVTHD@@PAUst_ha_check_opt@@@Z 0043b330 f i ha_partition.obj
 0001:0003a340       ?check_and_repair@handler@@EAE_NPAVTHD@@@Z 0043b340 f i ha_partition.obj
 0001:0003a350       ?disable_indexes@handler@@EAEHI@Z 0043b350 f i ha_partition.obj
 0001:0003a360       ?enable_indexes@handler@@EAEHI@Z 0043b360 f i ha_partition.obj
 0001:0003a370       ?discard_or_import_tablespace@handler@@EAEHD@Z 0043b370 f i ha_partition.obj
 0001:0003a390       ?prepare_for_alter@handler@@EAEXXZ 0043b390 f i ha_partition.obj
 0001:0003a3a0       ?create_handler_files@handler@@EAEHPBD0HPAUst_ha_create_information@@@Z 0043b3a0 f i ha_partition.obj
 0001:0003a3b0       ?change_partitions@handler@@EAEHPAUst_ha_create_information@@PBDQA_K2PBEI@Z 0043b3b0 f i ha_partition.obj
 0001:0003a3c0       ?drop_partitions@handler@@EAEHPBD@Z 0043b3c0 f i ha_partition.obj
 0001:0003a3d0       ?rename_partitions@handler@@EAEHPBD@Z 0043b3d0 f i ha_partition.obj
 0001:0003a3e0       ??_Ehandler@@UAEPAXI@Z     0043b3e0 f i ha_partition.obj
 0001:0003a3e0       ??_Ghandler@@UAEPAXI@Z     0043b3e0 f i ha_partition.obj
 0001:0003a400       ?db_type@st_table_share@@QBEPAUhandlerton@@XZ 0043b400 f i ha_partition.obj
 0001:0003a440       ?is_sub_partitioned@partition_info@@QAE_NXZ 0043b440 f i ha_partition.obj
 0001:0003a450       ?get_tot_partitions@partition_info@@QAEIXZ 0043b450 f i ha_partition.obj
 0001:0003a490       ?is_open@MYSQL_LOG@@QAE_NXZ 0043b490 f i ha_partition.obj
 0001:0003a4b0       ?vio_ok@THD@@QBE_NXZ       0043b4b0 f i ha_partition.obj
 0001:0003a4c0       ?fatal_error@THD@@QAEXXZ   0043b4c0 f i ha_partition.obj
 0001:0003a4d0       ?queue_buf@ha_partition@@AAEPAEI@Z 0043b4d0 f i ha_partition.obj
 0001:0003a4f0       ?rec_buf@ha_partition@@AAEPAEI@Z 0043b4f0 f i ha_partition.obj
 0001:0003a540       ?init_handler_variables@ha_partition@@AAEXXZ 0043b540 f   ha_partition.obj
 0001:0003a690       ?table_type@ha_partition@@UBEPBDXZ 0043b690 f   ha_partition.obj
 0001:0003a8d0       ?check_and_repair@ha_partition@@UAE_NPAVTHD@@@Z 0043b8d0 f   ha_partition.obj
 0001:0003a910       ?auto_repair@ha_partition@@UBE_NXZ 0043b910 f   ha_partition.obj
 0001:0003a930       ?is_crashed@ha_partition@@UBE_NXZ 0043b930 f   ha_partition.obj
 0001:0003a970       ?cleanup_new_partition@ha_partition@@AAEXI@Z 0043b970 f   ha_partition.obj
 0001:0003a9d0       ?update_create_info@ha_partition@@UAEXPAUst_ha_create_information@@@Z 0043b9d0 f   ha_partition.obj
 0001:0003aa20       ?change_table_ptr@ha_partition@@UAEXPAUst_table@@PAUst_table_share@@@Z 0043ba20 f   ha_partition.obj
 0001:0003aaa0       ?update_table_comment@ha_partition@@UAEPADPBD@Z 0043baa0 f   ha_partition.obj
 0001:0003aae0       ?clear_handler_file@ha_partition@@AAEXXZ 0043bae0 f   ha_partition.obj
 0001:0003ab50       ?create_handlers@ha_partition@@AAE_NPAUst_mem_root@@@Z 0043bb50 f   ha_partition.obj
 0001:0003ac50       ?get_from_handler_file@ha_partition@@AAE_NPBDPAUst_mem_root@@@Z 0043bc50 f   ha_partition.obj
 0001:0003af10       ?open@ha_partition@@UAEHPBDHI@Z 0043bf10 f   ha_partition.obj
 0001:0003b380       ?clone@ha_partition@@UAEPAVhandler@@PAUst_mem_root@@@Z 0043c380 f   ha_partition.obj
 0001:0003b410       ?close@ha_partition@@UAEHXZ 0043c410 f   ha_partition.obj
 0001:0003b4b0       ?external_lock@ha_partition@@UAEHPAVTHD@@H@Z 0043c4b0 f   ha_partition.obj
 0001:0003b580       ?store_lock@ha_partition@@UAEPAPAUst_thr_lock_data@@PAVTHD@@PAPAU2@W4thr_lock_type@@@Z 0043c580 f   ha_partition.obj
 0001:0003b5c0       ?start_stmt@ha_partition@@UAEHPAVTHD@@W4thr_lock_type@@@Z 0043c5c0 f   ha_partition.obj
 0001:0003b600       ?lock_count@ha_partition@@UBEIXZ 0043c600 f   ha_partition.obj
 0001:0003b610       ?unlock_row@ha_partition@@UAEXXZ 0043c610 f   ha_partition.obj
 0001:0003b630       ?was_semi_consistent_read@ha_partition@@UAE_NXZ 0043c630 f   ha_partition.obj
 0001:0003b650       ?try_semi_consistent_read@ha_partition@@UAEX_N@Z 0043c650 f   ha_partition.obj
 0001:0003b6f0       ?write_row@ha_partition@@UAEHPAE@Z 0043c6f0 f   ha_partition.obj
 0001:0003b8d0       ?update_row@ha_partition@@UAEHPBEPAE@Z 0043c8d0 f   ha_partition.obj
 0001:0003bb30       ?delete_row@ha_partition@@UAEHPBE@Z 0043cb30 f   ha_partition.obj
 0001:0003bbe0       ?delete_all_rows@ha_partition@@UAEHXZ 0043cbe0 f   ha_partition.obj
 0001:0003bc60       ?start_bulk_insert@ha_partition@@UAEX_K@Z 0043cc60 f   ha_partition.obj
 0001:0003bce0       ?end_bulk_insert@ha_partition@@UAEHXZ 0043cce0 f   ha_partition.obj
 0001:0003bd30       ?position@ha_partition@@UAEXPBE@Z 0043cd30 f   ha_partition.obj
 0001:0003bda0       ?column_bitmaps_signal@ha_partition@@EAEXXZ 0043cda0 f   ha_partition.obj
 0001:0003bdd0       ?rnd_pos@ha_partition@@UAEHPAE0@Z 0043cdd0 f   ha_partition.obj
 0001:0003be10       ?rnd_pos_by_record@ha_partition@@UAEHPAE@Z 0043ce10 f   ha_partition.obj
 0001:0003be80       ?index_init@ha_partition@@UAEHI_N@Z 0043ce80 f   ha_partition.obj
 0001:0003c080       ?index_end@ha_partition@@UAEHXZ 0043d080 f   ha_partition.obj
 0001:0003c130       ?partition_scan_set_up@ha_partition@@AAEHPAE_N@Z 0043d130 f   ha_partition.obj
 0001:0003c200       ?handle_unordered_scan_next_partition@ha_partition@@AAEHPAE@Z 0043d200 f   ha_partition.obj
 0001:0003c3c0       ?return_top_record@ha_partition@@AAEXPAE@Z 0043d3c0 f   ha_partition.obj
 0001:0003c410       ?handle_ordered_next@ha_partition@@AAEHPAE_N@Z 0043d410 f   ha_partition.obj
 0001:0003c570       ?handle_ordered_prev@ha_partition@@AAEHPAE@Z 0043d570 f   ha_partition.obj
 0001:0003c640       ?info@ha_partition@@UAEHI@Z 0043d640 f   ha_partition.obj
 0001:0003ca40       ?get_dynamic_partition_info@ha_partition@@UAEXPAUPARTITION_INFO@@I@Z 0043da40 f   ha_partition.obj
 0001:0003cb40       ?reset@ha_partition@@UAEHXZ 0043db40 f   ha_partition.obj
 0001:0003cbb0       ?loop_extra@ha_partition@@AAEHW4ha_extra_function@@@Z 0043dbb0 f   ha_partition.obj
 0001:0003cc00       ?late_extra_cache@ha_partition@@AAEXI@Z 0043dc00 f   ha_partition.obj
 0001:0003cc60       ?late_extra_no_cache@ha_partition@@AAEXI@Z 0043dc60 f   ha_partition.obj
 0001:0003cca0       ?keys_to_use_for_scanning@ha_partition@@UAEPBV?$Bitmap@$0EA@@@XZ 0043dca0 f   ha_partition.obj
 0001:0003ccc0       ?scan_time@ha_partition@@UAENXZ 0043dcc0 f   ha_partition.obj
 0001:0003cd60       ?read_time@ha_partition@@UAENII_K@Z 0043dd60 f   ha_partition.obj
 0001:0003cd90       ?records_in_range@ha_partition@@UAE_KIPAUst_key_range@@0@Z 0043dd90 f   ha_partition.obj
 0001:0003ce70       ?estimate_rows_upper_bound@ha_partition@@UAE_KXZ 0043de70 f   ha_partition.obj
 0001:0003cf30       ?records@ha_partition@@UAE_KXZ 0043df30 f   ha_partition.obj
 0001:0003cf80       ?can_switch_engines@ha_partition@@UAE_NXZ 0043df80 f   ha_partition.obj
 0001:0003cfc0       ?table_cache_type@ha_partition@@UAEEXZ 0043dfc0 f   ha_partition.obj
 0001:0003cfe0       ?index_type@ha_partition@@UAEPBDI@Z 0043dfe0 f   ha_partition.obj
 0001:0003d000       ?get_row_type@ha_partition@@UBE?AW4row_type@@XZ 0043e000 f   ha_partition.obj
 0001:0003d060       ?print_error@ha_partition@@UAEXHH@Z 0043e060 f   ha_partition.obj
 0001:0003d0b0       ?get_error_message@ha_partition@@UAE_NHPAVString@@@Z 0043e0b0 f   ha_partition.obj
 0001:0003d0d0       ?alter_table_flags@ha_partition@@UAEII@Z 0043e0d0 f   ha_partition.obj
 0001:0003d110       ?check_if_incompatible_data@ha_partition@@UAE_NPAUst_ha_create_information@@I@Z 0043e110 f   ha_partition.obj
 0001:0003d160       ?add_index@ha_partition@@UAEHPAUst_table@@PAUst_key@@I@Z 0043e160 f   ha_partition.obj
 0001:0003d1c0       ?prepare_drop_index@ha_partition@@UAEHPAUst_table@@PAII@Z 0043e1c0 f   ha_partition.obj
 0001:0003d220       ?final_drop_index@ha_partition@@UAEHPAUst_table@@@Z 0043e220 f   ha_partition.obj
 0001:0003d270       ?bas_ext@ha_partition@@UBEPAPBDXZ 0043e270 f   ha_partition.obj
 0001:0003d280       ?min_of_the_max_uint@ha_partition@@QBEIP8handler@@BEIXZ@Z 0043e280 f   ha_partition.obj
 0001:0003d2f0       ?extra_rec_buf_length@ha_partition@@UBEIXZ 0043e2f0 f   ha_partition.obj
 0001:0003d350       ?min_record_length@ha_partition@@UBEII@Z 0043e350 f   ha_partition.obj
 0001:0003d3d0       ?cmp_ref@ha_partition@@UAEHPBE0@Z 0043e3d0 f   ha_partition.obj
 0001:0003d470       ?reset_auto_increment@ha_partition@@EAEH_K@Z 0043e470 f   ha_partition.obj
 0001:0003d4f0       ?get_auto_increment@ha_partition@@UAEX_K00PA_K1@Z 0043e4f0 f   ha_partition.obj
 0001:0003d720       ?release_auto_increment@ha_partition@@UAEXXZ 0043e720 f   ha_partition.obj
 0001:0003d810       ?init_table_handle_for_HANDLER@ha_partition@@UAEXXZ 0043e810 f   ha_partition.obj
 0001:0003d820       ?disable_indexes@ha_partition@@UAEHI@Z 0043e820 f   ha_partition.obj
 0001:0003d860       ?enable_indexes@ha_partition@@UAEHI@Z 0043e860 f   ha_partition.obj
 0001:0003d8a0       ?indexes_are_disabled@ha_partition@@UAEHXZ 0043e8a0 f   ha_partition.obj
 0001:0003d8e0       ??E?$List_iterator@Vpartition_element@@@@QAEPAVpartition_element@@H@Z 0043e8e0 f i ha_partition.obj
 0001:0003d900       ?rewind@?$List_iterator@Vpartition_element@@@@QAEXXZ 0043e900 f i ha_partition.obj
 0001:0003d910       ??E?$List_iterator_fast@Vpartition_element@@@@QAEPAVpartition_element@@H@Z 0043e910 f i ha_partition.obj
 0001:0003d930       ?rewind@?$List_iterator_fast@Vpartition_element@@@@QAEXXZ 0043e930 f i ha_partition.obj
 0001:0003d940       ??_9handler@@$BBEE@AE      0043e940 f i ha_partition.obj
 0001:0003d950       ??_9handler@@$BBEI@AE      0043e950 f i ha_partition.obj
 0001:0003d960       ??_9handler@@$BBDM@AE      0043e960 f i ha_partition.obj
 0001:0003d970       ??_9handler@@$BBEM@AE      0043e970 f i ha_partition.obj
 0001:0003d980       ??_9handler@@$BBEA@AE      0043e980 f i ha_partition.obj
 0001:0003d990       ??0ha_partition@@QAE@PAUhandlerton@@PAUst_table_share@@@Z 0043e990 f   ha_partition.obj
 0001:0003d9e0       ?set_part_info@ha_partition@@UAEXPAVpartition_info@@@Z 0043e9e0 f i ha_partition.obj
 0001:0003da10       ?get_no_parts@ha_partition@@UAE_NPBDPAI@Z 0043ea10 f i ha_partition.obj
 0001:0003da30       ?is_fatal_error@ha_partition@@UAE_NHI@Z 0043ea30 f i ha_partition.obj
 0001:0003da70       ?table_flags@ha_partition@@UBE_KXZ 0043ea70 f i ha_partition.obj
 0001:0003dab0       ?index_flags@ha_partition@@UBEKII_N@Z 0043eab0 f i ha_partition.obj
 0001:0003dad0       ?low_byte_first@ha_partition@@UBE_NXZ 0043ead0 f i ha_partition.obj
 0001:0003dae0       ?primary_key_is_clustered@ha_partition@@UAE_NXZ 0043eae0 f i ha_partition.obj
 0001:0003daf0       ?lock_auto_increment@ha_partition@@EAEXXZ 0043eaf0 f i ha_partition.obj
 0001:0003db20       ?unlock_auto_increment@ha_partition@@EAEXXZ 0043eb20 f i ha_partition.obj
 0001:0003db60       ?set_auto_increment_if_higher@ha_partition@@EAEX_K@Z 0043eb60 f i ha_partition.obj
 0001:0003dbc0       ??0ha_partition@@QAE@PAUhandlerton@@PAVpartition_info@@@Z 0043ebc0 f   ha_partition.obj
 0001:0003dc20       ??1ha_partition@@UAE@XZ    0043ec20 f   ha_partition.obj
 0001:0003dca0       ?copy_partitions@ha_partition@@AAEHQA_K0@Z 0043eca0 f   ha_partition.obj
 0001:0003dea0       ?rnd_init@ha_partition@@UAEH_N@Z 0043eea0 f   ha_partition.obj
 0001:0003e130       ?rnd_end@ha_partition@@UAEHXZ 0043f130 f   ha_partition.obj
 0001:0003e240       ?rnd_next@ha_partition@@UAEHPAE@Z 0043f240 f   ha_partition.obj
 0001:0003e3f0       ?index_prev@ha_partition@@UAEHPAE@Z 0043f3f0 f   ha_partition.obj
 0001:0003e400       ?handle_unordered_next@ha_partition@@AAEHPAE_N@Z 0043f400 f   ha_partition.obj
 0001:0003e4d0       ?handle_ordered_index_scan@ha_partition@@AAEHPAE_N@Z 0043f4d0 f   ha_partition.obj
 0001:0003e7c0       ?prepare_extra_cache@ha_partition@@AAEXI@Z 0043f7c0 f   ha_partition.obj
 0001:0003e800       ?prepare_for_rename@ha_partition@@AAEHXZ 0043f800 f   ha_partition.obj
 0001:0003e8a0       ?max_supported_key_parts@ha_partition@@UBEIXZ 0043f8a0 f   ha_partition.obj
 0001:0003e8c0       ?max_supported_key_length@ha_partition@@UBEIXZ 0043f8c0 f   ha_partition.obj
 0001:0003e8e0       ?max_supported_key_part_length@ha_partition@@UBEIXZ 0043f8e0 f   ha_partition.obj
 0001:0003e900       ?max_supported_record_length@ha_partition@@UBEIXZ 0043f900 f   ha_partition.obj
 0001:0003e920       ?max_supported_keys@ha_partition@@UBEIXZ 0043f920 f   ha_partition.obj
 0001:0003e940       ??0?$List_iterator@Vpartition_element@@@@QAE@AAV?$List@Vpartition_element@@@@@Z 0043f940 f i ha_partition.obj
 0001:0003e960       ??0?$List_iterator_fast@Vpartition_element@@@@QAE@AAV?$List@Vpartition_element@@@@@Z 0043f960 f i ha_partition.obj
 0001:0003e980       ??_Eha_partition@@UAEPAXI@Z 0043f980 f i ha_partition.obj
 0001:0003e980       ??_Gha_partition@@UAEPAXI@Z 0043f980 f i ha_partition.obj
 0001:0003e9a0       ?drop_partitions@ha_partition@@UAEHPBD@Z 0043f9a0 f   ha_partition.obj
 0001:0003eba0       ?rename_partitions@ha_partition@@UAEHPBD@Z 0043fba0 f   ha_partition.obj
 0001:0003f0c0       ?handle_opt_partitions@ha_partition@@AAEHPAVTHD@@PAUst_ha_check_opt@@I@Z 004400c0 f   ha_partition.obj
 0001:0003f2b0       ?find_partition_element@ha_partition@@AAEPAVpartition_element@@I@Z 004402b0 f   ha_partition.obj
 0001:0003f3b0       ?set_up_table_before_create@ha_partition@@AAEHPAUst_table@@PBDPAUst_ha_create_information@@IPAVpartition_element@@@Z 004403b0 f   ha_partition.obj
 0001:0003f4a0       ?create_handler_file@ha_partition@@AAE_NPBD@Z 004404a0 f   ha_partition.obj
 0001:0003f910       ?new_handlers_from_part_info@ha_partition@@AAE_NPAUst_mem_root@@@Z 00440910 f   ha_partition.obj
 0001:0003fae0       ?common_index_read@ha_partition@@AAEHPAE_N@Z 00440ae0 f   ha_partition.obj
 0001:0003fbf0       ?common_first_last@ha_partition@@AAEHPAE@Z 00440bf0 f   ha_partition.obj
 0001:0003fc50       ?index_read_last_map@ha_partition@@UAEHPAEPBEK@Z 00440c50 f   ha_partition.obj
 0001:0003fcb0       ?index_next@ha_partition@@UAEHPAE@Z 00440cb0 f   ha_partition.obj
 0001:0003fce0       ?index_next_same@ha_partition@@UAEHPAEPBEI@Z 00440ce0 f   ha_partition.obj
 0001:0003fd10       ?read_range_first@ha_partition@@UAEHPBUst_key_range@@0_N1@Z 00440d10 f   ha_partition.obj
 0001:0003fe10       ?read_range_next@ha_partition@@UAEHXZ 00440e10 f   ha_partition.obj
 0001:0003fe50       ?extra@ha_partition@@UAEHW4ha_extra_function@@@Z 00440e50 f   ha_partition.obj
 0001:0003ff50       ?extra_opt@ha_partition@@UAEHW4ha_extra_function@@K@Z 00440f50 f   ha_partition.obj
 0001:0003ff70       ?initialize_partition@ha_partition@@QAE_NPAUst_mem_root@@@Z 00440f70 f   ha_partition.obj
 0001:00040110       ?create_handler_files@ha_partition@@UAEHPBD0HPAUst_ha_create_information@@@Z 00441110 f   ha_partition.obj
 0001:00040220       ?optimize@ha_partition@@UAEHPAVTHD@@PAUst_ha_check_opt@@@Z 00441220 f   ha_partition.obj
 0001:00040240       ?analyze@ha_partition@@UAEHPAVTHD@@PAUst_ha_check_opt@@@Z 00441240 f   ha_partition.obj
 0001:00040260       ?check@ha_partition@@UAEHPAVTHD@@PAUst_ha_check_opt@@@Z 00441260 f   ha_partition.obj
 0001:00040280       ?repair@ha_partition@@UAEHPAVTHD@@PAUst_ha_check_opt@@@Z 00441280 f   ha_partition.obj
 0001:000402a0       ?prepare_new_partition@ha_partition@@AAEHPAUst_table@@PAUst_ha_create_information@@PAVhandler@@PBDPAVpartition_element@@@Z 004412a0 f   ha_partition.obj
 0001:00040360       ?change_partitions@ha_partition@@UAEHPAUst_ha_create_information@@PBDQA_K2PBEI@Z 00441360 f   ha_partition.obj
 0001:00040a20       ?del_ren_cre_table@ha_partition@@AAEIPBD0PAUst_table@@PAUst_ha_create_information@@@Z 00441a20 f   ha_partition.obj
 0001:00040ca0       ?index_read_map@ha_partition@@UAEHPAEPBEKW4ha_rkey_function@@@Z 00441ca0 f   ha_partition.obj
 0001:00040cf0       ?index_first@ha_partition@@UAEHPAE@Z 00441cf0 f   ha_partition.obj
 0001:00040d10       ?index_last@ha_partition@@UAEHPAE@Z 00441d10 f   ha_partition.obj
 0001:00040da0       ?delete_table@ha_partition@@UAEHPBD@Z 00441da0 f   ha_partition.obj
 0001:00040dd0       ?rename_table@ha_partition@@UAEHPBD0@Z 00441dd0 f   ha_partition.obj
 0001:00040e10       ?create@ha_partition@@UAEHPBDPAUst_table@@PAUst_ha_create_information@@@Z 00441e10 f   ha_partition.obj
 0001:00040ef0       ??0?$Bitmap@$0EA@@@QAE@XZ  00441ef0 f i handler.obj
 0001:00040f00       ?thd_get_ha_data@@YAPAXPBVTHD@@PBUhandlerton@@@Z 00441f00 f i handler.obj
 0001:00040f20       ?minimum@Discrete_interval@@QBE_KXZ 00441f20 f i handler.obj
 0001:00040f30       ?values@Discrete_interval@@QBE_KXZ 00441f30 f i handler.obj
 0001:00040f40       ?set_members@Discrete_intervals_list@@AAEXPAVDiscrete_interval@@00I@Z 00441f40 f i handler.obj
 0001:00040f70       ?empty_no_free@Discrete_intervals_list@@QAEXXZ 00441f70 f i handler.obj
 0001:00040f90       ?empty@Discrete_intervals_list@@QAEXXZ 00441f90 f i handler.obj
 0001:00040fe0       ?get_next@Discrete_intervals_list@@QAEPBVDiscrete_interval@@XZ 00441fe0 f i handler.obj
 0001:00041000       ??0st_sql_list@@QAE@XZ     00442000 f i handler.obj
 0001:00041010       ?is_empty@String@@QAE_NXZ  00442010 f i handler.obj
 0001:00041020       ?c_ptr_safe@String@@QAEPADXZ 00442020 f i handler.obj
 0001:00041060       ?set@xid_t@@QAEXJJPBD@Z    00442060 f i handler.obj
 0001:000410a0       ?is_null@xid_t@@QAE_NXZ    004420a0 f i handler.obj
 0001:000410b0       ?null@xid_t@@QAEXXZ        004420b0 f i handler.obj
 0001:000410c0       ?quick_get_my_xid@xid_t@@QAE_KXZ 004420c0 f i handler.obj
 0001:000410d0       ?get_my_xid@xid_t@@QAE_KXZ 004420d0 f i handler.obj
 0001:00041260       ?register_ha@Ha_trx_info@@QAEXPAUTHD_TRANS@@PAUhandlerton@@@Z 00442260 f i handler.obj
 0001:00041280       ?reset@Ha_trx_info@@QAEXXZ 00442280 f i handler.obj
 0001:00041290       ?set_trx_read_write@Ha_trx_info@@QAEXXZ 00442290 f i handler.obj
 0001:000412a0       ?is_trx_read_write@Ha_trx_info@@QBE_NXZ 004422a0 f i handler.obj
 0001:000412b0       ?is_started@Ha_trx_info@@QBE_NXZ 004422b0 f i handler.obj
 0001:000412c0       ?coalesce_trx_with@Ha_trx_info@@QAEXPBV1@@Z 004422c0 f i handler.obj
 0001:000412e0       ?next@Ha_trx_info@@QBEPAV1@XZ 004422e0 f i handler.obj
 0001:000412f0       ?ht@Ha_trx_info@@QBEPAUhandlerton@@XZ 004422f0 f i handler.obj
 0001:00041300       ?init@handler@@QAEXXZ      00442300 f i handler.obj
 0001:00041320       ?has_transactions@handler@@QAE_NXZ 00442320 f i handler.obj
 0001:00041340       ?set_next_insert_id@handler@@QAEX_K@Z 00442340 f i handler.obj
 0001:000413a0       ??0st_table_share@@QAE@XZ  004423a0 f i handler.obj
 0001:000413b0       ??0st_table@@QAE@XZ        004423b0 f i handler.obj
 0001:000413c0       ?use_all_columns@st_table@@QAEXXZ 004423c0 f i handler.obj
 0001:000413f0       ?default_column_bitmaps@st_table@@QAEXXZ 004423f0 f i handler.obj
 0001:00041410       ?val_int_offset@Field@@QAE_JI@Z 00442410 f i handler.obj
 0001:00041430       ??1?$List@D@@QAE@XZ        00442430 f i handler.obj
 0001:00041440       ??1?$List@VItem@@@@QAE@XZ  00442440 f i handler.obj
 0001:00041450       ??0Internal_error_handler@@IAE@XZ 00442450 f i handler.obj
 0001:00041460       ??1Internal_error_handler@@MAE@XZ 00442460 f i handler.obj
 0001:00041470       ??_EInternal_error_handler@@MAEPAXI@Z 00442470 f i handler.obj
 0001:00041470       ??_GInternal_error_handler@@MAEPAXI@Z 00442470 f i handler.obj
 0001:000414a0       ?sql_errno@Diagnostics_area@@QBEIXZ 004424a0 f i handler.obj
 0001:000414b0       ?get_binlog_table_maps@THD@@QBEIXZ 004424b0 f i handler.obj
 0001:000414c0       ?cleanup@st_transactions@THD@@QAEXXZ 004424c0 f i handler.obj
 0001:000414f0       ?my_eof@@YAXPAVTHD@@@Z     004424f0 f i handler.obj
 0001:00041510       ?binlog_row_logging_function@Write_rows_log_event@@SA_NPAVTHD@@PAUst_table@@_NPAUst_bitmap@@IPBE4@Z 00442510 f i handler.obj
 0001:00041550       ?binlog_row_logging_function@Update_rows_log_event@@SA_NPAVTHD@@PAUst_table@@_NPAUst_bitmap@@IPBE4@Z 00442550 f i handler.obj
 0001:00041590       ?binlog_row_logging_function@Delete_rows_log_event@@SA_NPAVTHD@@PAUst_table@@_NPAUst_bitmap@@IPBE4@Z 00442590 f i handler.obj
 0001:000415f0       ?ha_default_handlerton@@YAPAUhandlerton@@PAVTHD@@@Z 004425f0 f   handler.obj
 0001:00041600       ?ha_resolve_by_name@@YAPAUst_plugin_int@@PAVTHD@@PBUst_mysql_lex_string@@@Z 00442600 f   handler.obj
 0001:000416e0       ?ha_lock_engine@@YAPAUst_plugin_int@@PAVTHD@@PAUhandlerton@@@Z 004426e0 f   handler.obj
 0001:00041710       ?ha_resolve_by_legacy_type@@YAPAUhandlerton@@PAVTHD@@W4legacy_db_type@@@Z 00442710 f   handler.obj
 0001:00041770       ?ha_checktype@@YAPAUhandlerton@@PAVTHD@@W4legacy_db_type@@_N2@Z 00442770 f   handler.obj
 0001:00041820       ?get_new_handler@@YAPAVhandler@@PAUst_table_share@@PAUst_mem_root@@PAUhandlerton@@@Z 00442820 f   handler.obj
 0001:000418a0       ?get_ha_partition@@YAPAVhandler@@PAVpartition_info@@@Z 004428a0 f   handler.obj
 0001:00041950       ?ha_init_errors@@YAHXZ     00442950 f   handler.obj
 0001:00041c30       ?ha_finalize_handlerton@@YAHPAUst_plugin_int@@@Z 00442c30 f   handler.obj
 0001:00041cb0       ?ha_initialize_handlerton@@YAHPAUst_plugin_int@@@Z 00442cb0 f   handler.obj
 0001:00041ef0       ?ha_init@@YAHXZ            00442ef0 f   handler.obj
 0001:00041f20       ?ha_end@@YAHXZ             00442f20 f   handler.obj
 0001:00041f70       ?ha_drop_database@@YAXPAD@Z 00442f70 f   handler.obj
 0001:00041fe0       ?ha_close_connection@@YAXPAVTHD@@@Z 00442fe0 f   handler.obj
 0001:00042080       ?ha_commit_one_phase@@YAHPAVTHD@@_N@Z 00443080 f   handler.obj
 0001:000421c0       ?ha_rollback_trans@@YAHPAVTHD@@_N@Z 004431c0 f   handler.obj
 0001:00042420       ?ha_commit_or_rollback_by_xid@@YAHPAUxid_t@@_N@Z 00443420 f   handler.obj
 0001:00042610       ?ha_recover@@YAHPAUst_hash@@@Z 00443610 f   handler.obj
 0001:000427b0       ?ha_release_temporary_latches@@YAHPAVTHD@@@Z 004437b0 f   handler.obj
 0001:000427f0       ?ha_rollback_to_savepoint@@YAHPAVTHD@@PAUst_savepoint@@@Z 004437f0 f   handler.obj
 0001:00042940       ?ha_savepoint@@YAHPAVTHD@@PAUst_savepoint@@@Z 00443940 f   handler.obj
 0001:00042a20       ?ha_release_savepoint@@YAHPAVTHD@@PAUst_savepoint@@@Z 00443a20 f   handler.obj
 0001:00042ad0       ?ha_start_consistent_snapshot@@YAHPAVTHD@@@Z 00443ad0 f   handler.obj
 0001:00042b60       ?ha_flush_logs@@YA_NPAUhandlerton@@@Z 00443b60 f   handler.obj
 0001:00042bb0       ?get_canonical_filename@@YAPBDPAVhandler@@PBDPAD@Z 00443bb0 f   handler.obj
 0001:00042c20       ?handle_error@Ha_delete_table_error_handler@@UAE_NIPBDW4enum_warning_level@MYSQL_ERROR@@PAVTHD@@@Z 00443c20 f   handler.obj
 0001:00042c50       ??0Ha_delete_table_error_handler@@QAE@XZ 00443c50 f i handler.obj
 0001:00042c60       ??1Ha_delete_table_error_handler@@UAE@XZ 00443c60 f i handler.obj
 0001:00042c70       ??_GHa_delete_table_error_handler@@UAEPAXI@Z 00443c70 f i handler.obj
 0001:00042c70       ??_EHa_delete_table_error_handler@@UAEPAXI@Z 00443c70 f i handler.obj
 0001:00042ca0       ?ha_statistic_increment@handler@@IBEXPQsystem_status_var@@K@Z 00443ca0 f   handler.obj
 0001:00042cd0       ?ha_data@handler@@IBEPAPAXPAVTHD@@@Z 00443cd0 f   handler.obj
 0001:00042cf0       ?ha_thd@handler@@IBEPAVTHD@@XZ 00443cf0 f   handler.obj
 0001:00042d20       ?ha_open@handler@@QAEHPAUst_table@@PBDHH@Z 00443d20 f   handler.obj
 0001:00042e70       ?read_first_row@handler@@UAEHPAEI@Z 00443e70 f   handler.obj
 0001:00042f80       ?compute_next_insert_id@@YA_K_KPAUsystem_variables@@@Z 00443f80 f i handler.obj
 0001:00042ff0       ?adjust_next_insert_id_after_explicit_value@handler@@QAEX_K@Z 00443ff0 f   handler.obj
 0001:00043060       ?prev_insert_id@@YA_K_KPAUsystem_variables@@@Z 00444060 f i handler.obj
 0001:000430c0       ?update_auto_increment@handler@@QAEHXZ 004440c0 f   handler.obj
 0001:00043400       ?column_bitmaps_signal@handler@@UAEXXZ 00444400 f   handler.obj
 0001:00043410       ?get_auto_increment@handler@@UAEX_K00PA_K1@Z 00444410 f   handler.obj
 0001:000435d0       ?ha_release_auto_increment@handler@@QAEXXZ 004445d0 f   handler.obj
 0001:00043670       ?get_error_message@handler@@UAE_NHPAVString@@@Z 00444670 f   handler.obj
 0001:00043680       ?check_collation_compatibility@handler@@QAEHXZ 00444680 f   handler.obj
 0001:00043790       ?ha_check_for_upgrade@handler@@QAEHPAUst_ha_check_opt@@@Z 00444790 f   handler.obj
 0001:000438a0       ?check_old_types@handler@@QAEHXZ 004448a0 f   handler.obj
 0001:00043a70       ?get_dup_key@handler@@QAEIH@Z 00444a70 f   handler.obj
 0001:00043ae0       ?delete_table@handler@@MAEHPBD@Z 00444ae0 f   handler.obj
 0001:00043bb0       ?rename_table@handler@@MAEHPBD0@Z 00444bb0 f   handler.obj
 0001:00043c20       ?drop_table@handler@@EAEXPBD@Z 00444c20 f   handler.obj
 0001:00043c50       ?ha_check@handler@@QAEHPAVTHD@@PAUst_ha_check_opt@@@Z 00444c50 f   handler.obj
 0001:00043cf0       ?mark_trx_read_write@handler@@AAEXXZ 00444cf0 f i handler.obj
 0001:00043d40       ?ha_repair@handler@@QAEHPAVTHD@@PAUst_ha_check_opt@@@Z 00444d40 f   handler.obj
 0001:00043dc0       ?ha_bulk_update_row@handler@@QAEHPBEPAEPAI@Z 00444dc0 f   handler.obj
 0001:00043e40       ?ha_delete_all_rows@handler@@QAEHXZ 00444e40 f   handler.obj
 0001:00043ea0       ?ha_reset_auto_increment@handler@@QAEH_K@Z 00444ea0 f   handler.obj
 0001:00043f10       ?ha_backup@handler@@QAEHPAVTHD@@PAUst_ha_check_opt@@@Z 00444f10 f   handler.obj
 0001:00043f80       ?ha_restore@handler@@QAEHPAVTHD@@PAUst_ha_check_opt@@@Z 00444f80 f   handler.obj
 0001:00043ff0       ?ha_optimize@handler@@QAEHPAVTHD@@PAUst_ha_check_opt@@@Z 00444ff0 f   handler.obj
 0001:00044060       ?ha_analyze@handler@@QAEHPAVTHD@@PAUst_ha_check_opt@@@Z 00445060 f   handler.obj
 0001:000440d0       ?ha_check_and_repair@handler@@QAE_NPAVTHD@@@Z 004450d0 f   handler.obj
 0001:00044140       ?ha_disable_indexes@handler@@QAEHI@Z 00445140 f   handler.obj
 0001:000441b0       ?ha_enable_indexes@handler@@QAEHI@Z 004451b0 f   handler.obj
 0001:00044220       ?ha_discard_or_import_tablespace@handler@@QAEHD@Z 00445220 f   handler.obj
 0001:00044290       ?ha_prepare_for_alter@handler@@QAEXXZ 00445290 f   handler.obj
 0001:000442f0       ?ha_rename_table@handler@@QAEHPBD0@Z 004452f0 f   handler.obj
 0001:00044360       ?ha_delete_table@handler@@QAEHPBD@Z 00445360 f   handler.obj
 0001:000443d0       ?ha_drop_table@handler@@QAEXPBD@Z 004453d0 f   handler.obj
 0001:00044440       ?ha_create@handler@@QAEHPBDPAUst_table@@PAUst_ha_create_information@@@Z 00445440 f   handler.obj
 0001:000444c0       ?ha_create_handler_files@handler@@QAEHPBD0HPAUst_ha_create_information@@@Z 004454c0 f   handler.obj
 0001:00044540       ?ha_change_partitions@handler@@QAEHPAUst_ha_create_information@@PBDQA_K2PBEI@Z 00445540 f   handler.obj
 0001:000445d0       ?ha_drop_partitions@handler@@QAEHPBD@Z 004455d0 f   handler.obj
 0001:00044640       ?ha_rename_partitions@handler@@QAEHPBD@Z 00445640 f   handler.obj
 0001:000446b0       ?index_next_same@handler@@UAEHPAEPBEI@Z 004456b0 f   handler.obj
 0001:000447f0       ?get_dynamic_partition_info@handler@@UAEXPAUPARTITION_INFO@@I@Z 004457f0 f   handler.obj
 0001:000448f0       ?ha_create_table@@YAHPAVTHD@@PBD11PAUst_ha_create_information@@_N@Z 004458f0 f   handler.obj
 0001:00044ab0       ??0st_ha_create_information@@QAE@XZ 00445ab0 f i handler.obj
 0001:00044ac0       ?init@st_ha_check_opt@@QAEXXZ 00445ac0 f   handler.obj
 0001:00044af0       _ha_init_key_cache         00445af0 f   handler.obj
 0001:00044b70       ?ha_resize_key_cache@@YAHPAUst_key_cache@@@Z 00445b70 f   handler.obj
 0001:00044bf0       ?ha_change_key_cache_param@@YAHPAUst_key_cache@@@Z 00445bf0 f   handler.obj
 0001:00044c40       ?ha_end_key_cache@@YAHPAUst_key_cache@@@Z 00445c40 f   handler.obj
 0001:00044c60       ?ha_change_key_cache@@YAHPAUst_key_cache@@0@Z 00445c60 f   handler.obj
 0001:00044cd0       ?ha_discover@@YAHPAVTHD@@PBD1PAPAEPAI@Z 00445cd0 f   handler.obj
 0001:00044dc0       ?ha_find_files@@YAHPAVTHD@@PBD11_NPAV?$List@Ust_mysql_lex_string@@@@@Z 00445dc0 f   handler.obj
 0001:00044e70       ?ha_table_exists_in_engine@@YAHPAVTHD@@PBD1@Z 00445e70 f   handler.obj
 0001:00044ec0       ?read_multi_range_first@handler@@UAEHPAPAUst_key_multi_range@@PAU2@I_NPAUst_handler_buffer@@@Z 00445ec0 f   handler.obj
 0001:00044ff0       ?read_multi_range_next@handler@@UAEHPAPAUst_key_multi_range@@@Z 00445ff0 f   handler.obj
 0001:00045120       ?compare_key@handler@@QAEHPAUst_key_range@@@Z 00446120 f   handler.obj
 0001:00045160       ?index_read_idx_map@handler@@UAEHPAEIPBEKW4ha_rkey_function@@@Z 00446160 f   handler.obj
 0001:00045570       ?ha_external_lock@handler@@QAEHPAVTHD@@H@Z 00446570 f   handler.obj
 0001:000455c0       ?ha_reset@handler@@QAEHXZ  004465c0 f   handler.obj
 0001:00045610       ?ha_write_row@handler@@QAEHPAE@Z 00446610 f   handler.obj
 0001:000456a0       ?ha_update_row@handler@@QAEHPBEPAE@Z 004466a0 f   handler.obj
 0001:00045730       ?ha_delete_row@handler@@QAEHPBE@Z 00446730 f   handler.obj
 0001:000457c0       ?use_hidden_primary_key@handler@@UAEXXZ 004467c0 f   handler.obj
 0001:00045800       ?signal_log_not_needed@@YAXUhandlerton@@PAD@Z 00446800 f   handler.obj
 0001:00045810       ??0?$List@VItem@@@@QAE@XZ  00446810 f i handler.obj
 0001:00045830       ?push_back@?$List@VItem@@@@QAE_NPAVItem@@@Z 00446830 f i handler.obj
 0001:00045890       ??0?$List@D@@QAE@XZ        00446890 f i handler.obj
 0001:000458b0       ?push_back@?$List@D@@QAE_NPAD@Z 004468b0 f i handler.obj
 0001:00045910       ??E?$List_iterator_fast@D@@QAEPADH@Z 00446910 f i handler.obj
 0001:00045930       ?rewind@?$List_iterator_fast@D@@QAEXXZ 00446930 f i handler.obj
 0001:00045940       ?set@xid_t@@QAEX_K@Z       00446940 f i handler.obj
 0001:000459a0       ??1Item_num@@UAE@XZ        004469a0 f i handler.obj
 0001:000459e0       ??0Item_partition_func_safe_string@@QAE@PBDIPAUcharset_info_st@@@Z 004469e0 f i handler.obj
 0001:00045a20       ??1Item_partition_func_safe_string@@UAE@XZ 00446a20 f i handler.obj
 0001:00045a60       ??0Item_empty_string@@QAE@PBDIPAUcharset_info_st@@@Z 00446a60 f i handler.obj
 0001:00045ac0       ??1Item_empty_string@@UAE@XZ 00446ac0 f i handler.obj
 0001:00045b00       ?trans_register_ha@@YAXPAVTHD@@_NPAUhandlerton@@@Z 00446b00 f   handler.obj
 0001:00045bb0       ?ha_prepare@@YAHPAVTHD@@@Z 00446bb0 f   handler.obj
 0001:00045c60       ?ha_commit_trans@@YAHPAVTHD@@_N@Z 00446c60 f   handler.obj
 0001:00045f80       ?ha_autocommit_or_rollback@@YAHPAVTHD@@H@Z 00446f80 f   handler.obj
 0001:00046020       ?ha_delete_table@@YAHPAVTHD@@PAUhandlerton@@PBD22_N@Z 00447020 f   handler.obj
 0001:00046260       ?clone@handler@@UAEPAV1@PAUst_mem_root@@@Z 00447260 f   handler.obj
 0001:00046300       ?print_keydup_error@handler@@QAEXIPBD@Z 00447300 f   handler.obj
 0001:000464b0       ?print_error@handler@@UAEXHH@Z 004474b0 f   handler.obj
 0001:00046b10       ?ha_enable_transaction@@YAHPAVTHD@@_N@Z 00447b10 f   handler.obj
 0001:00046b50       ?ha_create_table_from_engine@@YAHPAVTHD@@PBD1@Z 00447b50 f   handler.obj
 0001:00046d90       ?read_range_first@handler@@UAEHPBUst_key_range@@0_N1@Z 00447d90 f   handler.obj
 0001:00046eb0       ?read_range_next@handler@@UAEHXZ 00447eb0 f   handler.obj
 0001:00046f30       ?ha_show_status@@YA_NPAVTHD@@PAUhandlerton@@W4ha_stat_type@@@Z 00447f30 f   handler.obj
 0001:00047210       ??0?$List_iterator_fast@D@@QAE@AAV?$List@D@@@Z 00448210 f i handler.obj
 0001:00047230       ??0Item_num@@QAE@XZ        00448230 f i handler.obj
 0001:00047250       ?check_partition_func_processor@Item_num@@UAE_NPAE@Z 00448250 f i handler.obj
 0001:00047260       ??_GItem_num@@UAEPAXI@Z    00448260 f i handler.obj
 0001:00047260       ??_EItem_num@@UAEPAXI@Z    00448260 f i handler.obj
 0001:000472a0       ??0Item_int@@QAE@PBD_JI@Z  004482a0 f i handler.obj
 0001:000472f0       ?type@Item_int@@UBE?AW4Type@Item@@XZ 004482f0 f i handler.obj
 0001:00047300       ?result_type@Item_int@@UBE?AW4Item_result@@XZ 00448300 f i handler.obj
 0001:00047310       ?field_type@Item_int@@UBE?AW4enum_field_types@@XZ 00448310 f i handler.obj
 0001:00047320       ?val_int@Item_int@@UAE_JXZ 00448320 f i handler.obj
 0001:00047330       ?val_real@Item_int@@UAENXZ 00448330 f i handler.obj
 0001:00047340       ?basic_const_item@Item_int@@UBE_NXZ 00448340 f i handler.obj
 0001:00047350       ?neg@Item_int@@UAEPAVItem_num@@XZ 00448350 f i handler.obj
 0001:00047370       ?decimal_precision@Item_int@@UBEIXZ 00448370 f i handler.obj
 0001:000473a0       ?check_partition_func_processor@Item_int@@UAE_NPAE@Z 004483a0 f i handler.obj
 0001:000473b0       ??1Item_int@@UAE@XZ        004483b0 f i handler.obj
 0001:000473f0       ?clone_item@Item_int@@UAEPAVItem@@XZ 004483f0 f i handler.obj
 0001:00047470       ??_EItem_int@@UAEPAXI@Z    00448470 f i handler.obj
 0001:00047470       ??_GItem_int@@UAEPAXI@Z    00448470 f i handler.obj
 0001:000474b0       ??_GItem_partition_func_safe_string@@UAEPAXI@Z 004484b0 f i handler.obj
 0001:000474b0       ??_EItem_partition_func_safe_string@@UAEPAXI@Z 004484b0 f i handler.obj
 0001:000474f0       ??_EItem_empty_string@@UAEPAXI@Z 004484f0 f i handler.obj
 0001:000474f0       ??_GItem_empty_string@@UAEPAXI@Z 004484f0 f i handler.obj
 0001:00047530       ?mysql_xa_recover@@YA_NPAVTHD@@@Z 00448530 f   handler.obj
 0001:000479e0       ?ha_known_exts@@YAPAUst_typelib@@XZ 004489e0 f   handler.obj
 0001:00047b40       ??0hash_filo_element@@QAE@XZ 00448b40 f i hostname.obj
 0001:00047b50       ??0hash_filo@@QAE@IIIP6APAEPBEPAID@ZP6AXPAX@ZPAUcharset_info_st@@@Z 00448b50 f i hostname.obj
 0001:00047bb0       ??1hash_filo@@QAE@XZ       00448bb0 f i hostname.obj
 0001:00047be0       ?clear@hash_filo@@QAEX_N@Z 00448be0 f i hostname.obj
 0001:00047c80       ?search@hash_filo@@QAEPAVhash_filo_element@@PAEI@Z 00448c80 f i hostname.obj
 0001:00047cf0       ?add@hash_filo@@QAEDPAVhash_filo_element@@@Z 00448cf0 f i hostname.obj
 0001:00047d80       ?hostname_cache_refresh@@YAXXZ 00448d80 f   hostname.obj
 0001:00047e10       ??0host_entry@@QAE@XZ      00448e10 f i hostname.obj
 0001:00047e20       ??_Ghash_filo@@QAEPAXI@Z   00448e20 f i hostname.obj
 0001:00047f50       ?add_wrong_ip@@YAXPAUin_addr@@@Z 00448f50 f i hostname.obj
 0001:00047f60       ?inc_host_errors@@YAXPAUin_addr@@@Z 00448f60 f   hostname.obj
 0001:00047ff0       ?reset_host_errors@@YAXPAUin_addr@@@Z 00448ff0 f   hostname.obj
 0001:00048090       ?ip_to_hostname@@YAPADPAUin_addr@@PAI@Z 00449090 f   hostname.obj
 0001:000482e0       ?hostname_cache_init@@YA_NXZ 004492e0 f   hostname.obj
 0001:00048410       ?hostname_cache_free@@YAXXZ 00449410 f   hostname.obj
 0001:00048480       ?unireg_init@@YAXK@Z       00449480 f   init.obj
 0001:00048520       ?intersect@?$Bitmap@$0EA@@@QAEXAAV1@@Z 00449520 f i item.obj
 0001:00048540       ??0String@@QAE@ABV0@@Z     00449540 f i item.obj
 0001:00048570       ?mark_as_const@String@@QAEXXZ 00449570 f i item.obj
 0001:00048580       ?set@String@@QAE_N_JPAUcharset_info_st@@@Z 00449580 f i item.obj
 0001:000485a0       ?set@String@@QAE_N_KPAUcharset_info_st@@@Z 004495a0 f i item.obj
 0001:000485c0       ?reserve@String@@QAEHI@Z   004495c0 f i item.obj
 0001:00048610       ?push_front@base_list@@QAE_NPAX@Z 00449610 f i item.obj
 0001:00048660       ?head@base_list@@QAEPAXXZ  00449660 f i item.obj
 0001:00048670       ?my_decimal_int_part@@YAHII@Z 00449670 f i item.obj
 0001:00048690       ?precision@my_decimal@@QBEIXZ 00449690 f i item.obj
 0001:000486a0       ?swap@my_decimal@@QAEXAAV1@@Z 004496a0 f i item.obj
 0001:00048700       ?my_decimal2decimal@@YAXPBVmy_decimal@@PAV1@@Z 00449700 f i item.obj
 0001:00048730       ?my_decimal_is_zero@@YA_NPBVmy_decimal@@@Z 00449730 f i item.obj
 0001:00048750       ?my_decimal_round@@YAHIPBVmy_decimal@@H_NPAV1@@Z 00449750 f i item.obj
 0001:000487a0       ?str2my_decimal@@YAHIPBDPAVmy_decimal@@PAPAD@Z 004497a0 f i item.obj
 0001:00048810       ?string2my_decimal@@YAHIPBVString@@PAVmy_decimal@@@Z 00449810 f i item.obj
 0001:00048840       ?my_decimal_add@@YAHIPAVmy_decimal@@PBV1@1@Z 00449840 f i item.obj
 0001:000488b0       ?my_decimal_div@@YAHIPAVmy_decimal@@PBV1@1H@Z 004498b0 f i item.obj
 0001:00048930       ?my_decimal_cmp@@YAHPBVmy_decimal@@0@Z 00449930 f i item.obj
 0001:00048940       ?top_table@TABLE_LIST@@QAEPAU1@XZ 00449940 f i item.obj
 0001:00048950       ?get_db_name@TABLE_LIST@@QAEPADXZ 00449950 f i item.obj
 0001:00048970       ?get_table_name@TABLE_LIST@@QAEPADXZ 00449970 f i item.obj
 0001:000489b0       ??0Field_newdate@@QAE@_NPBDPAUcharset_info_st@@@Z 004499b0 f i item.obj
 0001:00048a00       ??0Field_time@@QAE@_NPBDPAUcharset_info_st@@@Z 00449a00 f i item.obj
 0001:00048a50       ??0Field_datetime@@QAE@_NPBDPAUcharset_info_st@@@Z 00449a50 f i item.obj
 0001:00048aa0       ?set_repertoire_from_charset@DTCollation@@QAEXPAUcharset_info_st@@@Z 00449aa0 f i item.obj
 0001:00048ac0       ??0DTCollation@@QAE@PAUcharset_info_st@@W4Derivation@@@Z 00449ac0 f i item.obj
 0001:00048af0       ?set@DTCollation@@QAEXAAV1@@Z 00449af0 f i item.obj
 0001:00048b10       ?set@DTCollation@@QAEXPAUcharset_info_st@@W4Derivation@@@Z 00449b10 f i item.obj
 0001:00048b40       ?set@DTCollation@@QAEXPAUcharset_info_st@@@Z 00449b40 f i item.obj
 0001:00048b60       ?set@DTCollation@@QAEXW4Derivation@@@Z 00449b60 f i item.obj
 0001:00048b70       ?derivation_name@DTCollation@@QBEPBDXZ 00449b70 f i item.obj
 0001:00048be0       ??0Hybrid_type_traits@@QAE@XZ 00449be0 f i item.obj
 0001:00048bf0       ?type@Hybrid_type_traits@@UBE?AW4Item_result@@XZ 00449bf0 f i item.obj
 0001:00048c00       ?set_zero@Hybrid_type_traits@@UBEXPAUHybrid_type@@@Z 00449c00 f i item.obj
 0001:00048c10       ?add@Hybrid_type_traits@@UBEXPAUHybrid_type@@PAVField@@@Z 00449c10 f i item.obj
 0001:00048c30       ?div@Hybrid_type_traits@@UBEXPAUHybrid_type@@_K@Z 00449c30 f i item.obj
 0001:00048c80       ?val_int@Hybrid_type_traits@@UBE_JPAUHybrid_type@@_N@Z 00449c80 f i item.obj
 0001:00048d00       ?val_real@Hybrid_type_traits@@UBENPAUHybrid_type@@@Z 00449d00 f i item.obj
 0001:00048d10       ??1Hybrid_type_traits@@UAE@XZ 00449d10 f i item.obj
 0001:00048d20       ??_EHybrid_type_traits@@UAEPAXI@Z 00449d20 f i item.obj
 0001:00048d20       ??_GHybrid_type_traits@@UAEPAXI@Z 00449d20 f i item.obj
 0001:00048d50       ??0Hybrid_type_traits_decimal@@QAE@XZ 00449d50 f i item.obj
 0001:00048d60       ?type@Hybrid_type_traits_decimal@@UBE?AW4Item_result@@XZ 00449d60 f i item.obj
 0001:00048d70       ?val_decimal@Hybrid_type_traits_decimal@@UBEPAVmy_decimal@@PAUHybrid_type@@PAV2@@Z 00449d70 f i item.obj
 0001:00048d90       ??1Hybrid_type_traits_decimal@@UAE@XZ 00449d90 f i item.obj
 0001:00048da0       ??0Hybrid_type_traits_integer@@QAE@XZ 00449da0 f i item.obj
 0001:00048db0       ?type@Hybrid_type_traits_integer@@UBE?AW4Item_result@@XZ 00449db0 f i item.obj
 0001:00048dc0       ?set_zero@Hybrid_type_traits_integer@@UBEXPAUHybrid_type@@@Z 00449dc0 f i item.obj
 0001:00048de0       ?add@Hybrid_type_traits_integer@@UBEXPAUHybrid_type@@PAVField@@@Z 00449de0 f i item.obj
 0001:00048e00       ?div@Hybrid_type_traits_integer@@UBEXPAUHybrid_type@@_K@Z 00449e00 f i item.obj
 0001:00048e30       ?val_int@Hybrid_type_traits_integer@@UBE_JPAUHybrid_type@@_N@Z 00449e30 f i item.obj
 0001:00048e40       ?val_real@Hybrid_type_traits_integer@@UBENPAUHybrid_type@@@Z 00449e40 f i item.obj
 0001:00048e50       ?val_decimal@Hybrid_type_traits_integer@@UBEPAVmy_decimal@@PAUHybrid_type@@PAV2@@Z 00449e50 f i item.obj
 0001:00048e90       ?val_str@Hybrid_type_traits_integer@@UBEPAVString@@PAUHybrid_type@@PAV2@E@Z 00449e90 f i item.obj
 0001:00048ec0       ??1Hybrid_type_traits_integer@@UAE@XZ 00449ec0 f i item.obj
 0001:00048ed0       ?process_error@Name_resolution_context@@QAEXPAVTHD@@@Z 00449ed0 f i item.obj
 0001:00048ef0       ??0Settable_routine_parameter@@QAE@XZ 00449ef0 f i item.obj
 0001:00048f00       ??1Settable_routine_parameter@@UAE@XZ 00449f00 f i item.obj
 0001:00048f10       ?set_required_privilege@Settable_routine_parameter@@UAEX_N@Z 00449f10 f i item.obj
 0001:00048f20       ??_GSettable_routine_parameter@@UAEPAXI@Z 00449f20 f i item.obj
 0001:00048f20       ??_ESettable_routine_parameter@@UAEPAXI@Z 00449f20 f i item.obj
 0001:00048f50       ?float_length@Item@@QBEII@Z 00449f50 f i item.obj
 0001:00048f70       ?decimal_int_part@Item@@QBEHXZ 00449f70 f i item.obj
 0001:00048fa0       ?get_var_idx@Item_splocal@@QBEIXZ 00449fa0 f i item.obj
 0001:00048fb0       ?max_disp_length@Item_field@@QAEIXZ 00449fb0 f i item.obj
 0001:00048fc0       ?is_cs_specified@Item_string@@QBE_NXZ 00449fc0 f i item.obj
 0001:00048fd0       ?depended_from@Item_sum@@QAEPAVst_select_lex@@XZ 00449fd0 f i item.obj
 0001:00048ff0       ?get_arg@Item_sum@@QAEPAVItem@@H@Z 00449ff0 f i item.obj
 0001:00049000       ?get_const@Item_equal@@QAEPAVItem@@XZ 0044a000 f i item.obj
 0001:00049010       ?first_select@st_select_lex_unit@@QAEPAVst_select_lex@@XZ 0044a010 f i item.obj
 0001:00049020       ??0Query_arena@@QAE@XZ     0044a020 f i item.obj
 0001:00049030       ??1Query_arena@@UAE@XZ     0044a030 f i item.obj
 0001:00049040       ?is_stmt_prepare@Query_arena@@QBE_NXZ 0044a040 f i item.obj
 0001:00049050       ?is_conventional@Query_arena@@QBE_NXZ 0044a050 f i item.obj
 0001:00049060       ?calloc@Query_arena@@QAEPAXI@Z 0044a060 f i item.obj
 0001:000490a0       ?strdup@Query_arena@@QAEPADPBD@Z 0044a0a0 f i item.obj
 0001:000490c0       ?strmake@Query_arena@@QAEPADPBDI@Z 0044a0c0 f i item.obj
 0001:000490e0       ??_EQuery_arena@@UAEPAXI@Z 0044a0e0 f i item.obj
 0001:000490e0       ??_GQuery_arena@@UAEPAXI@Z 0044a0e0 f i item.obj
 0001:00049110       ?activate_stmt_arena_if_needed@THD@@QAEPAVQuery_arena@@PAV2@@Z 0044a110 f i item.obj
 0001:00049160       ?change_item_tree@THD@@QAEXPAPAVItem@@PAV2@@Z 0044a160 f i item.obj
 0001:000491b0       ?fix_length_and_dec@Hybrid_type_traits@@UBEXPAVItem@@0@Z 0044a1b0 f   item.obj
 0001:000491d0       ?instance@Hybrid_type_traits@@SAPBU1@XZ 0044a1d0 f   item.obj
 0001:000491e0       ?val_decimal@Hybrid_type_traits@@UBEPAVmy_decimal@@PAUHybrid_type@@PAV2@@Z 0044a1e0 f   item.obj
 0001:00049210       ?val_str@Hybrid_type_traits@@UBEPAVString@@PAUHybrid_type@@PAV2@E@Z 0044a210 f   item.obj
 0001:00049250       ?instance@Hybrid_type_traits_decimal@@SAPBU1@XZ 0044a250 f   item.obj
 0001:00049260       ?fix_length_and_dec@Hybrid_type_traits_decimal@@UBEXPAVItem@@0@Z 0044a260 f   item.obj
 0001:00049290       ?set_zero@Hybrid_type_traits_decimal@@UBEXPAUHybrid_type@@@Z 0044a290 f   item.obj
 0001:000492c0       ?add@Hybrid_type_traits_decimal@@UBEXPAUHybrid_type@@PAVField@@@Z 0044a2c0 f   item.obj
 0001:00049330       ?div@Hybrid_type_traits_decimal@@UBEXPAUHybrid_type@@_K@Z 0044a330 f   item.obj
 0001:000493c0       ?val_int@Hybrid_type_traits_decimal@@UBE_JPAUHybrid_type@@_N@Z 0044a3c0 f   item.obj
 0001:00049410       ?val_real@Hybrid_type_traits_decimal@@UBENPAUHybrid_type@@@Z 0044a410 f   item.obj
 0001:00049450       ?val_str@Hybrid_type_traits_decimal@@UBEPAVString@@PAUHybrid_type@@PAV2@E@Z 0044a450 f   item.obj
 0001:000494d0       ?instance@Hybrid_type_traits_integer@@SAPBU1@XZ 0044a4d0 f   item.obj
 0001:000494e0       ?fix_length_and_dec@Hybrid_type_traits_integer@@UBEXPAVItem@@0@Z 0044a4e0 f   item.obj
 0001:00049500       ?item_init@@YAXXZ          0044a500 f   item.obj
 0001:00049510       ?val_bool@Item@@UAE_NXZ    0044a510 f   item.obj
 0001:000495e0       ?val_string_from_real@Item@@QAEPAVString@@PAV2@@Z 0044a5e0 f   item.obj
 0001:00049630       ?val_string_from_int@Item@@QAEPAVString@@PAV2@@Z 0044a630 f   item.obj
 0001:00049680       ?val_string_from_decimal@Item@@QAEPAVString@@PAV2@@Z 0044a680 f   item.obj
 0001:00049720       ?val_decimal_from_real@Item@@QAEPAVmy_decimal@@PAV2@@Z 0044a720 f   item.obj
 0001:00049760       ?val_decimal_from_int@Item@@QAEPAVmy_decimal@@PAV2@@Z 0044a760 f   item.obj
 0001:000497c0       ?val_decimal_from_string@Item@@QAEPAVmy_decimal@@PAV2@@Z 0044a7c0 f   item.obj
 0001:00049880       ?val_decimal_from_date@Item@@QAEPAVmy_decimal@@PAV2@@Z 0044a880 f   item.obj
 0001:000498f0       ?val_decimal_from_time@Item@@QAEPAVmy_decimal@@PAV2@@Z 0044a8f0 f   item.obj
 0001:00049950       ?val_real_from_decimal@Item@@QAENXZ 0044a950 f   item.obj
 0001:000499b0       ?val_int_from_decimal@Item@@QAE_JXZ 0044a9b0 f   item.obj
 0001:00049a20       ?save_time_in_field@Item@@QAEHPAVField@@@Z 0044aa20 f   item.obj
 0001:00049a90       ?save_date_in_field@Item@@QAEHPAVField@@@Z 0044aa90 f   item.obj
 0001:00049b00       ?save_str_value_in_field@Item@@QAEHPAVField@@PAVString@@@Z 0044ab00 f   item.obj
 0001:00049b60       ?decimal_precision@Item@@UBEIXZ 0044ab60 f   item.obj
 0001:00049bc0       ?print_item_w_name@Item@@QAEXPAVString@@W4enum_query_type@@@Z 0044abc0 f   item.obj
 0001:00049c50       ?cleanup@Item@@UAEXXZ      0044ac50 f   item.obj
 0001:00049c70       ?cleanup_processor@Item@@UAE_NPAE@Z 0044ac70 f   item.obj
 0001:00049c90       ?rename@Item@@QAEXPAD@Z    0044ac90 f   item.obj
 0001:00049cc0       ?transform@Item@@UAEPAV1@P81@AEPAV1@PAE@Z0@Z 0044acc0 f   item.obj
 0001:00049cd0       ?cleanup@Item_ident@@UAEXXZ 0044acd0 f   item.obj
 0001:00049d00       ?remove_dependence_processor@Item_ident@@UAE_NPAE@Z 0044ad00 f   item.obj
 0001:00049d20       ?find_item_in_field_list_processor@Item_field@@UAE_NPAE@Z 0044ad20 f   item.obj
 0001:00049d70       ?register_field_in_read_map@Item_field@@UAE_NPAE@Z 0044ad70 f   item.obj
 0001:00049dc0       ?check_cols@Item@@UAE_NI@Z 0044adc0 f   item.obj
 0001:00049df0       ?set_name@Item@@QAEXPBDIPAUcharset_info_st@@@Z 0044adf0 f   item.obj
 0001:00049f60       ?eq@Item@@UBE_NPBV1@_N@Z   0044af60 f   item.obj
 0001:00049fd0       ?safe_charset_converter@Item_param@@UAEPAVItem@@PAUcharset_info_st@@@Z 0044afd0 f   item.obj
 0001:0004a090       ?eq@Item_string@@UBE_NPBVItem@@_N@Z 0044b090 f   item.obj
 0001:0004a140       ?default_charset@Item@@SAPAUcharset_info_st@@XZ 0044b140 f   item.obj
 0001:0004a170       ?save_in_field_no_warnings@Item@@QAEHPAVField@@_N@Z 0044b170 f   item.obj
 0001:0004a1e0       ?fix_fields@Item_sp_variable@@UAE_NPAVTHD@@PAPAVItem@@@Z 0044b1e0 f   item.obj
 0001:0004a240       ?val_real@Item_sp_variable@@UAENXZ 0044b240 f   item.obj
 0001:0004a270       ?val_int@Item_sp_variable@@UAE_JXZ 0044b270 f   item.obj
 0001:0004a2a0       ?val_decimal@Item_sp_variable@@UAEPAVmy_decimal@@PAV2@@Z 0044b2a0 f   item.obj
 0001:0004a2e0       ?is_null@Item_sp_variable@@UAE_NXZ 0044b2e0 f   item.obj
 0001:0004a300       ?this_item@Item_splocal@@UAEPAVItem@@XZ 0044b300 f   item.obj
 0001:0004a320       ?this_item@Item_splocal@@UBEPBVItem@@XZ 0044b320 f   item.obj
 0001:0004a340       ?this_item_addr@Item_splocal@@UAEPAPAVItem@@PAVTHD@@PAPAV2@@Z 0044b340 f   item.obj
 0001:0004a360       ?print@Item_splocal@@UAEXPAVString@@W4enum_query_type@@@Z 0044b360 f   item.obj
 0001:0004a400       ?set_value@Item_splocal@@EAE_NPAVTHD@@PAVsp_rcontext@@PAPAVItem@@@Z 0044b400 f   item.obj
 0001:0004a430       ?this_item@Item_case_expr@@UAEPAVItem@@XZ 0044b430 f   item.obj
 0001:0004a450       ?this_item@Item_case_expr@@UBEPBVItem@@XZ 0044b450 f   item.obj
 0001:0004a470       ?this_item_addr@Item_case_expr@@UAEPAPAVItem@@PAVTHD@@PAPAV2@@Z 0044b470 f   item.obj
 0001:0004a490       ?print@Item_case_expr@@UAEXPAVString@@W4enum_query_type@@@Z 0044b490 f   item.obj
 0001:0004a4e0       ?val_real@Item_name_const@@UAENXZ 0044b4e0 f   item.obj
 0001:0004a500       ?val_int@Item_name_const@@UAE_JXZ 0044b500 f   item.obj
 0001:0004a520       ?val_str@Item_name_const@@UAEPAVString@@PAV2@@Z 0044b520 f   item.obj
 0001:0004a550       ?val_decimal@Item_name_const@@UAEPAVmy_decimal@@PAV2@@Z 0044b550 f   item.obj
 0001:0004a580       ?is_null@Item_name_const@@UAE_NXZ 0044b580 f   item.obj
 0001:0004a590       ?type@Item_name_const@@UBE?AW4Type@Item@@XZ 0044b590 f   item.obj
 0001:0004a5e0       ?print@Item_name_const@@UAEXPAVString@@W4enum_query_type@@@Z 0044b5e0 f   item.obj
 0001:0004a700       ?aggregate@DTCollation@@QAE_NAAV1@I@Z 0044b700 f   item.obj
 0001:0004aa00       ?agg_item_collations@@YA_NAAVDTCollation@@PBDPAPAVItem@@IIH@Z 0044ba00 f   item.obj
 0001:0004aad0       ?agg_item_collations_for_comparison@@YA_NAAVDTCollation@@PBDPAPAVItem@@II@Z 0044bad0 f   item.obj
 0001:0004ab00       ?make_field@Item_ident_for_show@@UAEXPAVSend_field@@@Z 0044bb00 f   item.obj
 0001:0004aba0       ?set_field@Item_field@@IAEXPAVField@@@Z 0044bba0 f   item.obj
 0001:0004acb0       ?reset_field@Item_field@@QAEXPAVField@@@Z 0044bcb0 f   item.obj
 0001:0004acd0       ?full_name@Item_ident@@UBEPBDXZ 0044bcd0 f   item.obj
 0001:0004ae10       ?print@Item_ident@@UAEXPAVString@@W4enum_query_type@@@Z 0044be10 f   item.obj
 0001:0004b0d0       ?val_str@Item_field@@UAEPAVString@@PAV2@@Z 0044c0d0 f   item.obj
 0001:0004b140       ?val_real@Item_field@@UAENXZ 0044c140 f   item.obj
 0001:0004b190       ?val_int@Item_field@@UAE_JXZ 0044c190 f   item.obj
 0001:0004b1e0       ?val_decimal@Item_field@@UAEPAVmy_decimal@@PAV2@@Z 0044c1e0 f   item.obj
 0001:0004b230       ?str_result@Item_field@@UAEPAVString@@PAV2@@Z 0044c230 f   item.obj
 0001:0004b2a0       ?get_date@Item_field@@UAE_NPAUst_mysql_time@@I@Z 0044c2a0 f   item.obj
 0001:0004b330       ?get_date_result@Item_field@@UAE_NPAUst_mysql_time@@I@Z 0044c330 f   item.obj
 0001:0004b3c0       ?get_time@Item_field@@UAE_NPAUst_mysql_time@@@Z 0044c3c0 f   item.obj
 0001:0004b450       ?val_result@Item_field@@UAENXZ 0044c450 f   item.obj
 0001:0004b4a0       ?val_int_result@Item_field@@UAE_JXZ 0044c4a0 f   item.obj
 0001:0004b4f0       ?val_decimal_result@Item_field@@UAEPAVmy_decimal@@PAV2@@Z 0044c4f0 f   item.obj
 0001:0004b540       ?val_bool_result@Item_field@@UAE_NXZ 0044c540 f   item.obj
 0001:0004b650       ?is_null_result@Item_field@@UAE_NXZ 0044c650 f   item.obj
 0001:0004b690       ?eq@Item_field@@UBE_NPBVItem@@_N@Z 0044c690 f   item.obj
 0001:0004b7a0       ?used_tables@Item_field@@UBE_KXZ 0044c7a0 f   item.obj
 0001:0004b7e0       ?val_int_endpoint@Item_field@@UAE_J_NPA_N@Z 0044c7e0 f   item.obj
 0001:0004b810       ?val_decimal@Item_int@@UAEPAVmy_decimal@@PAV2@@Z 0044c810 f   item.obj
 0001:0004b860       ?val_str@Item_int@@UAEPAVString@@PAV2@@Z 0044c860 f   item.obj
 0001:0004b890       ?print@Item_int@@UAEXPAVString@@W4enum_query_type@@@Z 0044c890 f   item.obj
 0001:0004b8d0       ?val_str@Item_uint@@UAEPAVString@@PAV2@@Z 0044c8d0 f   item.obj
 0001:0004b900       ?print@Item_uint@@UAEXPAVString@@W4enum_query_type@@@Z 0044c900 f   item.obj
 0001:0004b940       ?val_int@Item_decimal@@UAE_JXZ 0044c940 f   item.obj
 0001:0004b970       ?val_real@Item_decimal@@UAENXZ 0044c970 f   item.obj
 0001:0004b990       ?val_str@Item_decimal@@UAEPAVString@@PAV2@@Z 0044c990 f   item.obj
 0001:0004b9c0       ?print@Item_decimal@@UAEXPAVString@@W4enum_query_type@@@Z 0044c9c0 f   item.obj
 0001:0004b9f0       ?eq@Item_decimal@@UBE_NPBVItem@@_N@Z 0044c9f0 f   item.obj
 0001:0004ba70       ?set_decimal_value@Item_decimal@@QAEXPAVmy_decimal@@@Z 0044ca70 f   item.obj
 0001:0004baf0       ?val_str@Item_float@@UAEPAVString@@PAV2@@Z 0044caf0 f   item.obj
 0001:0004bb20       ?val_decimal@Item_float@@UAEPAVmy_decimal@@PAV2@@Z 0044cb20 f   item.obj
 0001:0004bb50       ?double_from_string_with_check@@YANPAUcharset_info_st@@PBDPAD@Z 0044cb50 f   item.obj
 0001:0004bc20       ?val_real@Item_string@@UAENXZ 0044cc20 f   item.obj
 0001:0004bc40       ?longlong_from_string_with_check@@YA_JPAUcharset_info_st@@PBDPAD@Z 0044cc40 f   item.obj
 0001:0004bd10       ?val_int@Item_string@@UAE_JXZ 0044cd10 f   item.obj
 0001:0004bd30       ?val_decimal@Item_string@@UAEPAVmy_decimal@@PAV2@@Z 0044cd30 f   item.obj
 0001:0004bd40       ?eq@Item_null@@UBE_NPBVItem@@_N@Z 0044cd40 f   item.obj
 0001:0004bd80       ?val_real@Item_null@@UAENXZ 0044cd80 f   item.obj
 0001:0004bd90       ?val_int@Item_null@@UAE_JXZ 0044cd90 f   item.obj
 0001:0004bda0       ?val_str@Item_null@@UAEPAVString@@PAV2@@Z 0044cda0 f   item.obj
 0001:0004bdb0       ?val_decimal@Item_null@@UAEPAVmy_decimal@@PAV2@@Z 0044cdb0 f   item.obj
 0001:0004bdc0       ?safe_charset_converter@Item_null@@UAEPAVItem@@PAUcharset_info_st@@@Z 0044cdc0 f   item.obj
 0001:0004bdf0       ?set_null@Item_param@@QAEXXZ 0044cdf0 f   item.obj
 0001:0004be20       ?set_int@Item_param@@QAEX_JI@Z 0044ce20 f   item.obj
 0001:0004be60       ?set_double@Item_param@@QAEXN@Z 0044ce60 f   item.obj
 0001:0004be90       ?set_decimal@Item_param@@QAEXPBDK@Z 0044ce90 f   item.obj
 0001:0004bf30       ?set_time@Item_param@@QAEXPAUst_mysql_time@@W4enum_mysql_timestamp_type@@I@Z 0044cf30 f   item.obj
 0001:0004c040       ?set_str@Item_param@@QAE_NPBDK@Z 0044d040 f   item.obj
 0001:0004c0a0       ?set_longdata@Item_param@@QAE_NPBDK@Z 0044d0a0 f   item.obj
 0001:0004c0f0       ?set_from_user_var@Item_param@@QAE_NPAVTHD@@PBVuser_var_entry@@@Z 0044d0f0 f   item.obj
 0001:0004c320       ?reset@Item_param@@QAEXXZ  0044d320 f   item.obj
 0001:0004c3b0       ?save_in_field@Item_param@@UAEHPAVField@@_N@Z 0044d3b0 f   item.obj
 0001:0004c4e0       ?val_real@Item_param@@UAENXZ 0044d4e0 f   item.obj
 0001:0004c5c0       ?val_int@Item_param@@UAE_JXZ 0044d5c0 f   item.obj
 0001:0004c6c0       ?val_decimal@Item_param@@UAEPAVmy_decimal@@PAV2@@Z 0044d6c0 f   item.obj
 0001:0004c7e0       ?val_str@Item_param@@UAEPAVString@@PAV2@@Z 0044d7e0 f   item.obj
 0001:0004c920       ?query_val_str@Item_param@@QBEPBVString@@PAV2@@Z 0044d920 f   item.obj
 0001:0004ca90       ?basic_const_item@Item_param@@UBE_NXZ 0044da90 f   item.obj
 0001:0004cab0       ?eq@Item_param@@UBE_NPBVItem@@_N@Z 0044dab0 f   item.obj
 0001:0004cc10       ?set_param_type_and_swap_value@Item_param@@QAEXPAV1@@Z 0044dc10 f   item.obj
 0001:0004cd50       ?copy@Item_copy_string@@QAEXXZ 0044dd50 f   item.obj
 0001:0004cd90       ?val_str@Item_copy_string@@UAEPAVString@@PAV2@@Z 0044dd90 f   item.obj
 0001:0004cdb0       ?val_decimal@Item_copy_string@@UAEPAVmy_decimal@@PAV2@@Z 0044ddb0 f   item.obj
 0001:0004cdf0       ?fix_fields@Item@@UAE_NPAVTHD@@PAPAV1@@Z 0044ddf0 f   item.obj
 0001:0004ce00       ?val_real@Item_ref_null_helper@@UAENXZ 0044de00 f   item.obj
 0001:0004ce50       ?val_int@Item_ref_null_helper@@UAE_JXZ 0044de50 f   item.obj
 0001:0004cea0       ?val_decimal@Item_ref_null_helper@@UAEPAVmy_decimal@@PAV2@@Z 0044dea0 f   item.obj
 0001:0004cef0       ?val_bool@Item_ref_null_helper@@UAE_NXZ 0044def0 f   item.obj
 0001:0004cf40       ?val_str@Item_ref_null_helper@@UAEPAVString@@PAV2@@Z 0044df40 f   item.obj
 0001:0004cf90       ?get_date@Item_ref_null_helper@@UAE_NPAUst_mysql_time@@I@Z 0044df90 f   item.obj
 0001:0004d110       ?mark_select_range_as_dependent@@YAXPAVTHD@@PAVst_select_lex@@1PAVField@@PAVItem@@PAVItem_ident@@@Z 0044e110 f   item.obj
 0001:0004d6a0       ?cleanup@Item_field@@UAEXXZ 0044e6a0 f   item.obj
 0001:0004d6c0       ?subst_argument_checker@Item_field@@UAE_NPAPAE@Z 0044e6c0 f   item.obj
 0001:0004d6f0       ?set_no_const_sub@Item_field@@UAE_NPAE@Z 0044e6f0 f   item.obj
 0001:0004d720       ?init_make_field@Item@@QAEXPAVSend_field@@W4enum_field_types@@@Z 0044e720 f   item.obj
 0001:0004d7a0       ?make_field@Item@@UAEXPAVSend_field@@@Z 0044e7a0 f   item.obj
 0001:0004d7d0       ?string_field_type@Item@@UBE?AW4enum_field_types@@XZ 0044e7d0 f   item.obj
 0001:0004d800       ?make_field@Item_empty_string@@UAEXPAVSend_field@@@Z 0044e800 f   item.obj
 0001:0004d830       ?field_type@Item@@UBE?AW4enum_field_types@@XZ 0044e830 f   item.obj
 0001:0004d8a0       ?is_datetime@Item@@QAE_NXZ 0044e8a0 f   item.obj
 0001:0004d8d0       ?check_well_formed_result@Item@@QAEPAVString@@PAV2@_N@Z 0044e8d0 f   item.obj
 0001:0004da30       ?eq_by_collation@Item@@QAE_NPAV1@_NPAUcharset_info_st@@@Z 0044ea30 f   item.obj
 0001:0004daa0       ?make_field@Item_field@@UAEXPAVSend_field@@@Z 0044eaa0 f   item.obj
 0001:0004daf0       ?save_org_in_field@Item_field@@UAEXPAVField@@@Z 0044eaf0 f   item.obj
 0001:0004db80       ?save_in_field@Item_field@@UAEHPAVField@@_N@Z 0044eb80 f   item.obj
 0001:0004dc10       ?save_in_field@Item_null@@UAEHPAVField@@_N@Z 0044ec10 f   item.obj
 0001:0004dc30       ?save_safe_in_field@Item_null@@UAEHPAVField@@@Z 0044ec30 f   item.obj
 0001:0004dc50       ?save_in_field@Item@@UAEHPAVField@@_N@Z 0044ec50 f   item.obj
 0001:0004deb0       ?save_in_field@Item_string@@UAEHPAVField@@_N@Z 0044eeb0 f   item.obj
 0001:0004dee0       ?save_in_field@Item_int@@UAEHPAVField@@_N@Z 0044eee0 f   item.obj
 0001:0004df50       ?save_in_field@Item_decimal@@UAEHPAVField@@_N@Z 0044ef50 f   item.obj
 0001:0004df90       ?eq@Item_int@@UBE_NPBVItem@@_N@Z 0044ef90 f   item.obj
 0001:0004e0a0       ?save_in_field@Item_float@@UAEHPAVField@@_N@Z 0044f0a0 f   item.obj
 0001:0004e100       ?eq@Item_float@@UBE_NPBVItem@@_N@Z 0044f100 f   item.obj
 0001:0004e180       ?char_val@@YAID@Z          0044f180 f i item.obj
 0001:0004e1c0       ?val_int@Item_hex_string@@UAE_JXZ 0044f1c0 f   item.obj
 0001:0004e220       ?val_decimal@Item_hex_string@@UAEPAVmy_decimal@@PAV2@@Z 0044f220 f   item.obj
 0001:0004e260       ?save_in_field@Item_hex_string@@UAEHPAVField@@_N@Z 0044f260 f   item.obj
 0001:0004e360       ?print@Item_hex_string@@UAEXPAVString@@W4enum_query_type@@@Z 0044f360 f   item.obj
 0001:0004e450       ?eq@Item_hex_string@@UBE_NPBVItem@@_N@Z 0044f450 f   item.obj
 0001:0004e4f0       ?send@Item_null@@UAE_NPAVProtocol@@PAVString@@@Z 0044f4f0 f   item.obj
 0001:0004e510       ?send@Item@@UAE_NPAVProtocol@@PAVString@@@Z 0044f510 f   item.obj
 0001:0004e7a0       ?send@Item_field@@UAE_NPAVProtocol@@PAVString@@@Z 0044f7a0 f   item.obj
 0001:0004e7c0       ?update_null_value@Item_field@@UAEXXZ 0044f7c0 f   item.obj
 0001:0004e800       ?set_properties@Item_ref@@IAEXXZ 0044f800 f   item.obj
 0001:0004e8a0       ?cleanup@Item_ref@@UAEXXZ  0044f8a0 f   item.obj
 0001:0004e8b0       ?print@Item_ref@@UAEXPAVString@@W4enum_query_type@@@Z 0044f8b0 f   item.obj
 0001:0004e980       ?send@Item_ref@@UAE_NPAVProtocol@@PAVString@@@Z 0044f980 f   item.obj
 0001:0004e9b0       ?val_result@Item_ref@@UAENXZ 0044f9b0 f   item.obj
 0001:0004ea10       ?is_null_result@Item_ref@@UAE_NXZ 0044fa10 f   item.obj
 0001:0004ea60       ?val_int_result@Item_ref@@UAE_JXZ 0044fa60 f   item.obj
 0001:0004ead0       ?str_result@Item_ref@@UAEPAVString@@PAV2@@Z 0044fad0 f   item.obj
 0001:0004eb50       ?val_decimal_result@Item_ref@@UAEPAVmy_decimal@@PAV2@@Z 0044fb50 f   item.obj
 0001:0004ebc0       ?val_bool_result@Item_ref@@UAE_NXZ 0044fbc0 f   item.obj
 0001:0004ecf0       ?val_real@Item_ref@@UAENXZ 0044fcf0 f   item.obj
 0001:0004ed20       ?val_int@Item_ref@@UAE_JXZ 0044fd20 f   item.obj
 0001:0004ed50       ?val_bool@Item_ref@@UAE_NXZ 0044fd50 f   item.obj
 0001:0004ed80       ?val_str@Item_ref@@UAEPAVString@@PAV2@@Z 0044fd80 f   item.obj
 0001:0004edb0       ?is_null@Item_ref@@UAE_NXZ 0044fdb0 f   item.obj
 0001:0004ede0       ?get_date@Item_ref@@UAE_NPAUst_mysql_time@@I@Z 0044fde0 f   item.obj
 0001:0004ee10       ?val_decimal@Item_ref@@UAEPAVmy_decimal@@PAV2@@Z 0044fe10 f   item.obj
 0001:0004ee40       ?save_in_field@Item_ref@@UAEHPAVField@@_N@Z 0044fe40 f   item.obj
 0001:0004ee80       ?save_org_in_field@Item_ref@@UAEXPAVField@@@Z 0044fe80 f   item.obj
 0001:0004ee90       ?make_field@Item_ref@@UAEXPAVSend_field@@@Z 0044fe90 f   item.obj
 0001:0004eef0       ?print@Item_ref_null_helper@@UAEXPAVString@@W4enum_query_type@@@Z 0044fef0 f   item.obj
 0001:0004efc0       ?val_real@Item_direct_ref@@UAENXZ 0044ffc0 f   item.obj
 0001:0004eff0       ?val_int@Item_direct_ref@@UAE_JXZ 0044fff0 f   item.obj
 0001:0004f020       ?val_str@Item_direct_ref@@UAEPAVString@@PAV2@@Z 00450020 f   item.obj
 0001:0004f050       ?val_decimal@Item_direct_ref@@UAEPAVmy_decimal@@PAV2@@Z 00450050 f   item.obj
 0001:0004f080       ?val_bool@Item_direct_ref@@UAE_NXZ 00450080 f   item.obj
 0001:0004f0b0       ?is_null@Item_direct_ref@@UAE_NXZ 004500b0 f   item.obj
 0001:0004f0d0       ?get_date@Item_direct_ref@@UAE_NPAUst_mysql_time@@I@Z 004500d0 f   item.obj
 0001:0004f100       ?eq@Item_direct_view_ref@@UBE_NPBVItem@@_N@Z 00450100 f   item.obj
 0001:0004f180       ?eq@Item_default_value@@UBE_NPBVItem@@_N@Z 00450180 f   item.obj
 0001:0004f1e0       ?fix_fields@Item_default_value@@UAE_NPAVTHD@@PAPAVItem@@@Z 004501e0 f   item.obj
 0001:0004f330       ?print@Item_default_value@@UAEXPAVString@@W4enum_query_type@@@Z 00450330 f   item.obj
 0001:0004f3e0       ?transform@Item_default_value@@UAEPAVItem@@P82@AEPAV2@PAE@Z0@Z 004503e0 f   item.obj
 0001:0004f470       ?eq@Item_insert_value@@UBE_NPBVItem@@_N@Z 00450470 f   item.obj
 0001:0004f4d0       ?fix_fields@Item_insert_value@@UAE_NPAVTHD@@PAPAVItem@@@Z 004504d0 f   item.obj
 0001:0004f670       ?print@Item_insert_value@@UAEXPAVString@@W4enum_query_type@@@Z 00450670 f   item.obj
 0001:0004f6f0       ?setup_field@Item_trigger_field@@QAEXPAVTHD@@PAUst_table@@PAUst_grant_info@@@Z 004506f0 f   item.obj
 0001:0004f770       ?eq@Item_trigger_field@@UBE_NPBVItem@@_N@Z 00450770 f   item.obj
 0001:0004f7e0       ?set_required_privilege@Item_trigger_field@@EAEX_N@Z 004507e0 f   item.obj
 0001:0004f800       ?set_value@Item_trigger_field@@EAE_NPAVTHD@@PAVsp_rcontext@@PAPAVItem@@@Z 00450800 f   item.obj
 0001:0004f880       ?fix_fields@Item_trigger_field@@UAE_NPAVTHD@@PAPAVItem@@@Z 00450880 f   item.obj
 0001:0004f990       ?print@Item_trigger_field@@UAEXPAVString@@W4enum_query_type@@@Z 00450990 f   item.obj
 0001:0004fa20       ?cleanup@Item_trigger_field@@UAEXXZ 00450a20 f   item.obj
 0001:0004fa40       ?item_cmp_type@@YA?AW4Item_result@@W41@0@Z 00450a40 f   item.obj
 0001:0004faa0       ?print@Item_cache@@UAEXPAVString@@W4enum_query_type@@@Z 00450aa0 f   item.obj
 0001:0004fb40       ?store@Item_cache_int@@UAEXPAVItem@@@Z 00450b40 f   item.obj
 0001:0004fb80       ?store@Item_cache_int@@QAEXPAVItem@@_J@Z 00450b80 f   item.obj
 0001:0004fbb0       ?val_str@Item_cache_int@@UAEPAVString@@PAV2@@Z 00450bb0 f   item.obj
 0001:0004fbe0       ?val_decimal@Item_cache_int@@UAEPAVmy_decimal@@PAV2@@Z 00450be0 f   item.obj
 0001:0004fc30       ?store@Item_cache_real@@UAEXPAVItem@@@Z 00450c30 f   item.obj
 0001:0004fc60       ?val_int@Item_cache_real@@UAE_JXZ 00450c60 f   item.obj
 0001:0004fcd0       ?val_str@Item_cache_real@@UAEPAVString@@PAV2@@Z 00450cd0 f   item.obj
 0001:0004fd10       ?val_decimal@Item_cache_real@@UAEPAVmy_decimal@@PAV2@@Z 00450d10 f   item.obj
 0001:0004fd40       ?store@Item_cache_decimal@@UAEXPAVItem@@@Z 00450d40 f   item.obj
 0001:0004fd90       ?val_real@Item_cache_decimal@@UAENXZ 00450d90 f   item.obj
 0001:0004fdb0       ?val_int@Item_cache_decimal@@UAE_JXZ 00450db0 f   item.obj
 0001:0004fde0       ?val_str@Item_cache_decimal@@UAEPAVString@@PAV2@@Z 00450de0 f   item.obj
 0001:0004fe30       ?val_decimal@Item_cache_decimal@@UAEPAVmy_decimal@@PAV2@@Z 00450e30 f   item.obj
 0001:0004fe40       ?val_real@Item_cache_str@@UAENXZ 00450e40 f   item.obj
 0001:0004fe90       ?val_int@Item_cache_str@@UAE_JXZ 00450e90 f   item.obj
 0001:0004fee0       ?val_decimal@Item_cache_str@@UAEPAVmy_decimal@@PAV2@@Z 00450ee0 f   item.obj
 0001:0004ff20       ?save_in_field@Item_cache_str@@UAEHPAVField@@_N@Z 00450f20 f   item.obj
 0001:0004ff80       ?allocate@Item_cache_row@@UAE_NI@Z 00450f80 f   item.obj
 0001:0004fff0       ?store@Item_cache_row@@UAEXPAVItem@@@Z 00450ff0 f   item.obj
 0001:00050070       ?illegal_method_call@Item_cache_row@@QAEXPBD@Z 00451070 f   item.obj
 0001:00050090       ?check_cols@Item_cache_row@@UAE_NI@Z 00451090 f   item.obj
 0001:000500c0       ?null_inside@Item_cache_row@@UAE_NXZ 004510c0 f   item.obj
 0001:00050140       ?bring_value@Item_cache_row@@UAEXXZ 00451140 f   item.obj
 0001:00050180       ?result_type@Item_type_holder@@UBE?AW4Item_result@@XZ 00451180 f   item.obj
 0001:00050190       ?get_real_type@Item_type_holder@@SA?AW4enum_field_types@@PAVItem@@@Z 00451190 f   item.obj
 0001:000502a0       ?display_length@Item_type_holder@@SAIPAVItem@@@Z 004512a0 f   item.obj
 0001:000504c0       ?get_full_info@Item_type_holder@@IAEXPAVItem@@@Z 004514c0 f   item.obj
 0001:00050540       ?val_real@Item_type_holder@@UAENXZ 00451540 f   item.obj
 0001:00050550       ?val_int@Item_type_holder@@UAE_JXZ 00451550 f   item.obj
 0001:00050560       ?val_decimal@Item_type_holder@@UAEPAVmy_decimal@@PAV2@@Z 00451560 f   item.obj
 0001:00050570       ?val_str@Item_type_holder@@UAEPAVString@@PAV2@@Z 00451570 f   item.obj
 0001:00050580       ?cleanup@Item_result_field@@UAEXXZ 00451580 f   item.obj
 0001:00050590       ?dummy_error_processor@@YAXPAVTHD@@PAX@Z 00451590 f   item.obj
 0001:000505a0       ?view_error_processor@@YAXPAVTHD@@PAX@Z 004515a0 f   item.obj
 0001:000505c0       ?push_front@?$List@VItem@@@@QAE_NPAVItem@@@Z 004515c0 f i item.obj
 0001:00050610       ?push_back@?$List@VItem_field@@@@QAE_NPAVItem_field@@@Z 00451610 f i item.obj
 0001:00050670       ?head@?$List@VItem_field@@@@QAEPAVItem_field@@XZ 00451670 f i item.obj
 0001:00050680       ?push_back@?$List@VItem_outer_ref@@@@QAE_NPAVItem_outer_ref@@@Z 00451680 f i item.obj
 0001:000506e0       ??E?$List_iterator@VItem_field@@@@QAEPAVItem_field@@H@Z 004516e0 f i item.obj
 0001:00050700       ??E?$List_iterator_fast@VItem_equal@@@@QAEPAVItem_equal@@H@Z 00451700 f i item.obj
 0001:00050720       ?set@String@@QAEXPADIPAUcharset_info_st@@@Z 00451720 f i item.obj
 0001:00050770       ??0Field_string@@QAE@I_NPBDPAUcharset_info_st@@@Z 00451770 f i item.obj
 0001:000507c0       ??0Field_blob@@QAE@I_NPBDPAUcharset_info_st@@@Z 004517c0 f i item.obj
 0001:00050830       ??0Field_blob@@QAE@I_NPBDPAUcharset_info_st@@0@Z 00451830 f i item.obj
 0001:00050910       ??0Field_geom@@QAE@I_NPBDPAUst_table_share@@W4geometry_type@Field@@@Z 00451910 f i item.obj
 0001:00050950       ??_GHybrid_type_traits_decimal@@UAEPAXI@Z 00451950 f i item.obj
 0001:00050950       ??_EHybrid_type_traits_decimal@@UAEPAXI@Z 00451950 f i item.obj
 0001:00050980       ??_GHybrid_type_traits_integer@@UAEPAXI@Z 00451980 f i item.obj
 0001:00050980       ??_EHybrid_type_traits_integer@@UAEPAXI@Z 00451980 f i item.obj
 0001:000509b0       ??1Item_hex_string@@UAE@XZ 004519b0 f i item.obj
 0001:000509f0       ??1Item_result_field@@UAE@XZ 004519f0 f i item.obj
 0001:00050a30       ??1Item_ident@@UAE@XZ      00451a30 f i item.obj
 0001:00050a70       ??1Item_ref@@UAE@XZ        00451a70 f i item.obj
 0001:00050ab0       ??1Item_direct_ref@@UAE@XZ 00451ab0 f i item.obj
 0001:00050af0       ??1Item_func@@UAE@XZ       00451af0 f i item.obj
 0001:00050b30       ?get_first@Item_equal@@QAEPAVItem_field@@XZ 00451b30 f i item.obj
 0001:00050b40       ??1Item_str_func@@UAE@XZ   00451b40 f i item.obj
 0001:00050b80       ??1Item_cache@@UAE@XZ      00451b80 f i item.obj
 0001:00050bc0       ??0Item@@QAE@XZ            00451bc0 f   item.obj
 0001:00050cb0       ??0Item@@QAE@PAVTHD@@PAV0@@Z 00451cb0 f   item.obj
 0001:00050d70       ??0Item_ident@@QAE@PAUName_resolution_context@@PBD11@Z 00451d70 f   item.obj
 0001:00050de0       ?change_context_processor@Item_ident@@UAE_NPAE@Z 00451de0 f i item.obj
 0001:00050df0       ??_GItem_ident@@UAEPAXI@Z  00451df0 f i item.obj
 0001:00050df0       ??_EItem_ident@@UAEPAXI@Z  00451df0 f i item.obj
 0001:00050e30       ??0Item_ident@@QAE@PAVTHD@@PAV0@@Z 00451e30 f   item.obj
 0001:00050eb0       ?get_date@Item@@UAE_NPAUst_mysql_time@@I@Z 00451eb0 f   item.obj
 0001:00051050       ?get_time@Item@@UAE_NPAUst_mysql_time@@@Z 00452050 f   item.obj
 0001:00051160       ??0Item_sp_variable@@QAE@PADI@Z 00452160 f   item.obj
 0001:000511a0       ?const_item@Item_sp_variable@@UBE_NXZ 004521a0 f i item.obj
 0001:000511b0       ?save_in_field@Item_sp_variable@@UAEHPAVField@@_N@Z 004521b0 f i item.obj
 0001:000511d0       ?send@Item_sp_variable@@UAE_NPAVProtocol@@PAVString@@@Z 004521d0 f i item.obj
 0001:000511f0       ?make_field@Item_sp_variable@@UAEXPAVSend_field@@@Z 004521f0 f i item.obj
 0001:00051270       ??1Item_sp_variable@@UAE@XZ 00452270 f i item.obj
 0001:000512b0       ?val_str@Item_sp_variable@@UAEPAVString@@PAV2@@Z 004522b0 f   item.obj
 0001:00051330       ??0Item_splocal@@QAE@ABUst_mysql_lex_string@@IW4enum_field_types@@II@Z 00452330 f   item.obj
 0001:000513b0       ?is_splocal@Item_splocal@@UAE_NXZ 004523b0 f i item.obj
 0001:000513c0       ?field_type@Item_splocal@@UBE?AW4enum_field_types@@XZ 004523c0 f i item.obj
 0001:000513d0       ?get_settable_routine_parameter@Item_splocal@@UAEPAVSettable_routine_parameter@@XZ 004523d0 f i item.obj
 0001:000513e0       ?type@Item_splocal@@UBE?AW4Type@Item@@XZ 004523e0 f i item.obj
 0001:000513f0       ?result_type@Item_splocal@@UBE?AW4Item_result@@XZ 004523f0 f i item.obj
 0001:00051400       ??_EItem_splocal@@WFI@AEPAXI@Z 00452400 f i item.obj
 0001:00051410       ??1Item_splocal@@UAE@XZ    00452410 f i item.obj
 0001:00051460       ??0Item_case_expr@@QAE@I@Z 00452460 f   item.obj
 0001:00051490       ?type@Item_case_expr@@UBE?AW4Type@Item@@XZ 00452490 f i item.obj
 0001:000514b0       ?result_type@Item_case_expr@@UBE?AW4Item_result@@XZ 004524b0 f i item.obj
 0001:000514d0       ??1Item_case_expr@@UAE@XZ  004524d0 f i item.obj
 0001:00051510       ??0Item_name_const@@QAE@PAVItem@@0@Z 00452510 f   item.obj
 0001:00051600       ?result_type@Item_name_const@@UBE?AW4Item_result@@XZ 00452600 f i item.obj
 0001:00051610       ?const_item@Item_name_const@@UBE_NXZ 00452610 f i item.obj
 0001:00051620       ?save_in_field@Item_name_const@@UAEHPAVField@@_N@Z 00452620 f i item.obj
 0001:00051630       ?send@Item_name_const@@UAE_NPAVProtocol@@PAVString@@@Z 00452630 f i item.obj
 0001:00051640       ??1Item_name_const@@UAE@XZ 00452640 f i item.obj
 0001:00051680       ?fix_fields@Item_name_const@@UAE_NPAVTHD@@PAPAVItem@@@Z 00452680 f   item.obj
 0001:00051830       ??0Item_field@@QAE@PAVField@@@Z 00452830 f   item.obj
 0001:000518a0       ?type@Item_field@@UBE?AW4Type@Item@@XZ 004528a0 f i item.obj
 0001:000518b0       ?result_type@Item_field@@UBE?AW4Item_result@@XZ 004528b0 f i item.obj
 0001:000518c0       ?cast_to_int_type@Item_field@@UBE?AW4Item_result@@XZ 004528c0 f i item.obj
 0001:000518d0       ?field_type@Item_field@@UBE?AW4enum_field_types@@XZ 004528d0 f i item.obj
 0001:000518e0       ?get_monotonicity_info@Item_field@@UBE?AW4monotonicity_info@@XZ 004528e0 f i item.obj
 0001:000518f0       ?get_tmp_table_field@Item_field@@UAEPAVField@@XZ 004528f0 f i item.obj
 0001:00051900       ?tmp_table_field@Item_field@@UAEPAVField@@PAUst_table@@@Z 00452900 f i item.obj
 0001:00051910       ?is_null@Item_field@@UAE_NXZ 00452910 f i item.obj
 0001:00051950       ?check_partition_func_processor@Item_field@@UAE_NPAE@Z 00452950 f i item.obj
 0001:00051960       ?result_as_longlong@Item_field@@UAE_NXZ 00452960 f i item.obj
 0001:00051970       ?filed_for_view_update@Item_field@@UAEPAV1@XZ 00452970 f i item.obj
 0001:00051980       ?get_geometry_type@Item_field@@UBE?AW4geometry_type@Field@@XZ 00452980 f i item.obj
 0001:00051990       ??1Item_field@@UAE@XZ      00452990 f i item.obj
 0001:000519d0       ??_EItem_field@@UAEPAXI@Z  004529d0 f i item.obj
 0001:000519d0       ??_GItem_field@@UAEPAXI@Z  004529d0 f i item.obj
 0001:00051a10       ??0Item_field@@QAE@PAVTHD@@PAUName_resolution_context@@PAVField@@@Z 00452a10 f   item.obj
 0001:00051af0       ??0Item_field@@QAE@PAUName_resolution_context@@PBD11@Z 00452af0 f   item.obj
 0001:00051ba0       ??0Item_field@@QAE@PAVTHD@@PAV0@@Z 00452ba0 f   item.obj
 0001:00051c20       ?get_tmp_table_item@Item_field@@UAEPAVItem@@PAVTHD@@@Z 00452c20 f   item.obj
 0001:00051c70       ?print@Item_string@@UAEXPAVString@@W4enum_query_type@@@Z 00452c70 f   item.obj
 0001:00051e80       ?get_time@Item_param@@UAE_NPAUst_mysql_time@@@Z 00452e80 f   item.obj
 0001:00051ec0       ?get_date@Item_param@@UAE_NPAUst_mysql_time@@I@Z 00452ec0 f   item.obj
 0001:00051f00       ?convert_str_value@Item_param@@QAE_NPAVTHD@@@Z 00452f00 f   item.obj
 0001:00052020       ?print@Item_param@@UAEXPAVString@@W4enum_query_type@@@Z 00453020 f   item.obj
 0001:00052130       ?replace_equal_field@Item_field@@UAEPAVItem@@PAE@Z 00453130 f   item.obj
 0001:000521a0       ?make_string_field@Item@@QAEPAVField@@PAUst_table@@@Z 004531a0 f   item.obj
 0001:000522c0       ?tmp_table_field_from_field_type@Item@@QAEPAVField@@PAUst_table@@_N@Z 004532c0 f   item.obj
 0001:000528d0       ?save_in_field@Item_uint@@UAEHPAVField@@_N@Z 004538d0 f   item.obj
 0001:000528e0       ?print@Item_float@@UAEXPAVString@@W4enum_query_type@@@Z 004538e0 f   item.obj
 0001:000529c0       ?print@Item_field@@UAEXPAVString@@W4enum_query_type@@@Z 004539c0 f   item.obj
 0001:00052b40       ??0Item_ref@@QAE@PAUName_resolution_context@@PAPAVItem@@PBD2_N@Z 00453b40 f   item.obj
 0001:00052bb0       ?type@Item_ref@@UBE?AW4Type@Item@@XZ 00453bb0 f i item.obj
 0001:00052bc0       ?eq@Item_ref@@UBE_NPBVItem@@_N@Z 00453bc0 f i item.obj
 0001:00052c10       ?result_type@Item_ref@@UBE?AW4Item_result@@XZ 00453c10 f i item.obj
 0001:00052c20       ?field_type@Item_ref@@UBE?AW4enum_field_types@@XZ 00453c20 f i item.obj
 0001:00052c30       ?get_tmp_table_field@Item_ref@@UAEPAVField@@XZ 00453c30 f i item.obj
 0001:00052c50       ?used_tables@Item_ref@@UBE_KXZ 00453c50 f i item.obj
 0001:00052c70       ?update_used_tables@Item_ref@@UAEXXZ 00453c70 f i item.obj
 0001:00052c90       ?not_null_tables@Item_ref@@UBE_KXZ 00453c90 f i item.obj
 0001:00052cb0       ?set_result_field@Item_ref@@UAEXPAVField@@@Z 00453cb0 f i item.obj
 0001:00052cc0       ?is_result_field@Item_ref@@UAE_NXZ 00453cc0 f i item.obj
 0001:00052cd0       ?save_in_result_field@Item_ref@@UAEX_N@Z 00453cd0 f i item.obj
 0001:00052d00       ?real_item@Item_ref@@UAEPAVItem@@XZ 00453d00 f i item.obj
 0001:00052d20       ?walk@Item_ref@@UAE_NP8Item@@AE_NPAE@Z_N0@Z 00453d20 f i item.obj
 0001:00052d40       ?result_as_longlong@Item_ref@@UAE_NXZ 00453d40 f i item.obj
 0001:00052d60       ?filed_for_view_update@Item_ref@@UAEPAVItem_field@@XZ 00453d60 f i item.obj
 0001:00052d80       ?ref_type@Item_ref@@UAE?AW4Ref_Type@1@XZ 00453d80 f i item.obj
 0001:00052d90       ?cols@Item_ref@@UAEIXZ     00453d90 f i item.obj
 0001:00052dd0       ?element_index@Item_ref@@UAEPAVItem@@I@Z 00453dd0 f i item.obj
 0001:00052e10       ?addr@Item_ref@@UAEPAPAVItem@@I@Z 00453e10 f i item.obj
 0001:00052e50       ?null_inside@Item_ref@@UAE_NXZ 00453e50 f i item.obj
 0001:00052e90       ?bring_value@Item_ref@@UAEXXZ 00453e90 f i item.obj
 0001:00052ec0       ?check_cols@Item_ref@@UAE_NI@Z 00453ec0 f i item.obj
 0001:00052f10       ?fix_fields@Item_ref@@UAE_NPAVTHD@@PAPAVItem@@@Z 00453f10 f   item.obj
 0001:00053460       ?get_tmp_table_item@Item_ref@@UAEPAVItem@@PAVTHD@@@Z 00454460 f   item.obj
 0001:000534d0       ?fix_fields@Item_direct_view_ref@@UAE_NPAVTHD@@PAPAVItem@@@Z 004544d0 f   item.obj
 0001:00053520       ?fix_fields@Item_outer_ref@@UAE_NPAVTHD@@PAPAVItem@@@Z 00454520 f   item.obj
 0001:000535c0       ?save_in_field@Item_default_value@@UAEHPAVField@@_N@Z 004545c0 f   item.obj
 0001:00053700       ?field_is_equal_to_item@@YA_NPAVField@@PAVItem@@@Z 00454700 f   item.obj
 0001:00053990       ?store@Item_cache_str@@UAEXPAVItem@@@Z 00454990 f   item.obj
 0001:00053a60       ??0Item_type_holder@@QAE@PAVTHD@@PAVItem@@@Z 00454a60 f   item.obj
 0001:00053b30       ?field_type@Item_type_holder@@UBE?AW4enum_field_types@@XZ 00454b30 f i item.obj
 0001:00053b40       ?type@Item_type_holder@@UBE?AW4Type@Item@@XZ 00454b40 f i item.obj
 0001:00053b50       ?get_geometry_type@Item_type_holder@@UBE?AW4geometry_type@Field@@XZ 00454b50 f i item.obj
 0001:00053b60       ??1Item_type_holder@@UAE@XZ 00454b60 f i item.obj
 0001:00053ba0       ?join_types@Item_type_holder@@QAE_NPAVTHD@@PAVItem@@@Z 00454ba0 f   item.obj
 0001:00053f10       ?make_field_by_type@Item_type_holder@@QAEPAVField@@PAUst_table@@@Z 00454f10 f   item.obj
 0001:00054050       ??0?$List_iterator@VItem_field@@@@QAE@AAV?$List@VItem_field@@@@@Z 00455050 f i item.obj
 0001:00054070       ??0?$List_iterator_fast@VItem_equal@@@@QAE@AAV?$List@VItem_equal@@@@@Z 00455070 f i item.obj
 0001:00054090       ??0Item_null@@QAE@PAD@Z    00455090 f i item.obj
 0001:00054100       ?type@Item_null@@UBE?AW4Type@Item@@XZ 00455100 f i item.obj
 0001:00054110       ?result_type@Item_null@@UBE?AW4Item_result@@XZ 00455110 f i item.obj
 0001:00054120       ?field_type@Item_null@@UBE?AW4enum_field_types@@XZ 00455120 f i item.obj
 0001:00054130       ?basic_const_item@Item_null@@UBE_NXZ 00455130 f i item.obj
 0001:00054140       ?is_null@Item_null@@UAE_NXZ 00455140 f i item.obj
 0001:00054150       ?print@Item_null@@UAEXPAVString@@W4enum_query_type@@@Z 00455150 f i item.obj
 0001:00054170       ?check_partition_func_processor@Item_null@@UAE_NPAE@Z 00455170 f i item.obj
 0001:00054180       ??1Item_null@@UAE@XZ       00455180 f i item.obj
 0001:000541c0       ?clone_item@Item_null@@UAEPAVItem@@XZ 004551c0 f i item.obj
 0001:000541f0       ??_EItem_null@@UAEPAXI@Z   004551f0 f i item.obj
 0001:000541f0       ??_GItem_null@@UAEPAXI@Z   004551f0 f i item.obj
 0001:00054230       ??0Item_static_string_func@@QAE@PBD0IPAUcharset_info_st@@W4Derivation@@@Z 00455230 f i item.obj
 0001:00054280       ?print@Item_static_string_func@@UAEXPAVString@@W4enum_query_type@@@Z 00455280 f i item.obj
 0001:000542a0       ?check_partition_func_processor@Item_static_string_func@@UAE_NPAE@Z 004552a0 f i item.obj
 0001:000542b0       ??1Item_static_string_func@@UAE@XZ 004552b0 f i item.obj
 0001:000542f0       ??_EItem_static_string_func@@UAEPAXI@Z 004552f0 f i item.obj
 0001:000542f0       ??_GItem_static_string_func@@UAEPAXI@Z 004552f0 f i item.obj
 0001:00054330       ??0Item_hex_string@@QAE@XZ 00455330 f i item.obj
 0001:00054350       ?type@Item_hex_string@@UBE?AW4Type@Item@@XZ 00455350 f i item.obj
 0001:00054360       ?basic_const_item@Item_hex_string@@UBE_NXZ 00455360 f i item.obj
 0001:00054370       ?val_str@Item_hex_string@@UAEPAVString@@PAV2@@Z 00455370 f i item.obj
 0001:00054380       ?result_type@Item_hex_string@@UBE?AW4Item_result@@XZ 00455380 f i item.obj
 0001:00054390       ?cast_to_int_type@Item_hex_string@@UBE?AW4Item_result@@XZ 00455390 f i item.obj
 0001:000543a0       ?field_type@Item_hex_string@@UBE?AW4enum_field_types@@XZ 004553a0 f i item.obj
 0001:000543b0       ?check_partition_func_processor@Item_hex_string@@UAE_NPAE@Z 004553b0 f i item.obj
 0001:000543c0       ?val_real@Item_hex_string@@UAENXZ 004553c0 f i item.obj
 0001:00054410       ??_EItem_hex_string@@UAEPAXI@Z 00455410 f i item.obj
 0001:00054410       ??_GItem_hex_string@@UAEPAXI@Z 00455410 f i item.obj
 0001:00054450       ??0Item_result_field@@QAE@XZ 00455450 f i item.obj
 0001:00054470       ?get_tmp_table_field@Item_result_field@@UAEPAVField@@XZ 00455470 f i item.obj
 0001:00054480       ?tmp_table_field@Item_result_field@@UAEPAVField@@PAUst_table@@@Z 00455480 f i item.obj
 0001:00054490       ?used_tables@Item_result_field@@UBE_KXZ 00455490 f i item.obj
 0001:000544a0       ?set_result_field@Item_result_field@@UAEXPAVField@@@Z 004554a0 f i item.obj
 0001:000544b0       ?is_result_field@Item_result_field@@UAE_NXZ 004554b0 f i item.obj
 0001:000544c0       ?save_in_result_field@Item_result_field@@UAEX_N@Z 004554c0 f i item.obj
 0001:000544e0       ??_GItem_result_field@@UAEPAXI@Z 004554e0 f i item.obj
 0001:000544e0       ??_EItem_result_field@@UAEPAXI@Z 004554e0 f i item.obj
 0001:00054520       ??0Item_ref@@QAE@PAUName_resolution_context@@PBD11@Z 00455520 f i item.obj
 0001:00054560       ??_EItem_ref@@UAEPAXI@Z    00455560 f i item.obj
 0001:00054560       ??_GItem_ref@@UAEPAXI@Z    00455560 f i item.obj
 0001:000545a0       ??0Item_direct_ref@@QAE@PAUName_resolution_context@@PAPAVItem@@PBD2_N@Z 004555a0 f i item.obj
 0001:000545e0       ?ref_type@Item_direct_ref@@UAE?AW4Ref_Type@Item_ref@@XZ 004555e0 f i item.obj
 0001:000545f0       ??_EItem_direct_ref@@UAEPAXI@Z 004555f0 f i item.obj
 0001:000545f0       ??_GItem_direct_ref@@UAEPAXI@Z 004555f0 f i item.obj
 0001:00054630       ??0Item_outer_ref@@QAE@PAUName_resolution_context@@PAVItem_field@@@Z 00455630 f i item.obj
 0001:000546a0       ?save_in_result_field@Item_outer_ref@@UAEX_N@Z 004556a0 f i item.obj
 0001:000546c0       ?used_tables@Item_outer_ref@@UBE_KXZ 004556c0 f i item.obj
 0001:000546f0       ?ref_type@Item_outer_ref@@UAE?AW4Ref_Type@Item_ref@@XZ 004556f0 f i item.obj
 0001:00054700       ??1Item_outer_ref@@UAE@XZ  00455700 f i item.obj
 0001:00054740       ??0Item_outer_ref@@QAE@PAUName_resolution_context@@PAPAVItem@@PBD2_N@Z 00455740 f i item.obj
 0001:000547a0       ??_GItem_outer_ref@@UAEPAXI@Z 004557a0 f i item.obj
 0001:000547a0       ??_EItem_outer_ref@@UAEPAXI@Z 004557a0 f i item.obj
 0001:000547e0       ??0Item_func@@QAE@PAVItem@@@Z 004557e0 f i item.obj
 0001:00054830       ?type@Item_func@@UBE?AW4Type@Item@@XZ 00455830 f i item.obj
 0001:00054840       ?functype@Item_func@@UBE?AW4Functype@1@XZ 00455840 f i item.obj
 0001:00054850       ?select_optimize@Item_func@@UBE?AW4optimize_type@1@XZ 00455850 f i item.obj
 0001:00054860       ?have_rev_func@Item_func@@UBE_NXZ 00455860 f i item.obj
 0001:00054870       ?key_item@Item_func@@UBEPAVItem@@XZ 00455870 f i item.obj
 0001:00054880       ?const_item@Item_func@@UBE_NXZ 00455880 f i item.obj
 0001:00054890       ?is_null@Item_func@@UAE_NXZ 00455890 f i item.obj
 0001:000548b0       ?is_expensive@Item_func@@UAE_NXZ 004558b0 f i item.obj
 0001:000548c0       ??_EItem_func@@UAEPAXI@Z   004558c0 f i item.obj
 0001:000548c0       ??_GItem_func@@UAEPAXI@Z   004558c0 f i item.obj
 0001:00054900       ??0Item_str_func@@QAE@PAVItem@@@Z 00455900 f i item.obj
 0001:00054960       ?result_type@Item_str_func@@UBE?AW4Item_result@@XZ 00455960 f i item.obj
 0001:00054970       ??_EItem_str_func@@UAEPAXI@Z 00455970 f i item.obj
 0001:00054970       ??_GItem_str_func@@UAEPAXI@Z 00455970 f i item.obj
 0001:000549b0       ??0Item_func_conv_charset@@QAE@PAVItem@@PAUcharset_info_st@@_N@Z 004559b0 f i item.obj
 0001:00054b40       ?func_name@Item_func_conv_charset@@UBEPBDXZ 00455b40 f i item.obj
 0001:00054b50       ??1Item_func_conv_charset@@UAE@XZ 00455b50 f i item.obj
 0001:00054b90       ??_GItem_func_conv_charset@@UAEPAXI@Z 00455b90 f i item.obj
 0001:00054b90       ??_EItem_func_conv_charset@@UAEPAXI@Z 00455b90 f i item.obj
 0001:00054bd0       ??0Item_cache@@QAE@XZ      00455bd0 f i item.obj
 0001:00054c10       ?allocate@Item_cache@@UAE_NI@Z 00455c10 f i item.obj
 0001:00054c20       ?setup@Item_cache@@UAE_NPAVItem@@@Z 00455c20 f i item.obj
 0001:00054c80       ?type@Item_cache@@UBE?AW4Type@Item@@XZ 00455c80 f i item.obj
 0001:00054c90       ?field_type@Item_cache@@UBE?AW4enum_field_types@@XZ 00455c90 f i item.obj
 0001:00054ca0       ?used_tables@Item_cache@@UBE_KXZ 00455ca0 f i item.obj
 0001:00054cb0       ?keep_array@Item_cache@@UAEXXZ 00455cb0 f i item.obj
 0001:00054cc0       ?eq@Item_cache@@UBE_NPBVItem@@_N@Z 00455cc0 f i item.obj
 0001:00054cd0       ??_GItem_cache@@UAEPAXI@Z  00455cd0 f i item.obj
 0001:00054cd0       ??_EItem_cache@@UAEPAXI@Z  00455cd0 f i item.obj
 0001:00054d10       ??0Item_cache_int@@QAE@XZ  00455d10 f i item.obj
 0001:00054d60       ?val_real@Item_cache_int@@UAENXZ 00455d60 f i item.obj
 0001:00054d70       ?val_int@Item_cache_int@@UAE_JXZ 00455d70 f i item.obj
 0001:00054d80       ?result_type@Item_cache_int@@UBE?AW4Item_result@@XZ 00455d80 f i item.obj
 0001:00054d90       ?result_as_longlong@Item_cache_int@@UAE_NXZ 00455d90 f i item.obj
 0001:00054da0       ??1Item_cache_int@@UAE@XZ  00455da0 f i item.obj
 0001:00054de0       ??_GItem_cache_int@@UAEPAXI@Z 00455de0 f i item.obj
 0001:00054de0       ??_EItem_cache_int@@UAEPAXI@Z 00455de0 f i item.obj
 0001:00054e20       ??0Item_cache_real@@QAE@XZ 00455e20 f i item.obj
 0001:00054e70       ?val_real@Item_cache_real@@UAENXZ 00455e70 f i item.obj
 0001:00054e80       ?result_type@Item_cache_real@@UBE?AW4Item_result@@XZ 00455e80 f i item.obj
 0001:00054e90       ??1Item_cache_real@@UAE@XZ 00455e90 f i item.obj
 0001:00054ed0       ??_GItem_cache_real@@UAEPAXI@Z 00455ed0 f i item.obj
 0001:00054ed0       ??_EItem_cache_real@@UAEPAXI@Z 00455ed0 f i item.obj
 0001:00054f10       ??0Item_cache_decimal@@QAE@XZ 00455f10 f i item.obj
 0001:00054f60       ?result_type@Item_cache_decimal@@UBE?AW4Item_result@@XZ 00455f60 f i item.obj
 0001:00054f70       ??1Item_cache_decimal@@UAE@XZ 00455f70 f i item.obj
 0001:00054fb0       ??_GItem_cache_decimal@@UAEPAXI@Z 00455fb0 f i item.obj
 0001:00054fb0       ??_EItem_cache_decimal@@UAEPAXI@Z 00455fb0 f i item.obj
 0001:00054ff0       ??0Item_cache_str@@QAE@PBVItem@@@Z 00455ff0 f i item.obj
 0001:000550d0       ?val_str@Item_cache_str@@UAEPAVString@@PAV2@@Z 004560d0 f i item.obj
 0001:000550e0       ?result_type@Item_cache_str@@UBE?AW4Item_result@@XZ 004560e0 f i item.obj
 0001:000550f0       ??1Item_cache_str@@UAE@XZ  004560f0 f i item.obj
 0001:00055170       ??_GItem_cache_str@@UAEPAXI@Z 00456170 f i item.obj
 0001:00055170       ??_EItem_cache_str@@UAEPAXI@Z 00456170 f i item.obj
 0001:00055190       ??0Item_cache_row@@QAE@XZ  00456190 f i item.obj
 0001:000551e0       ?result_type@Item_cache_row@@UBE?AW4Item_result@@XZ 004561e0 f i item.obj
 0001:000551f0       ?cols@Item_cache_row@@UAEIXZ 004561f0 f i item.obj
 0001:00055200       ?element_index@Item_cache_row@@UAEPAVItem@@I@Z 00456200 f i item.obj
 0001:00055210       ?addr@Item_cache_row@@UAEPAPAVItem@@I@Z 00456210 f i item.obj
 0001:00055220       ?keep_array@Item_cache_row@@UAEXXZ 00456220 f i item.obj
 0001:00055230       ?cleanup@Item_cache_row@@UAEXXZ 00456230 f i item.obj
 0001:00055270       ?make_field@Item_cache_row@@UAEXPAVSend_field@@@Z 00456270 f i item.obj
 0001:00055280       ?val_real@Item_cache_row@@UAENXZ 00456280 f i item.obj
 0001:00055290       ?val_int@Item_cache_row@@UAE_JXZ 00456290 f i item.obj
 0001:000552b0       ?val_str@Item_cache_row@@UAEPAVString@@PAV2@@Z 004562b0 f i item.obj
 0001:000552d0       ?val_decimal@Item_cache_row@@UAEPAVmy_decimal@@PAV2@@Z 004562d0 f i item.obj
 0001:000552f0       ??1Item_cache_row@@UAE@XZ  004562f0 f i item.obj
 0001:00055330       ??_GItem_cache_row@@UAEPAXI@Z 00456330 f i item.obj
 0001:00055330       ??_EItem_cache_row@@UAEPAXI@Z 00456330 f i item.obj
 0001:00055370       ?collect_item_field_processor@Item_field@@UAE_NPAE@Z 00456370 f   item.obj
 0001:000553f0       ?safe_charset_converter@Item@@UAEPAV1@PAUcharset_info_st@@@Z 004563f0 f   item.obj
 0001:00055450       ?safe_charset_converter@Item_num@@UAEPAVItem@@PAUcharset_info_st@@@Z 00456450 f   item.obj
 0001:00055530       ?safe_charset_converter@Item_static_float_func@@UAEPAVItem@@PAUcharset_info_st@@@Z 00456530 f   item.obj
 0001:00055620       ?safe_charset_converter@Item_string@@UAEPAVItem@@PAUcharset_info_st@@@Z 00456620 f   item.obj
 0001:000557e0       ?safe_charset_converter@Item_static_string_func@@UAEPAVItem@@PAUcharset_info_st@@@Z 004567e0 f   item.obj
 0001:00055980       ??_EItem_sp_variable@@UAEPAXI@Z 00456980 f i item.obj
 0001:00055980       ??_GItem_sp_variable@@UAEPAXI@Z 00456980 f i item.obj
 0001:000559c0       ??_EItem_splocal@@UAEPAXI@Z 004569c0 f i item.obj
 0001:000559c0       ??_GItem_splocal@@UAEPAXI@Z 004569c0 f i item.obj
 0001:00055a20       ??_EItem_case_expr@@UAEPAXI@Z 00456a20 f i item.obj
 0001:00055a20       ??_GItem_case_expr@@UAEPAXI@Z 00456a20 f i item.obj
 0001:00055a60       ??_EItem_name_const@@UAEPAXI@Z 00456a60 f i item.obj
 0001:00055a60       ??_GItem_name_const@@UAEPAXI@Z 00456a60 f i item.obj
 0001:00055aa0       ??0Item_aggregate_ref@@QAE@PAUName_resolution_context@@PAPAVItem@@PBD2@Z 00456aa0 f i item.obj
 0001:00055ae0       ?ref_type@Item_aggregate_ref@@UAE?AW4Ref_Type@Item_ref@@XZ 00456ae0 f i item.obj
 0001:00055af0       ?print@Item_aggregate_ref@@UAEXPAVString@@W4enum_query_type@@@Z 00456af0 f i item.obj
 0001:00055b10       ??1Item_aggregate_ref@@UAE@XZ 00456b10 f i item.obj
 0001:00055b50       ??_GItem_aggregate_ref@@UAEPAXI@Z 00456b50 f i item.obj
 0001:00055b50       ??_EItem_aggregate_ref@@UAEPAXI@Z 00456b50 f i item.obj
 0001:00055b90       ?split_sum_func2@Item@@QAEXPAVTHD@@PAPAV1@AAV?$List@VItem@@@@1_N@Z 00456b90 f   item.obj
 0001:00055d60       ?agg_item_charsets@@YA_NAAVDTCollation@@PBDPAPAVItem@@IIH@Z 00456d60 f   item.obj
 0001:00055fc0       ??0Item_param@@QAE@I@Z     00456fc0 f   item.obj
 0001:00056150       ?result_type@Item_param@@UBE?AW4Item_result@@XZ 00457150 f i item.obj
 0001:00056160       ?type@Item_param@@UBE?AW4Type@Item@@XZ 00457160 f i item.obj
 0001:00056170       ?field_type@Item_param@@UBE?AW4enum_field_types@@XZ 00457170 f i item.obj
 0001:00056180       ?used_tables@Item_param@@UBE_KXZ 00457180 f i item.obj
 0001:000561a0       ?is_null@Item_param@@UAE_NXZ 004571a0 f i item.obj
 0001:000561b0       ??1Item_param@@UAE@XZ      004571b0 f i item.obj
 0001:00056260       ??_GItem_param@@UAEPAXI@Z  00457260 f i item.obj
 0001:00056260       ??_EItem_param@@UAEPAXI@Z  00457260 f i item.obj
 0001:00056280       ?fix_outer_field@Item_field@@QAEHPAVTHD@@PAPAVField@@PAPAVItem@@@Z 00457280 f   item.obj
 0001:00056a30       ?fix_fields@Item_field@@UAE_NPAVTHD@@PAPAVItem@@@Z 00457a30 f   item.obj
 0001:00056f80       ?safe_charset_converter@Item_field@@UAEPAVItem@@PAUcharset_info_st@@@Z 00457f80 f   item.obj
 0001:00056f90       ?find_item_equal@Item_field@@QAEPAVItem_equal@@PAVCOND_EQUAL@@@Z 00457f90 f   item.obj
 0001:000571b0       ?equal_fields_propagator@Item_field@@UAEPAVItem@@PAE@Z 004581b0 f   item.obj
 0001:000572b0       ??0Item_hex_string@@QAE@PBDI@Z 004582b0 f   item.obj
 0001:00057460       ?safe_charset_converter@Item_hex_string@@UAEPAVItem@@PAUcharset_info_st@@@Z 00458460 f   item.obj
 0001:00057540       ??0Item_bin_string@@QAE@PBDI@Z 00458540 f   item.obj
 0001:00057690       ??1Item_bin_string@@UAE@XZ 00458690 f i item.obj
 0001:000576d0       ??_EItem_bin_string@@UAEPAXI@Z 004586d0 f i item.obj
 0001:000576d0       ??_GItem_bin_string@@UAEPAXI@Z 004586d0 f i item.obj
 0001:00057710       ?update_value_transformer@Item_field@@UAEPAVItem@@PAE@Z 00458710 f   item.obj
 0001:000577f0       ?get_cache@Item_cache@@SAPAV1@PBVItem@@@Z 004587f0 f   item.obj
 0001:000578d0       ?setup@Item_cache_row@@UAE_NPAVItem@@@Z 004588d0 f   item.obj
 0001:00057990       ??_GItem_type_holder@@UAEPAXI@Z 00458990 f i item.obj
 0001:00057990       ??_EItem_type_holder@@UAEPAXI@Z 00458990 f i item.obj
 0001:000579d0       ??0Item_float@@QAE@PBDNII@Z 004589d0 f i item.obj
 0001:00057a20       ?type@Item_float@@UBE?AW4Type@Item@@XZ 00458a20 f i item.obj
 0001:00057a30       ?field_type@Item_float@@UBE?AW4enum_field_types@@XZ 00458a30 f i item.obj
 0001:00057a40       ?val_real@Item_float@@UAENXZ 00458a40 f i item.obj
 0001:00057a50       ?val_int@Item_float@@UAE_JXZ 00458a50 f i item.obj
 0001:00057ab0       ?basic_const_item@Item_float@@UBE_NXZ 00458ab0 f i item.obj
 0001:00057ac0       ?neg@Item_float@@UAEPAVItem_num@@XZ 00458ac0 f i item.obj
 0001:00057ad0       ??1Item_float@@UAE@XZ      00458ad0 f i item.obj
 0001:00057b10       ??_EItem_float@@UAEPAXI@Z  00458b10 f i item.obj
 0001:00057b10       ??_GItem_float@@UAEPAXI@Z  00458b10 f i item.obj
 0001:00057b50       ?clone_item@Item_float@@UAEPAVItem@@XZ 00458b50 f i item.obj
 0001:00057bc0       ??0Item_int@@QAE@PBDI@Z    00458bc0 f   item.obj
 0001:00057c30       ??0Item_uint@@QAE@PBDI@Z   00458c30 f   item.obj
 0001:00057c60       ?val_real@Item_uint@@UAENXZ 00458c60 f i item.obj
 0001:00057ca0       ?decimal_precision@Item_uint@@UBEIXZ 00458ca0 f i item.obj
 0001:00057cb0       ?check_partition_func_processor@Item_uint@@UAE_NPAE@Z 00458cb0 f i item.obj
 0001:00057cc0       ??1Item_uint@@UAE@XZ       00458cc0 f i item.obj
 0001:00057d00       ??_GItem_uint@@UAEPAXI@Z   00458d00 f i item.obj
 0001:00057d00       ??_EItem_uint@@UAEPAXI@Z   00458d00 f i item.obj
 0001:00057d40       ??0Item_uint@@QAE@PBD_JI@Z 00458d40 f   item.obj
 0001:00057d90       ??0Item_decimal@@QAE@PBDIPAUcharset_info_st@@@Z 00458d90 f   item.obj
 0001:00057e30       ?my_decimal_neg@@YAXPAUst_decimal_t@@@Z 00458e30 f i item.obj
 0001:00057e60       ?type@Item_decimal@@UBE?AW4Type@Item@@XZ 00458e60 f i item.obj
 0001:00057e70       ?result_type@Item_decimal@@UBE?AW4Item_result@@XZ 00458e70 f i item.obj
 0001:00057e80       ?field_type@Item_decimal@@UBE?AW4enum_field_types@@XZ 00458e80 f i item.obj
 0001:00057e90       ?val_decimal@Item_decimal@@UAEPAVmy_decimal@@PAV2@@Z 00458e90 f i item.obj
 0001:00057ea0       ?basic_const_item@Item_decimal@@UBE_NXZ 00458ea0 f i item.obj
 0001:00057eb0       ?neg@Item_decimal@@UAEPAVItem_num@@XZ 00458eb0 f i item.obj
 0001:00057f00       ?decimal_precision@Item_decimal@@UBEIXZ 00458f00 f i item.obj
 0001:00057f10       ?check_partition_func_processor@Item_decimal@@UAE_NPAE@Z 00458f10 f i item.obj
 0001:00057f20       ??1Item_decimal@@UAE@XZ    00458f20 f i item.obj
 0001:00057f60       ??_GItem_decimal@@UAEPAXI@Z 00458f60 f i item.obj
 0001:00057f60       ??_EItem_decimal@@UAEPAXI@Z 00458f60 f i item.obj
 0001:00057fa0       ??0Item_decimal@@QAE@_J_N@Z 00458fa0 f   item.obj
 0001:00058060       ??0Item_decimal@@QAE@NHH@Z 00459060 f   item.obj
 0001:00058100       ??0Item_decimal@@QAE@PBDPBVmy_decimal@@II@Z 00459100 f   item.obj
 0001:00058170       ??0Item_decimal@@QAE@PAVmy_decimal@@@Z 00459170 f   item.obj
 0001:00058210       ??0Item_decimal@@QAE@PBEHH@Z 00459210 f   item.obj
 0001:000582c0       ?clone_item@Item_param@@UAEPAVItem@@XZ 004592c0 f   item.obj
 0001:00058440       ?clone_item@Item_int_with_ref@@UAEPAVItem@@XZ 00459440 f   item.obj
 0001:00058510       ?neg@Item_uint@@UAEPAVItem_num@@XZ 00459510 f   item.obj
 0001:00058560       ??0Item_float@@QAE@PBDI@Z  00459560 f   item.obj
 0001:00058600       ?resolve_const_item@@YAXPAVTHD@@PAPAVItem@@PAV2@@Z 00459600 f   item.obj
 0001:000589b0       ?clone_item@Item_uint@@UAEPAVItem@@XZ 004599b0 f i item.obj
 0001:000589f0       ?clone_item@Item_decimal@@UAEPAVItem@@XZ 004599f0 f i item.obj
 0001:00058a30       ??0String@@QAE@I@Z         00459a30 f i item_buff.obj
 0001:00058a60       ?cmp@Field@@QAEHPBE@Z      00459a60 f i item_buff.obj
 0001:00058a80       ??0Cached_item@@QAE@XZ     00459a80 f i item_buff.obj
 0001:00058a90       ??1Cached_item@@UAE@XZ     00459a90 f   item_buff.obj
 0001:00058aa0       ?cmp@Cached_item_str@@UAE_NXZ 00459aa0 f   item_buff.obj
 0001:00058b50       ?cmp@Cached_item_real@@UAE_NXZ 00459b50 f   item_buff.obj
 0001:00058ba0       ?cmp@Cached_item_int@@UAE_NXZ 00459ba0 f   item_buff.obj
 0001:00058be0       ?cmp@Cached_item_field@@UAE_NXZ 00459be0 f   item_buff.obj
 0001:00058c90       ??0Cached_item_decimal@@QAE@PAVItem@@@Z 00459c90 f   item_buff.obj
 0001:00058cd0       ??1Cached_item_decimal@@UAE@XZ 00459cd0 f i item_buff.obj
 0001:00058ce0       ?cmp@Cached_item_decimal@@UAE_NXZ 00459ce0 f   item_buff.obj
 0001:00058d80       ??_ECached_item@@UAEPAXI@Z 00459d80 f i item_buff.obj
 0001:00058d80       ??_GCached_item@@UAEPAXI@Z 00459d80 f i item_buff.obj
 0001:00058d90       ??0Cached_item_real@@QAE@PAVItem@@@Z 00459d90 f i item_buff.obj
 0001:00058dc0       ??1Cached_item_real@@UAE@XZ 00459dc0 f i item_buff.obj
 0001:00058dd0       ??0Cached_item_int@@QAE@PAVItem@@@Z 00459dd0 f i item_buff.obj
 0001:00058e00       ??1Cached_item_int@@UAE@XZ 00459e00 f i item_buff.obj
 0001:00058e10       ??0Cached_item_field@@QAE@PAVItem_field@@@Z 00459e10 f i item_buff.obj
 0001:00058e50       ??1Cached_item_field@@UAE@XZ 00459e50 f i item_buff.obj
 0001:00058e60       ??0Cached_item_str@@QAE@PAVTHD@@PAVItem@@@Z 00459e60 f   item_buff.obj
 0001:00058ed0       ??1Cached_item_str@@UAE@XZ 00459ed0 f   item_buff.obj
 0001:00058f40       ??_ECached_item_decimal@@UAEPAXI@Z 00459f40 f i item_buff.obj
 0001:00058f40       ??_GCached_item_decimal@@UAEPAXI@Z 00459f40 f i item_buff.obj
 0001:00058f50       ??_GCached_item_real@@UAEPAXI@Z 00459f50 f i item_buff.obj
 0001:00058f50       ??_ECached_item_real@@UAEPAXI@Z 00459f50 f i item_buff.obj
 0001:00058f60       ??_GCached_item_int@@UAEPAXI@Z 00459f60 f i item_buff.obj
 0001:00058f60       ??_ECached_item_int@@UAEPAXI@Z 00459f60 f i item_buff.obj
 0001:00058f70       ??_GCached_item_field@@UAEPAXI@Z 00459f70 f i item_buff.obj
 0001:00058f70       ??_ECached_item_field@@UAEPAXI@Z 00459f70 f i item_buff.obj
 0001:00058f80       ?new_Cached_item@@YAPAVCached_item@@PAVTHD@@PAVItem@@@Z 00459f80 f   item_buff.obj
 0001:000590e0       ??_GCached_item_str@@UAEPAXI@Z 0045a0e0 f i item_buff.obj
 0001:000590e0       ??_ECached_item_str@@UAEPAXI@Z 0045a0e0 f i item_buff.obj
 0001:00059100       ??4String@@QAEAAV0@ABV0@@Z 0045a100 f i item_cmpfunc.obj
 0001:00059160       ?uses_buffer_owned_by@String@@QBE_NPBV1@@Z 0045a160 f i item_cmpfunc.obj
 0001:000591a0       ??_USql_alloc@@SAPAXI@Z    0045a1a0 f i item_cmpfunc.obj
 0001:000591b0       ??_VSql_alloc@@SAXPAXI@Z   0045a1b0 f i item_cmpfunc.obj
 0001:000591c0       ??0base_list@@QAE@ABV0@@Z  0045a1c0 f i item_cmpfunc.obj
 0001:000591f0       ?is_empty@base_list@@QAE_NXZ 0045a1f0 f i item_cmpfunc.obj
 0001:00059200       ??1list_node@@QAE@XZ       0045a200 f i item_cmpfunc.obj
 0001:00059210       ?replace@base_list_iterator@@QAEPAXPAX@Z 0045a210 f i item_cmpfunc.obj
 0001:00059230       ?replace@base_list_iterator@@QAEPAXAAVbase_list@@@Z 0045a230 f i item_cmpfunc.obj
 0001:000592a0       ?ref@base_list_iterator@@QAEPAPAXXZ 0045a2a0 f i item_cmpfunc.obj
 0001:000592d0       ??0DTCollation@@QAE@XZ     0045a2d0 f i item_cmpfunc.obj
 0001:000592f0       ?set@DTCollation@@QAE_NAAV1@0I@Z 0045a2f0 f i item_cmpfunc.obj
 0001:00059320       ?quick_fix_field@Item@@QAEXXZ 0045a320 f i item_cmpfunc.obj
 0001:00059330       ??1?$List@VItem_field@@@@QAE@XZ 0045a330 f i item_cmpfunc.obj
 0001:00059340       ?any_value@Item_sum_hybrid@@QAE_NXZ 0045a340 f i item_cmpfunc.obj
 0001:00059350       ?arguments@Item_func@@QBEPAPAVItem@@XZ 0045a350 f i item_cmpfunc.obj
 0001:00059360       ?agg_arg_charsets@Item_func@@QAE_NAAVDTCollation@@PAPAVItem@@IIH@Z 0045a360 f i item_cmpfunc.obj
 0001:000593a0       ??0Arg_comparator@@QAE@XZ  0045a3a0 f i item_cmpfunc.obj
 0001:000593d0       ??0Arg_comparator@@QAE@PAPAVItem@@0@Z 0045a3d0 f i item_cmpfunc.obj
 0001:00059410       ?compare@Arg_comparator@@QAEHXZ 0045a410 f i item_cmpfunc.obj
 0001:00059420       ??1Arg_comparator@@QAE@XZ  0045a420 f i item_cmpfunc.obj
 0001:00059430       ??0in_vector@@QAE@XZ       0045a430 f i item_cmpfunc.obj
 0001:00059440       ??0in_vector@@QAE@IIP6AHPBX00@ZPAUcharset_info_st@@@Z 0045a440 f i item_cmpfunc.obj
 0001:000594a0       ??1in_vector@@UAE@XZ       0045a4a0 f i item_cmpfunc.obj
 0001:000594b0       ?sort@in_vector@@QAEXXZ    0045a4b0 f i item_cmpfunc.obj
 0001:000594e0       ?create_item@in_vector@@UAEPAVItem@@XZ 0045a4e0 f i item_cmpfunc.obj
 0001:000594f0       ?value_to_item@in_vector@@UAEXIPAVItem@@@Z 0045a4f0 f i item_cmpfunc.obj
 0001:00059500       ??_Ein_vector@@UAEPAXI@Z   0045a500 f i item_cmpfunc.obj
 0001:00059500       ??_Gin_vector@@UAEPAXI@Z   0045a500 f i item_cmpfunc.obj
 0001:00059510       ??1in_longlong@@UAE@XZ     0045a510 f i item_cmpfunc.obj
 0001:00059520       ??0cmp_item@@QAE@XZ        0045a520 f i item_cmpfunc.obj
 0001:00059540       ??1cmp_item@@UAE@XZ        0045a540 f i item_cmpfunc.obj
 0001:00059550       ?store_value_by_template@cmp_item@@UAEXPAV1@PAVItem@@@Z 0045a550 f i item_cmpfunc.obj
 0001:00059570       ??_Gcmp_item@@UAEPAXI@Z    0045a570 f i item_cmpfunc.obj
 0001:00059570       ??_Ecmp_item@@UAEPAXI@Z    0045a570 f i item_cmpfunc.obj
 0001:00059580       ??0cmp_item_string@@QAE@PAUcharset_info_st@@@Z 0045a580 f i item_cmpfunc.obj
 0001:000595a0       ??1cmp_item_string@@UAE@XZ 0045a5a0 f i item_cmpfunc.obj
 0001:000595b0       ??0cmp_item_int@@QAE@XZ    0045a5b0 f i item_cmpfunc.obj
 0001:000595d0       ?store_value@cmp_item_int@@UAEXPAVItem@@@Z 0045a5d0 f i item_cmpfunc.obj
 0001:000595f0       ?cmp@cmp_item_int@@UAEHPAVItem@@@Z 0045a5f0 f i item_cmpfunc.obj
 0001:00059630       ?compare@cmp_item_int@@UAEHPAVcmp_item@@@Z 0045a630 f i item_cmpfunc.obj
 0001:00059680       ??1cmp_item_int@@UAE@XZ    0045a680 f i item_cmpfunc.obj
 0001:00059690       ??0cmp_item_datetime@@QAE@PAVItem@@@Z 0045a690 f i item_cmpfunc.obj
 0001:000596e0       ??1cmp_item_datetime@@UAE@XZ 0045a6e0 f i item_cmpfunc.obj
 0001:000596f0       ??0cmp_item_real@@QAE@XZ   0045a6f0 f i item_cmpfunc.obj
 0001:00059710       ?store_value@cmp_item_real@@UAEXPAVItem@@@Z 0045a710 f i item_cmpfunc.obj
 0001:00059730       ?cmp@cmp_item_real@@UAEHPAVItem@@@Z 0045a730 f i item_cmpfunc.obj
 0001:00059760       ?compare@cmp_item_real@@UAEHPAVcmp_item@@@Z 0045a760 f i item_cmpfunc.obj
 0001:000597a0       ??1cmp_item_real@@UAE@XZ   0045a7a0 f i item_cmpfunc.obj
 0001:000597b0       ??0cmp_item_decimal@@QAE@XZ 0045a7b0 f i item_cmpfunc.obj
 0001:000597e0       ??1cmp_item_decimal@@UAE@XZ 0045a7e0 f i item_cmpfunc.obj
 0001:000597f0       ??0cmp_item_row@@QAE@XZ    0045a7f0 f i item_cmpfunc.obj
 0001:00059810       ??1?$List@VItem_equal@@@@QAE@XZ 0045a810 f i item_cmpfunc.obj
 0001:00059820       ??1COND_EQUAL@@QAE@XZ      0045a820 f i item_cmpfunc.obj
 0001:00059830       ?any_value@Item_maxmin_subselect@@QAE_NXZ 0045a830 f i item_cmpfunc.obj
 0001:00059840       ?set_cond_guard_var@Item_in_subselect@@QAEXH_N@Z 0045a840 f i item_cmpfunc.obj
 0001:00059860       ?is_top_level_item@Item_in_subselect@@QAE_NXZ 0045a860 f i item_cmpfunc.obj
 0001:00059870       ?set_used_tables@Item_cache@@QAEX_K@Z 0045a870 f i item_cmpfunc.obj
 0001:00059890       ?alloc@Query_arena@@QAEPAXI@Z 0045a890 f i item_cmpfunc.obj
 0001:000598b0       ?is_context_analysis_only@THD@@QAE_NXZ 0045a8b0 f i item_cmpfunc.obj
 0001:00059bb0       ?agg_field_type@@YA?AW4enum_field_types@@PAPAVItem@@I@Z 0045abb0 f   item_cmpfunc.obj
 0001:00059d10       ?val_int@Item_func_not@@UAE_JXZ 0045ad10 f   item_cmpfunc.obj
 0001:00059d50       ?print@Item_func_not@@UAEXPAVString@@W4enum_query_type@@@Z 0045ad50 f   item_cmpfunc.obj
 0001:00059df0       ?empty_underlying_subquery@Item_func_not_all@@QAE_NXZ 0045adf0 f   item_cmpfunc.obj
 0001:00059e30       ?print@Item_func_not_all@@UAEXPAVString@@W4enum_query_type@@@Z 0045ae30 f   item_cmpfunc.obj
 0001:00059e60       ?val_int@Item_func_nop_all@@UAE_JXZ 0045ae60 f   item_cmpfunc.obj
 0001:00059ec0       ??_EArg_comparator@@QAEPAXI@Z 0045aec0 f i item_cmpfunc.obj
 0001:00059fa0       ?compare_datetime@Arg_comparator@@QAEHXZ 0045afa0 f   item_cmpfunc.obj
 0001:0005a0c0       ?compare_string@Arg_comparator@@QAEHXZ 0045b0c0 f   item_cmpfunc.obj
 0001:0005a140       ?compare_binary_string@Arg_comparator@@QAEHXZ 0045b140 f   item_cmpfunc.obj
 0001:0005a270       ?compare_e_string@Arg_comparator@@QAEHXZ 0045b270 f   item_cmpfunc.obj
 0001:0005a2f0       ?compare_e_binary_string@Arg_comparator@@QAEHXZ 0045b2f0 f   item_cmpfunc.obj
 0001:0005a360       ?compare_real@Arg_comparator@@QAEHXZ 0045b360 f   item_cmpfunc.obj
 0001:0005a410       ?compare_decimal@Arg_comparator@@QAEHXZ 0045b410 f   item_cmpfunc.obj
 0001:0005a4c0       ?compare_e_real@Arg_comparator@@QAEHXZ 0045b4c0 f   item_cmpfunc.obj
 0001:0005a540       ?compare_e_decimal@Arg_comparator@@QAEHXZ 0045b540 f   item_cmpfunc.obj
 0001:0005a600       ?compare_real_fixed@Arg_comparator@@QAEHXZ 0045b600 f   item_cmpfunc.obj
 0001:0005a6c0       ?compare_e_real_fixed@Arg_comparator@@QAEHXZ 0045b6c0 f   item_cmpfunc.obj
 0001:0005a770       ?compare_int_signed@Arg_comparator@@QAEHXZ 0045b770 f   item_cmpfunc.obj
 0001:0005a800       ?compare_int_unsigned@Arg_comparator@@QAEHXZ 0045b800 f   item_cmpfunc.obj
 0001:0005a890       ?compare_int_signed_unsigned@Arg_comparator@@QAEHXZ 0045b890 f   item_cmpfunc.obj
 0001:0005a930       ?compare_int_unsigned_signed@Arg_comparator@@QAEHXZ 0045b930 f   item_cmpfunc.obj
 0001:0005a9d0       ?compare_e_int@Arg_comparator@@QAEHXZ 0045b9d0 f   item_cmpfunc.obj
 0001:0005aa50       ?compare_e_int_diff_signedness@Arg_comparator@@QAEHXZ 0045ba50 f   item_cmpfunc.obj
 0001:0005aae0       ?compare_row@Arg_comparator@@QAEHXZ 0045bae0 f   item_cmpfunc.obj
 0001:0005abc0       ?compare_e_row@Arg_comparator@@QAEHXZ 0045bbc0 f   item_cmpfunc.obj
 0001:0005ac50       ?fix_length_and_dec@Item_func_truth@@UAEXXZ 0045bc50 f   item_cmpfunc.obj
 0001:0005ac70       ?print@Item_func_truth@@UAEXPAVString@@W4enum_query_type@@@Z 0045bc70 f   item_cmpfunc.obj
 0001:0005ad70       ?val_bool@Item_func_truth@@UAE_NXZ 0045bd70 f   item_cmpfunc.obj
 0001:0005ade0       ?val_int@Item_func_truth@@UAE_JXZ 0045bde0 f   item_cmpfunc.obj
 0001:0005ae00       ?fix_left@Item_in_optimizer@@QAE_NPAVTHD@@PAPAVItem@@@Z 0045be00 f   item_cmpfunc.obj
 0001:0005afd0       ?fix_fields@Item_in_optimizer@@UAE_NPAVTHD@@PAPAVItem@@@Z 0045bfd0 f   item_cmpfunc.obj
 0001:0005b110       ?val_int@Item_in_optimizer@@UAE_JXZ 0045c110 f   item_cmpfunc.obj
 0001:0005b2e0       ?keep_top_level_cache@Item_in_optimizer@@QAEXXZ 0045c2e0 f   item_cmpfunc.obj
 0001:0005b310       ?cleanup@Item_in_optimizer@@UAEXXZ 0045c310 f   item_cmpfunc.obj
 0001:0005b340       ?is_null@Item_in_optimizer@@UAE_NXZ 0045c340 f   item_cmpfunc.obj
 0001:0005b360       ?val_int@Item_func_eq@@UAE_JXZ 0045c360 f   item_cmpfunc.obj
 0001:0005b380       ?val_int@Item_func_equal@@UAE_JXZ 0045c380 f   item_cmpfunc.obj
 0001:0005b3a0       ?val_int@Item_func_ne@@UAE_JXZ 0045c3a0 f   item_cmpfunc.obj
 0001:0005b3e0       ?val_int@Item_func_ge@@UAE_JXZ 0045c3e0 f   item_cmpfunc.obj
 0001:0005b400       ?val_int@Item_func_gt@@UAE_JXZ 0045c400 f   item_cmpfunc.obj
 0001:0005b420       ?val_int@Item_func_le@@UAE_JXZ 0045c420 f   item_cmpfunc.obj
 0001:0005b460       ?val_int@Item_func_lt@@UAE_JXZ 0045c460 f   item_cmpfunc.obj
 0001:0005b4a0       ?val_int@Item_func_strcmp@@UAE_JXZ 0045c4a0 f   item_cmpfunc.obj
 0001:0005b530       ?eq@Item_func_opt_neg@@UBE_NPBVItem@@_N@Z 0045c530 f   item_cmpfunc.obj
 0001:0005b610       ?fix_length_and_dec@Item_func_interval@@UAEXXZ 0045c610 f   item_cmpfunc.obj
 0001:0005b920       ?val_int@Item_func_interval@@UAE_JXZ 0045c920 f   item_cmpfunc.obj
 0001:0005bc10       ?fix_fields@Item_func_between@@UAE_NPAVTHD@@PAPAVItem@@@Z 0045cc10 f   item_cmpfunc.obj
 0001:0005bcd0       ?val_int@Item_func_between@@UAE_JXZ 0045ccd0 f   item_cmpfunc.obj
 0001:0005c2d0       ?print@Item_func_between@@UAEXPAVString@@W4enum_query_type@@@Z 0045d2d0 f   item_cmpfunc.obj
 0001:0005c3f0       ?fix_length_and_dec@Item_func_ifnull@@UAEXXZ 0045d3f0 f   item_cmpfunc.obj
 0001:0005c580       ?decimal_precision@Item_func_ifnull@@UBEIXZ 0045d580 f   item_cmpfunc.obj
 0001:0005c600       ?field_type@Item_func_ifnull@@UBE?AW4enum_field_types@@XZ 0045d600 f   item_cmpfunc.obj
 0001:0005c610       ?tmp_table_field@Item_func_ifnull@@UAEPAVField@@PAUst_table@@@Z 0045d610 f   item_cmpfunc.obj
 0001:0005c630       ?real_op@Item_func_ifnull@@UAENXZ 0045d630 f   item_cmpfunc.obj
 0001:0005c690       ?int_op@Item_func_ifnull@@UAE_JXZ 0045d690 f   item_cmpfunc.obj
 0001:0005c6f0       ?decimal_op@Item_func_ifnull@@UAEPAVmy_decimal@@PAV2@@Z 0045d6f0 f   item_cmpfunc.obj
 0001:0005c760       ?str_op@Item_func_ifnull@@UAEPAVString@@PAV2@@Z 0045d760 f   item_cmpfunc.obj
 0001:0005c7d0       ?fix_fields@Item_func_if@@UAE_NPAVTHD@@PAPAVItem@@@Z 0045d7d0 f   item_cmpfunc.obj
 0001:0005c860       ?fix_length_and_dec@Item_func_if@@UAEXXZ 0045d860 f   item_cmpfunc.obj
 0001:0005cb10       ?decimal_precision@Item_func_if@@UBEIXZ 0045db10 f   item_cmpfunc.obj
 0001:0005cb90       ?val_real@Item_func_if@@UAENXZ 0045db90 f   item_cmpfunc.obj
 0001:0005cbf0       ?val_int@Item_func_if@@UAE_JXZ 0045dbf0 f   item_cmpfunc.obj
 0001:0005cc50       ?val_str@Item_func_if@@UAEPAVString@@PAV2@@Z 0045dc50 f   item_cmpfunc.obj
 0001:0005ccb0       ?val_decimal@Item_func_if@@UAEPAVmy_decimal@@PAV2@@Z 0045dcb0 f   item_cmpfunc.obj
 0001:0005cd00       ?val_real@Item_func_nullif@@UAENXZ 0045dd00 f   item_cmpfunc.obj
 0001:0005cd50       ?val_int@Item_func_nullif@@UAE_JXZ 0045dd50 f   item_cmpfunc.obj
 0001:0005cda0       ?val_str@Item_func_nullif@@UAEPAVString@@PAV2@@Z 0045dda0 f   item_cmpfunc.obj
 0001:0005cdf0       ?val_decimal@Item_func_nullif@@UAEPAVmy_decimal@@PAV2@@Z 0045ddf0 f   item_cmpfunc.obj
 0001:0005ce40       ?is_null@Item_func_nullif@@UAE_NXZ 0045de40 f   item_cmpfunc.obj
 0001:0005ce90       ?find_item@Item_func_case@@QAEPAVItem@@PAVString@@@Z 0045de90 f   item_cmpfunc.obj
 0001:0005d030       ?val_str@Item_func_case@@UAEPAVString@@PAV2@@Z 0045e030 f   item_cmpfunc.obj
 0001:0005d080       ?fix_fields@Item_func_case@@UAE_NPAVTHD@@PAPAVItem@@@Z 0045e080 f   item_cmpfunc.obj
 0001:0005d100       ?agg_str_lengths@Item_func_case@@QAEXPAVItem@@@Z 0045e100 f   item_cmpfunc.obj
 0001:0005d150       ?agg_num_lengths@Item_func_case@@QAEXPAVItem@@@Z 0045e150 f   item_cmpfunc.obj
 0001:0005d1e0       ?decimal_precision@Item_func_case@@UBEIXZ 0045e1e0 f   item_cmpfunc.obj
 0001:0005d2f0       ?print@Item_func_case@@UAEXPAVString@@W4enum_query_type@@@Z 0045e2f0 f   item_cmpfunc.obj
 0001:0005d4b0       ?cleanup@Item_func_case@@UAEXXZ 0045e4b0 f   item_cmpfunc.obj
 0001:0005d4f0       ?str_op@Item_func_coalesce@@UAEPAVString@@PAV2@@Z 0045e4f0 f   item_cmpfunc.obj
 0001:0005d540       ?int_op@Item_func_coalesce@@UAE_JXZ 0045e540 f   item_cmpfunc.obj
 0001:0005d590       ?real_op@Item_func_coalesce@@UAENXZ 0045e590 f   item_cmpfunc.obj
 0001:0005d5e0       ?decimal_op@Item_func_coalesce@@UAEPAVmy_decimal@@PAV2@@Z 0045e5e0 f   item_cmpfunc.obj
 0001:0005d640       ?fix_length_and_dec@Item_func_coalesce@@UAEXXZ 0045e640 f   item_cmpfunc.obj
 0001:0005d790       ?cmp_longlong@@YAHPAXPAUpacked_longlong@in_longlong@@1@Z 0045e790 f   item_cmpfunc.obj
 0001:0005d920       ?find@in_vector@@QAEHPAVItem@@@Z 0045e920 f   item_cmpfunc.obj
 0001:0005d9f0       ?set@in_string@@UAEXIPAVItem@@@Z 0045e9f0 f   item_cmpfunc.obj
 0001:0005da90       ?get_value@in_string@@UAEPAEPAVItem@@@Z 0045ea90 f   item_cmpfunc.obj
 0001:0005dab0       ?get_value@in_row@@UAEPAEPAVItem@@@Z 0045eab0 f   item_cmpfunc.obj
 0001:0005daf0       ?set@in_row@@UAEXIPAVItem@@@Z 0045eaf0 f   item_cmpfunc.obj
 0001:0005db20       ??0in_longlong@@QAE@I@Z    0045eb20 f   item_cmpfunc.obj
 0001:0005db80       ?value_to_item@in_longlong@@UAEXIPAVItem@@@Z 0045eb80 f i item_cmpfunc.obj
 0001:0005dbc0       ?result_type@in_longlong@@UAE?AW4Item_result@@XZ 0045ebc0 f i item_cmpfunc.obj
 0001:0005dbd0       ??_Gin_longlong@@UAEPAXI@Z 0045ebd0 f i item_cmpfunc.obj
 0001:0005dbd0       ??_Ein_longlong@@UAEPAXI@Z 0045ebd0 f i item_cmpfunc.obj
 0001:0005dbe0       ?set@in_longlong@@UAEXIPAVItem@@@Z 0045ebe0 f   item_cmpfunc.obj
 0001:0005dc20       ?get_value@in_longlong@@UAEPAEPAVItem@@@Z 0045ec20 f   item_cmpfunc.obj
 0001:0005dc70       ??0in_double@@QAE@I@Z      0045ec70 f   item_cmpfunc.obj
 0001:0005dcd0       ?value_to_item@in_double@@UAEXIPAVItem@@@Z 0045ecd0 f i item_cmpfunc.obj
 0001:0005dcf0       ?result_type@in_double@@UAE?AW4Item_result@@XZ 0045ecf0 f i item_cmpfunc.obj
 0001:0005dd00       ??1in_double@@UAE@XZ       0045ed00 f i item_cmpfunc.obj
 0001:0005dd10       ?set@in_double@@UAEXIPAVItem@@@Z 0045ed10 f   item_cmpfunc.obj
 0001:0005dd40       ?get_value@in_double@@UAEPAEPAVItem@@@Z 0045ed40 f   item_cmpfunc.obj
 0001:0005dd70       ??0in_decimal@@QAE@I@Z     0045ed70 f   item_cmpfunc.obj
 0001:0005ddf0       ?create_item@in_decimal@@UAEPAVItem@@XZ 0045edf0 f i item_cmpfunc.obj
 0001:0005de20       ?value_to_item@in_decimal@@UAEXIPAVItem@@@Z 0045ee20 f i item_cmpfunc.obj
 0001:0005de50       ?result_type@in_decimal@@UAE?AW4Item_result@@XZ 0045ee50 f i item_cmpfunc.obj
 0001:0005de60       ??1in_decimal@@UAE@XZ      0045ee60 f i item_cmpfunc.obj
 0001:0005de70       ?set@in_decimal@@UAEXIPAVItem@@@Z 0045ee70 f   item_cmpfunc.obj
 0001:0005dee0       ?get_value@in_decimal@@UAEPAEPAVItem@@@Z 0045eee0 f   item_cmpfunc.obj
 0001:0005df10       ?make_same@cmp_item_int@@UAEPAVcmp_item@@XZ 0045ef10 f   item_cmpfunc.obj
 0001:0005df40       ?make_same@cmp_item_real@@UAEPAVcmp_item@@XZ 0045ef40 f   item_cmpfunc.obj
 0001:0005df70       ?make_same@cmp_item_row@@UAEPAVcmp_item@@XZ 0045ef70 f   item_cmpfunc.obj
 0001:0005dfa0       ??1cmp_item_row@@UAE@XZ    0045efa0 f   item_cmpfunc.obj
 0001:0005e010       ?alloc_comparators@cmp_item_row@@QAEXXZ 0045f010 f i item_cmpfunc.obj
 0001:0005e070       ?store_value_by_template@cmp_item_row@@UAEXPAVcmp_item@@PAVItem@@@Z 0045f070 f   item_cmpfunc.obj
 0001:0005e190       ?cmp@cmp_item_row@@UAEHPAVItem@@@Z 0045f190 f   item_cmpfunc.obj
 0001:0005e280       ?compare@cmp_item_row@@UAEHPAVcmp_item@@@Z 0045f280 f   item_cmpfunc.obj
 0001:0005e2d0       ?store_value@cmp_item_decimal@@UAEXPAVItem@@@Z 0045f2d0 f   item_cmpfunc.obj
 0001:0005e310       ?cmp@cmp_item_decimal@@UAEHPAVItem@@@Z 0045f310 f   item_cmpfunc.obj
 0001:0005e380       ?compare@cmp_item_decimal@@UAEHPAVcmp_item@@@Z 0045f380 f   item_cmpfunc.obj
 0001:0005e3a0       ?make_same@cmp_item_decimal@@UAEPAVcmp_item@@XZ 0045f3a0 f   item_cmpfunc.obj
 0001:0005e3e0       ?compare@cmp_item_datetime@@UAEHPAVcmp_item@@@Z 0045f3e0 f   item_cmpfunc.obj
 0001:0005e430       ?make_same@cmp_item_datetime@@UAEPAVcmp_item@@XZ 0045f430 f   item_cmpfunc.obj
 0001:0005e490       ?nulls_in_row@Item_func_in@@QAE_NXZ 0045f490 f   item_cmpfunc.obj
 0001:0005e4d0       ?fix_fields@Item_func_in@@UAE_NPAVTHD@@PAPAVItem@@@Z 0045f4d0 f   item_cmpfunc.obj
 0001:0005e5c0       ?print@Item_func_in@@UAEXPAVString@@W4enum_query_type@@@Z 0045f5c0 f   item_cmpfunc.obj
 0001:0005e680       ?val_int@Item_func_in@@UAE_JXZ 0045f680 f   item_cmpfunc.obj
 0001:0005e830       ?val_int@Item_func_bit_or@@UAE_JXZ 0045f830 f   item_cmpfunc.obj
 0001:0005e8a0       ?val_int@Item_func_bit_and@@UAE_JXZ 0045f8a0 f   item_cmpfunc.obj
 0001:0005e910       ?used_tables@Item_cond@@UBE_KXZ 0045f910 f   item_cmpfunc.obj
 0001:0005e920       ?val_int@Item_func_isnull@@UAE_JXZ 0045f920 f   item_cmpfunc.obj
 0001:0005e960       ?val_int@Item_is_not_null_test@@UAE_JXZ 0045f960 f   item_cmpfunc.obj
 0001:0005e9f0       ?update_used_tables@Item_is_not_null_test@@UAEXXZ 0045f9f0 f   item_cmpfunc.obj
 0001:0005eab0       ?val_int@Item_func_isnotnull@@UAE_JXZ 0045fab0 f   item_cmpfunc.obj
 0001:0005ead0       ?print@Item_func_isnotnull@@UAEXPAVString@@W4enum_query_type@@@Z 0045fad0 f   item_cmpfunc.obj
 0001:0005eb50       ?select_optimize@Item_func_like@@UBE?AW4optimize_type@Item_func@@XZ 0045fb50 f   item_cmpfunc.obj
 0001:0005ebd0       ?cleanup@Item_func_like@@UAEXXZ 0045fbd0 f   item_cmpfunc.obj
 0001:0005ebe0       ?cleanup@Item_func_regex@@UAEXXZ 0045fbe0 f   item_cmpfunc.obj
 0001:0005ec20       ?turboBM_compute_suffixes@Item_func_like@@AAEXPAH@Z 0045fc20 f   item_cmpfunc.obj
 0001:0005eda0       ?turboBM_compute_good_suffix_shifts@Item_func_like@@AAEXPAH@Z 0045fda0 f   item_cmpfunc.obj
 0001:0005eee0       ?turboBM_compute_bad_character_shifts@Item_func_like@@AAEXXZ 0045fee0 f   item_cmpfunc.obj
 0001:0005efa0       ?turboBM_matches@Item_func_like@@ABE_NPBDH@Z 0045ffa0 f   item_cmpfunc.obj
 0001:0005f270       ?neg_transformer@Item_func_not@@UAEPAVItem@@PAVTHD@@@Z 00460270 f   item_cmpfunc.obj
 0001:0005f280       ?neg_transformer@Item_bool_rowready_func2@@UAEPAVItem@@PAVTHD@@@Z 00460280 f   item_cmpfunc.obj
 0001:0005f290       ?negated_item@Item_bool_rowready_func2@@UAEPAVItem@@XZ 00460290 f   item_cmpfunc.obj
 0001:0005f2a0       ?members@Item_equal@@QAEIXZ 004602a0 f   item_cmpfunc.obj
 0001:0005f2b0       ??0?$List@VItem@@@@QAE@ABV0@@Z 004602b0 f i item_cmpfunc.obj
 0001:0005f2e0       ??0?$List@VItem_field@@@@QAE@XZ 004602e0 f i item_cmpfunc.obj
 0001:0005f300       ??0?$List@VItem_equal@@@@QAE@XZ 00460300 f i item_cmpfunc.obj
 0001:0005f320       ??E?$List_iterator_fast@VItem_field@@@@QAEPAVItem_field@@H@Z 00460320 f i item_cmpfunc.obj
 0001:0005f340       ??E?$List_iterator_fast@VItem@@@@QAEPAVItem@@H@Z 00460340 f i item_cmpfunc.obj
 0001:0005f360       ??E?$List_iterator@VItem@@@@QAEPAVItem@@H@Z 00460360 f i item_cmpfunc.obj
 0001:0005f380       ?replace@?$List_iterator@VItem@@@@QAEPAVItem@@PAV2@@Z 00460380 f i item_cmpfunc.obj
 0001:0005f3a0       ?replace@?$List_iterator@VItem@@@@QAEPAVItem@@AAV?$List@VItem@@@@@Z 004603a0 f i item_cmpfunc.obj
 0001:0005f3b0       ?ref@?$List_iterator@VItem@@@@QAEPAPAVItem@@XZ 004603b0 f i item_cmpfunc.obj
 0001:0005f3c0       ?rewind@?$List_iterator@VItem_field@@@@QAEXXZ 004603c0 f i item_cmpfunc.obj
 0001:0005f3d0       ?ref@?$List_iterator@VItem_field@@@@QAEPAPAVItem_field@@XZ 004603d0 f i item_cmpfunc.obj
 0001:0005f3e0       ??_9Item@@$BBCI@AE         004603e0 f i item_cmpfunc.obj
 0001:0005f3f0       ?concat@base_list@@QAEXPAV1@@Z 004603f0 f i item_cmpfunc.obj
 0001:0005f420       ??_Glist_node@@QAEPAXI@Z   00460420 f i item_cmpfunc.obj
 0001:0005f430       ??0Item_func@@QAE@XZ       00460430 f i item_cmpfunc.obj
 0001:0005f460       ??0Item_func@@QAE@PAVItem@@0@Z 00460460 f i item_cmpfunc.obj
 0001:0005f4e0       ??0Item_int_func@@QAE@XZ   004604e0 f i item_cmpfunc.obj
 0001:0005f520       ?result_type@Item_int_func@@UBE?AW4Item_result@@XZ 00460520 f i item_cmpfunc.obj
 0001:0005f530       ?fix_length_and_dec@Item_int_func@@UAEXXZ 00460530 f i item_cmpfunc.obj
 0001:0005f540       ??0Item_int_func@@QAE@PAVItem@@@Z 00460540 f i item_cmpfunc.obj
 0001:0005f5a0       ??0Item_int_func@@QAE@PAVItem@@0@Z 004605a0 f i item_cmpfunc.obj
 0001:0005f5d0       ??0Item_int_func@@QAE@PAVTHD@@PAV0@@Z 004605d0 f i item_cmpfunc.obj
 0001:0005f600       ??1Item_int_func@@UAE@XZ   00460600 f i item_cmpfunc.obj
 0001:0005f640       ??0Item_bool_func@@QAE@XZ  00460640 f i item_cmpfunc.obj
 0001:0005f680       ?is_bool_func@Item_bool_func@@UAE_NXZ 00460680 f i item_cmpfunc.obj
 0001:0005f690       ?fix_length_and_dec@Item_bool_func@@UAEXXZ 00460690 f i item_cmpfunc.obj
 0001:0005f6a0       ?decimal_precision@Item_bool_func@@UBEIXZ 004606a0 f i item_cmpfunc.obj
 0001:0005f6b0       ??0Item_bool_func@@QAE@PAVItem@@@Z 004606b0 f i item_cmpfunc.obj
 0001:0005f710       ??0Item_bool_func@@QAE@PAVTHD@@PAV0@@Z 00460710 f i item_cmpfunc.obj
 0001:0005f740       ??1Item_bool_func@@UAE@XZ  00460740 f i item_cmpfunc.obj
 0001:0005f780       ??0Item_bool_func2@@QAE@PAVItem@@0@Z 00460780 f i item_cmpfunc.obj
 0001:0005f860       ?select_optimize@Item_bool_func2@@UBE?AW4optimize_type@Item_func@@XZ 00460860 f i item_cmpfunc.obj
 0001:0005f870       ?rev_functype@Item_bool_func2@@UBE?AW4Functype@Item_func@@XZ 00460870 f i item_cmpfunc.obj
 0001:0005f880       ?have_rev_func@Item_bool_func2@@UBE_NXZ 00460880 f i item_cmpfunc.obj
 0001:0005f8a0       ?print@Item_bool_func2@@UAEXPAVString@@W4enum_query_type@@@Z 004608a0 f i item_cmpfunc.obj
 0001:0005f8b0       ?is_null@Item_bool_func2@@UAE_NXZ 004608b0 f i item_cmpfunc.obj
 0001:0005f900       ?is_bool_func@Item_bool_func2@@UAE_NXZ 00460900 f i item_cmpfunc.obj
 0001:0005f910       ?compare_collation@Item_bool_func2@@UAEPAUcharset_info_st@@XZ 00460910 f i item_cmpfunc.obj
 0001:0005f920       ?decimal_precision@Item_bool_func2@@UBEIXZ 00460920 f i item_cmpfunc.obj
 0001:0005f930       ?top_level_item@Item_bool_func2@@UAEXXZ 00460930 f i item_cmpfunc.obj
 0001:0005f940       ??1Item_bool_func2@@UAE@XZ 00460940 f i item_cmpfunc.obj
 0001:0005f9f0       ??0Item_bool_rowready_func2@@QAE@PAVItem@@0@Z 004609f0 f i item_cmpfunc.obj
 0001:0005fa20       ?subst_argument_checker@Item_bool_rowready_func2@@UAE_NPAPAE@Z 00460a20 f i item_cmpfunc.obj
 0001:0005fa30       ??1Item_bool_rowready_func2@@UAE@XZ 00460a30 f i item_cmpfunc.obj
 0001:0005fa40       ??0Item_func_not@@QAE@PAVItem@@@Z 00460a40 f i item_cmpfunc.obj
 0001:0005faa0       ?functype@Item_func_not@@UBE?AW4Functype@Item_func@@XZ 00460aa0 f i item_cmpfunc.obj
 0001:0005fab0       ?func_name@Item_func_not@@UBEPBDXZ 00460ab0 f i item_cmpfunc.obj
 0001:0005fac0       ??1Item_func_not@@UAE@XZ   00460ac0 f i item_cmpfunc.obj
 0001:0005fb00       ??0Item_func_not_all@@QAE@PAVItem@@@Z 00460b00 f i item_cmpfunc.obj
 0001:0005fb80       ?top_level_item@Item_func_not_all@@UAEXXZ 00460b80 f i item_cmpfunc.obj
 0001:0005fb90       ?functype@Item_func_not_all@@UBE?AW4Functype@Item_func@@XZ 00460b90 f i item_cmpfunc.obj
 0001:0005fba0       ?func_name@Item_func_not_all@@UBEPBDXZ 00460ba0 f i item_cmpfunc.obj
 0001:0005fbb0       ??1Item_func_not_all@@UAE@XZ 00460bb0 f i item_cmpfunc.obj
 0001:0005fbf0       ??0Item_func_nop_all@@QAE@PAVItem@@@Z 00460bf0 f i item_cmpfunc.obj
 0001:0005fc10       ?func_name@Item_func_nop_all@@UBEPBDXZ 00460c10 f i item_cmpfunc.obj
 0001:0005fc20       ??1Item_func_nop_all@@UAE@XZ 00460c20 f i item_cmpfunc.obj
 0001:0005fc60       ??0Item_func_eq@@QAE@PAVItem@@0@Z 00460c60 f i item_cmpfunc.obj
 0001:0005fc90       ?functype@Item_func_eq@@UBE?AW4Functype@Item_func@@XZ 00460c90 f i item_cmpfunc.obj
 0001:0005fca0       ?rev_functype@Item_func_eq@@UBE?AW4Functype@Item_func@@XZ 00460ca0 f i item_cmpfunc.obj
 0001:0005fcb0       ?eq_cmp_result@Item_func_eq@@UBE?AW4cond_result@Item@@XZ 00460cb0 f i item_cmpfunc.obj
 0001:0005fcc0       ?func_name@Item_func_eq@@UBEPBDXZ 00460cc0 f i item_cmpfunc.obj
 0001:0005fcd0       ??1Item_func_eq@@UAE@XZ    00460cd0 f i item_cmpfunc.obj
 0001:0005fce0       ??0Item_func_ge@@QAE@PAVItem@@0@Z 00460ce0 f i item_cmpfunc.obj
 0001:0005fd10       ?functype@Item_func_ge@@UBE?AW4Functype@Item_func@@XZ 00460d10 f i item_cmpfunc.obj
 0001:0005fd20       ?rev_functype@Item_func_ge@@UBE?AW4Functype@Item_func@@XZ 00460d20 f i item_cmpfunc.obj
 0001:0005fd30       ?eq_cmp_result@Item_func_ge@@UBE?AW4cond_result@Item@@XZ 00460d30 f i item_cmpfunc.obj
 0001:0005fd40       ?func_name@Item_func_ge@@UBEPBDXZ 00460d40 f i item_cmpfunc.obj
 0001:0005fd50       ??1Item_func_ge@@UAE@XZ    00460d50 f i item_cmpfunc.obj
 0001:0005fd60       ??0Item_func_gt@@QAE@PAVItem@@0@Z 00460d60 f i item_cmpfunc.obj
 0001:0005fd90       ?functype@Item_func_gt@@UBE?AW4Functype@Item_func@@XZ 00460d90 f i item_cmpfunc.obj
 0001:0005fda0       ?rev_functype@Item_func_gt@@UBE?AW4Functype@Item_func@@XZ 00460da0 f i item_cmpfunc.obj
 0001:0005fdb0       ?eq_cmp_result@Item_func_gt@@UBE?AW4cond_result@Item@@XZ 00460db0 f i item_cmpfunc.obj
 0001:0005fdc0       ?func_name@Item_func_gt@@UBEPBDXZ 00460dc0 f i item_cmpfunc.obj
 0001:0005fdd0       ??1Item_func_gt@@UAE@XZ    00460dd0 f i item_cmpfunc.obj
 0001:0005fde0       ??0Item_func_le@@QAE@PAVItem@@0@Z 00460de0 f i item_cmpfunc.obj
 0001:0005fe10       ?functype@Item_func_le@@UBE?AW4Functype@Item_func@@XZ 00460e10 f i item_cmpfunc.obj
 0001:0005fe20       ?rev_functype@Item_func_le@@UBE?AW4Functype@Item_func@@XZ 00460e20 f i item_cmpfunc.obj
 0001:0005fe30       ?eq_cmp_result@Item_func_le@@UBE?AW4cond_result@Item@@XZ 00460e30 f i item_cmpfunc.obj
 0001:0005fe40       ?func_name@Item_func_le@@UBEPBDXZ 00460e40 f i item_cmpfunc.obj
 0001:0005fe50       ??1Item_func_le@@UAE@XZ    00460e50 f i item_cmpfunc.obj
 0001:0005fe60       ??0Item_func_lt@@QAE@PAVItem@@0@Z 00460e60 f i item_cmpfunc.obj
 0001:0005fe90       ?functype@Item_func_lt@@UBE?AW4Functype@Item_func@@XZ 00460e90 f i item_cmpfunc.obj
 0001:0005fea0       ?rev_functype@Item_func_lt@@UBE?AW4Functype@Item_func@@XZ 00460ea0 f i item_cmpfunc.obj
 0001:0005feb0       ?eq_cmp_result@Item_func_lt@@UBE?AW4cond_result@Item@@XZ 00460eb0 f i item_cmpfunc.obj
 0001:0005fec0       ?func_name@Item_func_lt@@UBEPBDXZ 00460ec0 f i item_cmpfunc.obj
 0001:0005fed0       ??1Item_func_lt@@UAE@XZ    00460ed0 f i item_cmpfunc.obj
 0001:0005fee0       ??0Item_func_ne@@QAE@PAVItem@@0@Z 00460ee0 f i item_cmpfunc.obj
 0001:0005ff10       ?functype@Item_func_ne@@UBE?AW4Functype@Item_func@@XZ 00460f10 f i item_cmpfunc.obj
 0001:0005ff20       ?eq_cmp_result@Item_func_ne@@UBE?AW4cond_result@Item@@XZ 00460f20 f i item_cmpfunc.obj
 0001:0005ff30       ?select_optimize@Item_func_ne@@UBE?AW4optimize_type@Item_func@@XZ 00460f30 f i item_cmpfunc.obj
 0001:0005ff40       ?func_name@Item_func_ne@@UBEPBDXZ 00460f40 f i item_cmpfunc.obj
 0001:0005ff50       ??1Item_func_ne@@UAE@XZ    00460f50 f i item_cmpfunc.obj
 0001:0005ff60       ??0in_datetime@@QAE@PAVItem@@I@Z 00460f60 f i item_cmpfunc.obj
 0001:0005ffb0       ??1in_datetime@@UAE@XZ     00460fb0 f i item_cmpfunc.obj
 0001:0005ffc0       ??_Gin_datetime@@UAEPAXI@Z 00460fc0 f i item_cmpfunc.obj
 0001:0005ffc0       ??_Ein_datetime@@UAEPAXI@Z 00460fc0 f i item_cmpfunc.obj
 0001:0005ffd0       ??_Gcmp_item_string@@UAEPAXI@Z 00460fd0 f i item_cmpfunc.obj
 0001:0005ffd0       ??_Ecmp_item_string@@UAEPAXI@Z 00460fd0 f i item_cmpfunc.obj
 0001:0005ffe0       ??0cmp_item_sort_string@@QAE@PAUcharset_info_st@@@Z 00460fe0 f i item_cmpfunc.obj
 0001:00060020       ?store_value@cmp_item_sort_string@@UAEXPAVItem@@@Z 00461020 f i item_cmpfunc.obj
 0001:00060040       ?compare@cmp_item_sort_string@@UAEHPAVcmp_item@@@Z 00461040 f i item_cmpfunc.obj
 0001:00060070       ?cmp@cmp_item_sort_string@@UAEHPAVItem@@@Z 00461070 f i item_cmpfunc.obj
 0001:00060140       ??1cmp_item_sort_string@@UAE@XZ 00461140 f i item_cmpfunc.obj
 0001:00060180       ??_Gcmp_item_int@@UAEPAXI@Z 00461180 f i item_cmpfunc.obj
 0001:00060180       ??_Ecmp_item_int@@UAEPAXI@Z 00461180 f i item_cmpfunc.obj
 0001:00060190       ??_Gcmp_item_datetime@@UAEPAXI@Z 00461190 f i item_cmpfunc.obj
 0001:00060190       ??_Ecmp_item_datetime@@UAEPAXI@Z 00461190 f i item_cmpfunc.obj
 0001:000601a0       ??_Gcmp_item_real@@UAEPAXI@Z 004611a0 f i item_cmpfunc.obj
 0001:000601a0       ??_Ecmp_item_real@@UAEPAXI@Z 004611a0 f i item_cmpfunc.obj
 0001:000601b0       ??_Gcmp_item_decimal@@UAEPAXI@Z 004611b0 f i item_cmpfunc.obj
 0001:000601b0       ??_Ecmp_item_decimal@@UAEPAXI@Z 004611b0 f i item_cmpfunc.obj
 0001:000601c0       ??0cmp_item_sort_string_in_static@@QAE@PAUcharset_info_st@@@Z 004611c0 f i item_cmpfunc.obj
 0001:000601f0       ?store_value@cmp_item_sort_string_in_static@@UAEXPAVItem@@@Z 004611f0 f i item_cmpfunc.obj
 0001:00060210       ?cmp@cmp_item_sort_string_in_static@@UAEHPAVItem@@@Z 00461210 f i item_cmpfunc.obj
 0001:00060220       ?compare@cmp_item_sort_string_in_static@@UAEHPAVcmp_item@@@Z 00461220 f i item_cmpfunc.obj
 0001:00060250       ?make_same@cmp_item_sort_string_in_static@@UAEPAVcmp_item@@XZ 00461250 f i item_cmpfunc.obj
 0001:000602a0       ??1cmp_item_sort_string_in_static@@UAE@XZ 004612a0 f i item_cmpfunc.obj
 0001:000602e0       ??0Item_func_isnull@@QAE@PAVItem@@@Z 004612e0 f i item_cmpfunc.obj
 0001:00060340       ?functype@Item_func_isnull@@UBE?AW4Functype@Item_func@@XZ 00461340 f i item_cmpfunc.obj
 0001:00060350       ?fix_length_and_dec@Item_func_isnull@@UAEXXZ 00461350 f i item_cmpfunc.obj
 0001:00060370       ?func_name@Item_func_isnull@@UBEPBDXZ 00461370 f i item_cmpfunc.obj
 0001:00060380       ?update_used_tables@Item_func_isnull@@UAEXXZ 00461380 f i item_cmpfunc.obj
 0001:00060420       ?not_null_tables@Item_func_isnull@@UBE_KXZ 00461420 f i item_cmpfunc.obj
 0001:00060430       ?select_optimize@Item_func_isnull@@UBE?AW4optimize_type@Item_func@@XZ 00461430 f i item_cmpfunc.obj
 0001:00060440       ?compare_collation@Item_func_isnull@@UAEPAUcharset_info_st@@XZ 00461440 f i item_cmpfunc.obj
 0001:00060450       ??1Item_func_isnull@@UAE@XZ 00461450 f i item_cmpfunc.obj
 0001:00060490       ??0Item_func_isnotnull@@QAE@PAVItem@@@Z 00461490 f i item_cmpfunc.obj
 0001:000604f0       ?functype@Item_func_isnotnull@@UBE?AW4Functype@Item_func@@XZ 004614f0 f i item_cmpfunc.obj
 0001:00060500       ?fix_length_and_dec@Item_func_isnotnull@@UAEXXZ 00461500 f i item_cmpfunc.obj
 0001:00060520       ?func_name@Item_func_isnotnull@@UBEPBDXZ 00461520 f i item_cmpfunc.obj
 0001:00060530       ?select_optimize@Item_func_isnotnull@@UBE?AW4optimize_type@Item_func@@XZ 00461530 f i item_cmpfunc.obj
 0001:00060540       ?not_null_tables@Item_func_isnotnull@@UBE_KXZ 00461540 f i item_cmpfunc.obj
 0001:00060560       ?compare_collation@Item_func_isnotnull@@UAEPAUcharset_info_st@@XZ 00461560 f i item_cmpfunc.obj
 0001:00060570       ?top_level_item@Item_func_isnotnull@@UAEXXZ 00461570 f i item_cmpfunc.obj
 0001:00060580       ??1Item_func_isnotnull@@UAE@XZ 00461580 f i item_cmpfunc.obj
 0001:000605c0       ??0Item_cond@@QAE@PAVItem@@0@Z 004615c0 f i item_cmpfunc.obj
 0001:000606a0       ?type@Item_cond@@UBE?AW4Type@Item@@XZ 004616a0 f i item_cmpfunc.obj
 0001:000606b0       ?top_level_item@Item_cond@@UAEXXZ 004616b0 f i item_cmpfunc.obj
 0001:000606c0       ?field_type@Item_cond@@UBE?AW4enum_field_types@@XZ 004616c0 f i item_cmpfunc.obj
 0001:000606d0       ?subst_argument_checker@Item_cond@@UAE_NPAPAE@Z 004616d0 f i item_cmpfunc.obj
 0001:000606e0       ??0Item_cond@@QAE@AAV?$List@VItem@@@@@Z 004616e0 f i item_cmpfunc.obj
 0001:00060760       ?add@Item_cond@@QAE_NPAVItem@@@Z 00461760 f i item_cmpfunc.obj
 0001:000607d0       ??1Item_cond@@UAE@XZ       004617d0 f i item_cmpfunc.obj
 0001:00060810       ??0COND_EQUAL@@QAE@XZ      00461810 f i item_cmpfunc.obj
 0001:00060830       ??0Item_cond_and@@QAE@PAVItem@@0@Z 00461830 f i item_cmpfunc.obj
 0001:00060880       ?functype@Item_cond_and@@UBE?AW4Functype@Item_func@@XZ 00461880 f i item_cmpfunc.obj
 0001:00060890       ?func_name@Item_cond_and@@UBEPBDXZ 00461890 f i item_cmpfunc.obj
 0001:000608a0       ?not_null_tables@Item_cond_and@@UBE_KXZ 004618a0 f i item_cmpfunc.obj
 0001:000608d0       ??0Item_cond_and@@QAE@AAV?$List@VItem@@@@@Z 004618d0 f i item_cmpfunc.obj
 0001:00060910       ??1Item_cond_and@@UAE@XZ   00461910 f i item_cmpfunc.obj
 0001:00060950       ??0Item_cond_or@@QAE@AAV?$List@VItem@@@@@Z 00461950 f i item_cmpfunc.obj
 0001:00060970       ?functype@Item_cond_or@@UBE?AW4Functype@Item_func@@XZ 00461970 f i item_cmpfunc.obj
 0001:00060980       ?func_name@Item_cond_or@@UBEPBDXZ 00461980 f i item_cmpfunc.obj
 0001:00060990       ?not_null_tables@Item_cond_or@@UBE_KXZ 00461990 f i item_cmpfunc.obj
 0001:000609a0       ??1Item_cond_or@@UAE@XZ    004619a0 f i item_cmpfunc.obj
 0001:000609e0       ??0Item_cache@@QAE@W4enum_field_types@@@Z 004619e0 f i item_cmpfunc.obj
 0001:00060a20       ??0Item_cache_int@@QAE@W4enum_field_types@@@Z 00461a20 f i item_cmpfunc.obj
 0001:00060a70       ?create@Eq_creator@@UBEPAVItem_bool_func2@@PAVItem@@0@Z 00461a70 f   item_cmpfunc.obj
 0001:00060ac0       ?create@Ne_creator@@UBEPAVItem_bool_func2@@PAVItem@@0@Z 00461ac0 f   item_cmpfunc.obj
 0001:00060b10       ?create@Gt_creator@@UBEPAVItem_bool_func2@@PAVItem@@0@Z 00461b10 f   item_cmpfunc.obj
 0001:00060b60       ?create@Lt_creator@@UBEPAVItem_bool_func2@@PAVItem@@0@Z 00461b60 f   item_cmpfunc.obj
 0001:00060bb0       ?create@Ge_creator@@UBEPAVItem_bool_func2@@PAVItem@@0@Z 00461bb0 f   item_cmpfunc.obj
 0001:00060c00       ?create@Le_creator@@UBEPAVItem_bool_func2@@PAVItem@@0@Z 00461c00 f   item_cmpfunc.obj
 0001:00060c50       ?val_int@Item_func_not_all@@UAE_JXZ 00461c50 f   item_cmpfunc.obj
 0001:00060cb0       ?set_compare_func@Arg_comparator@@QAEHPAVItem_bool_func2@@W4Item_result@@@Z 00461cb0 f   item_cmpfunc.obj
 0001:000610f0       ?can_compare_as_dates@Arg_comparator@@SA?AW4enum_date_cmp_type@1@PAVItem@@0PA_K@Z 004620f0 f   item_cmpfunc.obj
 0001:000612f0       ?get_time_value@@YA_JPAVTHD@@PAPAPAVItem@@PAPAV2@PAV2@PA_N@Z 004622f0 f   item_cmpfunc.obj
 0001:00061420       ?get_datetime_value@@YA_JPAVTHD@@PAPAPAVItem@@PAPAV2@PAV2@PA_N@Z 00462420 f   item_cmpfunc.obj
 0001:00061650       ?val_int@Item_func_case@@UAE_JXZ 00462650 f   item_cmpfunc.obj
 0001:000616d0       ?val_real@Item_func_case@@UAENXZ 004626d0 f   item_cmpfunc.obj
 0001:00061750       ?val_decimal@Item_func_case@@UAEPAVmy_decimal@@PAV2@@Z 00462750 f   item_cmpfunc.obj
 0001:000617e0       ??0in_string@@QAE@IP6AHPBX00@ZPAUcharset_info_st@@@Z 004627e0 f   item_cmpfunc.obj
 0001:00061860       ?value_to_item@in_string@@UAEXIPAVItem@@@Z 00462860 f i item_cmpfunc.obj
 0001:000618d0       ?result_type@in_string@@UAE?AW4Item_result@@XZ 004628d0 f i item_cmpfunc.obj
 0001:000618e0       ??0Item_string@@QAE@PAUcharset_info_st@@W4Derivation@@@Z 004628e0 f i item_cmpfunc.obj
 0001:00061940       ?create_item@in_string@@UAEPAVItem@@XZ 00462940 f i item_cmpfunc.obj
 0001:00061970       ??1in_string@@UAE@XZ       00462970 f   item_cmpfunc.obj
 0001:00061a20       ??0in_row@@QAE@IPAVItem@@@Z 00462a20 f   item_cmpfunc.obj
 0001:00061af0       ?result_type@in_row@@UAE?AW4Item_result@@XZ 00462af0 f i item_cmpfunc.obj
 0001:00061b00       ??_Ecmp_item_row@@UAEPAXI@Z 00462b00 f i item_cmpfunc.obj
 0001:00061b60       ??1in_row@@UAE@XZ          00462b60 f   item_cmpfunc.obj
 0001:00061bc0       ?set@in_datetime@@UAEXIPAVItem@@@Z 00462bc0 f   item_cmpfunc.obj
 0001:00061c20       ?get_value@in_datetime@@UAEPAEPAVItem@@@Z 00462c20 f   item_cmpfunc.obj
 0001:00061cb0       ??_Ein_double@@UAEPAXI@Z   00462cb0 f i item_cmpfunc.obj
 0001:00061cb0       ??_Gin_double@@UAEPAXI@Z   00462cb0 f i item_cmpfunc.obj
 0001:00061cc0       ??_Gin_decimal@@UAEPAXI@Z  00462cc0 f i item_cmpfunc.obj
 0001:00061cc0       ??_Ein_decimal@@UAEPAXI@Z  00462cc0 f i item_cmpfunc.obj
 0001:00061cd0       ?get_comparator@cmp_item@@SAPAV1@W4Item_result@@PAUcharset_info_st@@@Z 00462cd0 f   item_cmpfunc.obj
 0001:00061de0       ?make_same@cmp_item_sort_string@@UAEPAVcmp_item@@XZ 00462de0 f   item_cmpfunc.obj
 0001:00061e30       ?store_value@cmp_item_row@@UAEXPAVItem@@@Z 00462e30 f   item_cmpfunc.obj
 0001:00061f50       ?store_value@cmp_item_datetime@@UAEXPAVItem@@@Z 00462f50 f   item_cmpfunc.obj
 0001:00061fb0       ?cmp@cmp_item_datetime@@UAEHPAVItem@@@Z 00462fb0 f   item_cmpfunc.obj
 0001:00062010       ??0Item_cond@@QAE@PAVTHD@@PAV0@@Z 00463010 f   item_cmpfunc.obj
 0001:00062080       ?and_expressions@@YAPAVItem@@PAV1@0PAPAV1@@Z 00463080 f   item_cmpfunc.obj
 0001:000621a0       ?val_int@Item_func_like@@UAE_JXZ 004631a0 f   item_cmpfunc.obj
 0001:000622a0       ?fix_fields@Item_func_like@@UAE_NPAVTHD@@PAPAVItem@@@Z 004632a0 f   item_cmpfunc.obj
 0001:000625d0       ?regcomp@Item_func_regex@@AAEH_N@Z 004635d0 f   item_cmpfunc.obj
 0001:000627d0       ?fix_fields@Item_func_regex@@UAE_NPAVTHD@@PAPAVItem@@@Z 004637d0 f   item_cmpfunc.obj
 0001:00062a40       ?val_int@Item_func_regex@@UAE_JXZ 00463a40 f   item_cmpfunc.obj
 0001:00062c10       ?neg_transformer@Item_func_isnull@@UAEPAVItem@@PAVTHD@@@Z 00463c10 f   item_cmpfunc.obj
 0001:00062c50       ?neg_transformer@Item_func_isnotnull@@UAEPAVItem@@PAVTHD@@@Z 00463c50 f   item_cmpfunc.obj
 0001:00062cd0       ?neg_transformer@Item_func_nop_all@@UAEPAVItem@@PAVTHD@@@Z 00463cd0 f   item_cmpfunc.obj
 0001:00062d50       ?neg_transformer@Item_func_not_all@@UAEPAVItem@@PAVTHD@@@Z 00463d50 f   item_cmpfunc.obj
 0001:00062dd0       ?negated_item@Item_func_eq@@UAEPAVItem@@XZ 00463dd0 f   item_cmpfunc.obj
 0001:00062e20       ?negated_item@Item_func_ne@@UAEPAVItem@@XZ 00463e20 f   item_cmpfunc.obj
 0001:00062e70       ?negated_item@Item_func_lt@@UAEPAVItem@@XZ 00463e70 f   item_cmpfunc.obj
 0001:00062ec0       ?negated_item@Item_func_ge@@UAEPAVItem@@XZ 00463ec0 f   item_cmpfunc.obj
 0001:00062f10       ?negated_item@Item_func_gt@@UAEPAVItem@@XZ 00463f10 f   item_cmpfunc.obj
 0001:00062f60       ?negated_item@Item_func_le@@UAEPAVItem@@XZ 00463f60 f   item_cmpfunc.obj
 0001:00062fb0       ??0Item_equal@@QAE@PAVItem_field@@0@Z 00463fb0 f   item_cmpfunc.obj
 0001:000630a0       ?functype@Item_equal@@UBE?AW4Functype@Item_func@@XZ 004640a0 f i item_cmpfunc.obj
 0001:000630b0       ?func_name@Item_equal@@UBEPBDXZ 004640b0 f i item_cmpfunc.obj
 0001:000630c0       ?select_optimize@Item_equal@@UBE?AW4optimize_type@Item_func@@XZ 004640c0 f i item_cmpfunc.obj
 0001:000630d0       ?compare_collation@Item_equal@@UAEPAUcharset_info_st@@XZ 004640d0 f i item_cmpfunc.obj
 0001:000630e0       ??1Item_equal@@UAE@XZ      004640e0 f i item_cmpfunc.obj
 0001:00063120       ??0Item_equal@@QAE@PAVItem@@PAVItem_field@@@Z 00464120 f   item_cmpfunc.obj
 0001:000631f0       ?add@Item_equal@@QAEXPAVItem_field@@@Z 004641f0 f   item_cmpfunc.obj
 0001:00063250       ?fix_length_and_dec@Item_equal@@UAEXXZ 00464250 f   item_cmpfunc.obj
 0001:00063290       ?concat@?$List@VItem_field@@@@QAEXPAV1@@Z 00464290 f i item_cmpfunc.obj
 0001:000632c0       ??0?$List_iterator_fast@VItem_field@@@@QAE@AAV?$List@VItem_field@@@@@Z 004642c0 f i item_cmpfunc.obj
 0001:000632e0       ??0?$List_iterator_fast@VItem@@@@QAE@AAV?$List@VItem@@@@@Z 004642e0 f i item_cmpfunc.obj
 0001:00063300       ??0?$List_iterator@VItem@@@@QAE@AAV?$List@VItem@@@@@Z 00464300 f i item_cmpfunc.obj
 0001:00063320       ?remove@base_list@@QAEXPAPAUlist_node@@@Z 00464320 f i item_cmpfunc.obj
 0001:00063350       ?remove@base_list_iterator@@QAEXXZ 00464350 f i item_cmpfunc.obj
 0001:000633b0       ??0Item_int@@QAE@_JI@Z     004643b0 f i item_cmpfunc.obj
 0001:000633f0       ??0Item_float@@QAE@NI@Z    004643f0 f i item_cmpfunc.obj
 0001:00063430       ??0Item_int_with_ref@@QAE@_JPAVItem@@D@Z 00464430 f i item_cmpfunc.obj
 0001:00063480       ?save_in_field@Item_int_with_ref@@UAEHPAVField@@_N@Z 00464480 f i item_cmpfunc.obj
 0001:00063490       ?real_item@Item_int_with_ref@@UAEPAVItem@@XZ 00464490 f i item_cmpfunc.obj
 0001:000634a0       ??1Item_int_with_ref@@UAE@XZ 004644a0 f i item_cmpfunc.obj
 0001:000634e0       ??_GItem_int_with_ref@@UAEPAXI@Z 004644e0 f i item_cmpfunc.obj
 0001:000634e0       ??_EItem_int_with_ref@@UAEPAXI@Z 004644e0 f i item_cmpfunc.obj
 0001:00063520       ??_GItem_int_func@@UAEPAXI@Z 00464520 f i item_cmpfunc.obj
 0001:00063520       ??_EItem_int_func@@UAEPAXI@Z 00464520 f i item_cmpfunc.obj
 0001:00063560       ??_EItem_bool_func@@UAEPAXI@Z 00464560 f i item_cmpfunc.obj
 0001:00063560       ??_GItem_bool_func@@UAEPAXI@Z 00464560 f i item_cmpfunc.obj
 0001:000635a0       ??_GItem_bool_func2@@UAEPAXI@Z 004645a0 f i item_cmpfunc.obj
 0001:000635a0       ??_EItem_bool_func2@@UAEPAXI@Z 004645a0 f i item_cmpfunc.obj
 0001:000635c0       ??_GItem_bool_rowready_func2@@UAEPAXI@Z 004645c0 f i item_cmpfunc.obj
 0001:000635c0       ??_EItem_bool_rowready_func2@@UAEPAXI@Z 004645c0 f i item_cmpfunc.obj
 0001:000635e0       ??_EItem_func_not@@UAEPAXI@Z 004645e0 f i item_cmpfunc.obj
 0001:000635e0       ??_GItem_func_not@@UAEPAXI@Z 004645e0 f i item_cmpfunc.obj
 0001:00063620       ??_EItem_func_not_all@@UAEPAXI@Z 00464620 f i item_cmpfunc.obj
 0001:00063620       ??_GItem_func_not_all@@UAEPAXI@Z 00464620 f i item_cmpfunc.obj
 0001:00063660       ??_EItem_func_nop_all@@UAEPAXI@Z 00464660 f i item_cmpfunc.obj
 0001:00063660       ??_GItem_func_nop_all@@UAEPAXI@Z 00464660 f i item_cmpfunc.obj
 0001:000636a0       ??_GItem_func_eq@@UAEPAXI@Z 004646a0 f i item_cmpfunc.obj
 0001:000636a0       ??_EItem_func_eq@@UAEPAXI@Z 004646a0 f i item_cmpfunc.obj
 0001:000636c0       ??_GItem_func_ge@@UAEPAXI@Z 004646c0 f i item_cmpfunc.obj
 0001:000636c0       ??_EItem_func_ge@@UAEPAXI@Z 004646c0 f i item_cmpfunc.obj
 0001:000636e0       ??_GItem_func_gt@@UAEPAXI@Z 004646e0 f i item_cmpfunc.obj
 0001:000636e0       ??_EItem_func_gt@@UAEPAXI@Z 004646e0 f i item_cmpfunc.obj
 0001:00063700       ??_GItem_func_le@@UAEPAXI@Z 00464700 f i item_cmpfunc.obj
 0001:00063700       ??_EItem_func_le@@UAEPAXI@Z 00464700 f i item_cmpfunc.obj
 0001:00063720       ??_EItem_func_lt@@UAEPAXI@Z 00464720 f i item_cmpfunc.obj
 0001:00063720       ??_GItem_func_lt@@UAEPAXI@Z 00464720 f i item_cmpfunc.obj
 0001:00063740       ??_GItem_func_ne@@UAEPAXI@Z 00464740 f i item_cmpfunc.obj
 0001:00063740       ??_EItem_func_ne@@UAEPAXI@Z 00464740 f i item_cmpfunc.obj
 0001:00063760       ?create_item@in_longlong@@UAEPAVItem@@XZ 00464760 f i item_cmpfunc.obj
 0001:000637b0       ?create_item@in_double@@UAEPAVItem@@XZ 004647b0 f i item_cmpfunc.obj
 0001:00063800       ??_Gcmp_item_sort_string@@UAEPAXI@Z 00464800 f i item_cmpfunc.obj
 0001:00063800       ??_Ecmp_item_sort_string@@UAEPAXI@Z 00464800 f i item_cmpfunc.obj
 0001:00063840       ??_Gcmp_item_sort_string_in_static@@UAEPAXI@Z 00464840 f i item_cmpfunc.obj
 0001:00063840       ??_Ecmp_item_sort_string_in_static@@UAEPAXI@Z 00464840 f i item_cmpfunc.obj
 0001:00063880       ??_EItem_func_isnull@@UAEPAXI@Z 00464880 f i item_cmpfunc.obj
 0001:00063880       ??_GItem_func_isnull@@UAEPAXI@Z 00464880 f i item_cmpfunc.obj
 0001:000638c0       ??_GItem_func_isnotnull@@UAEPAXI@Z 004648c0 f i item_cmpfunc.obj
 0001:000638c0       ??_EItem_func_isnotnull@@UAEPAXI@Z 004648c0 f i item_cmpfunc.obj
 0001:00063900       ??_GItem_cond@@UAEPAXI@Z   00464900 f i item_cmpfunc.obj
 0001:00063900       ??_EItem_cond@@UAEPAXI@Z   00464900 f i item_cmpfunc.obj
 0001:00063940       ??_GItem_equal@@UAEPAXI@Z  00464940 f i item_cmpfunc.obj
 0001:00063940       ??_EItem_equal@@UAEPAXI@Z  00464940 f i item_cmpfunc.obj
 0001:00063980       ??0Item_cond_and@@QAE@PAVTHD@@PAV0@@Z 00464980 f i item_cmpfunc.obj
 0001:000639d0       ??_GItem_cond_and@@UAEPAXI@Z 004649d0 f i item_cmpfunc.obj
 0001:000639d0       ??_EItem_cond_and@@UAEPAXI@Z 004649d0 f i item_cmpfunc.obj
 0001:00063a10       ??0Item_cond_or@@QAE@PAVTHD@@PAV0@@Z 00464a10 f i item_cmpfunc.obj
 0001:00063a40       ??_GItem_cond_or@@UAEPAXI@Z 00464a40 f i item_cmpfunc.obj
 0001:00063a40       ??_EItem_cond_or@@UAEPAXI@Z 00464a40 f i item_cmpfunc.obj
 0001:00063c40       ?set_cmp_func@Arg_comparator@@QAEHPAVItem_bool_func2@@PAPAVItem@@1W4Item_result@@@Z 00464c40 f   item_cmpfunc.obj
 0001:00063ea0       ?set_datetime_cmp_func@Arg_comparator@@QAEXPAPAVItem@@0@Z 00464ea0 f   item_cmpfunc.obj
 0001:00063f20       ?fix_length_and_dec@Item_func_between@@UAEXXZ 00464f20 f   item_cmpfunc.obj
 0001:00064170       ?fix_length_and_dec@Item_func_case@@UAEXXZ 00465170 f   item_cmpfunc.obj
 0001:00064500       ??_Ein_string@@UAEPAXI@Z   00465500 f i item_cmpfunc.obj
 0001:00064500       ??_Gin_string@@UAEPAXI@Z   00465500 f i item_cmpfunc.obj
 0001:00064520       ??_Ein_row@@UAEPAXI@Z      00465520 f i item_cmpfunc.obj
 0001:00064520       ??_Gin_row@@UAEPAXI@Z      00465520 f i item_cmpfunc.obj
 0001:00064540       ?fix_length_and_dec@Item_func_in@@UAEXXZ 00465540 f   item_cmpfunc.obj
 0001:00064dd0       ?copy_andor_arguments@Item_cond@@QAEXPAVTHD@@PAV1@@Z 00465dd0 f   item_cmpfunc.obj
 0001:00064e70       ?fix_fields@Item_cond@@UAE_NPAVTHD@@PAPAVItem@@@Z 00465e70 f   item_cmpfunc.obj
 0001:00065130       ?walk@Item_cond@@UAE_NP8Item@@AE_NPAE@Z_N0@Z 00466130 f   item_cmpfunc.obj
 0001:000651b0       ?transform@Item_cond@@UAEPAVItem@@P82@AEPAV2@PAE@Z0@Z 004661b0 f   item_cmpfunc.obj
 0001:00065270       ?compile@Item_cond@@UAEPAVItem@@P82@AE_NPAPAE@Z0P82@AEPAV2@PAE@Z2@Z 00466270 f   item_cmpfunc.obj
 0001:00065310       ?traverse_cond@Item_cond@@UAEXP6AXPBVItem@@PAX@Z1W4traverse_order@2@@Z 00466310 f   item_cmpfunc.obj
 0001:000653d0       ?split_sum_func@Item_cond@@UAEXPAVTHD@@PAPAVItem@@AAV?$List@VItem@@@@@Z 004663d0 f   item_cmpfunc.obj
 0001:00065420       ?update_used_tables@Item_cond@@UAEXXZ 00466420 f   item_cmpfunc.obj
 0001:000654a0       ?print@Item_cond@@UAEXPAVString@@W4enum_query_type@@@Z 004664a0 f   item_cmpfunc.obj
 0001:00065630       ?neg_arguments@Item_cond@@QAEXPAVTHD@@@Z 00466630 f   item_cmpfunc.obj
 0001:000656f0       ?val_int@Item_cond_and@@UAE_JXZ 004666f0 f   item_cmpfunc.obj
 0001:00065760       ?val_int@Item_cond_or@@UAE_JXZ 00466760 f   item_cmpfunc.obj
 0001:000657c0       ?val_int@Item_cond_xor@@UAE_JXZ 004667c0 f   item_cmpfunc.obj
 0001:00065830       ?neg_transformer@Item_cond_and@@UAEPAVItem@@PAVTHD@@@Z 00466830 f   item_cmpfunc.obj
 0001:00065890       ?neg_transformer@Item_cond_or@@UAEPAVItem@@PAVTHD@@@Z 00466890 f   item_cmpfunc.obj
 0001:00065910       ??0Item_equal@@QAE@PAV0@@Z 00466910 f   item_cmpfunc.obj
 0001:00065a10       ?contains@Item_equal@@QAE_NPAVField@@@Z 00466a10 f   item_cmpfunc.obj
 0001:00065a60       ?sort@Item_equal@@QAEXP6AHPAVItem_field@@0PAX@Z1@Z 00466a60 f   item_cmpfunc.obj
 0001:00065b00       ?fix_fields@Item_equal@@UAE_NPAVTHD@@PAPAVItem@@@Z 00466b00 f   item_cmpfunc.obj
 0001:00065b90       ?update_used_tables@Item_equal@@UAEXXZ 00466b90 f   item_cmpfunc.obj
 0001:00065c20       ?val_int@Item_equal@@UAE_JXZ 00466c20 f   item_cmpfunc.obj
 0001:00065ce0       ?walk@Item_equal@@UAE_NP8Item@@AE_NPAE@Z_N0@Z 00466ce0 f   item_cmpfunc.obj
 0001:00065d60       ?transform@Item_equal@@UAEPAVItem@@P82@AEPAV2@PAE@Z0@Z 00466d60 f   item_cmpfunc.obj
 0001:00065e20       ?print@Item_equal@@UAEXPAVString@@W4enum_query_type@@@Z 00466e20 f   item_cmpfunc.obj
 0001:00065fb0       ?remove@?$List_iterator@VItem_field@@@@QAEXXZ 00466fb0 f i item_cmpfunc.obj
 0001:00066010       ?set_cmp_func@Arg_comparator@@QAEHPAVItem_bool_func2@@PAPAVItem@@1@Z 00467010 f i item_cmpfunc.obj
 0001:00066070       ?set_cmp_func@Item_bool_func2@@QAEXXZ 00467070 f i item_cmpfunc.obj
 0001:000660d0       ?copy_andor_structure@Item_cond_and@@UAEPAVItem@@PAVTHD@@@Z 004670d0 f i item_cmpfunc.obj
 0001:00066150       ?copy_andor_structure@Item_cond_or@@UAEPAVItem@@PAVTHD@@@Z 00467150 f i item_cmpfunc.obj
 0001:000661b0       ?fix_length_and_dec@Item_bool_func2@@UAEXXZ 004671b0 f   item_cmpfunc.obj
 0001:00066470       ?fix_length_and_dec@Item_func_equal@@UAEXXZ 00467470 f   item_cmpfunc.obj
 0001:00066490       ?fix_length_and_dec@Item_func_nullif@@UAEXXZ 00467490 f   item_cmpfunc.obj
 0001:00066520       ?add@Item_equal@@QAEXPAVItem@@@Z 00467520 f   item_cmpfunc.obj
 0001:000665e0       ?merge@Item_equal@@QAEXPAV1@@Z 004675e0 f   item_cmpfunc.obj
 0001:00066650       ?update_const@Item_equal@@QAEXXZ 00467650 f   item_cmpfunc.obj
 0001:000666e0       ?pop@base_list@@QAEPAXXZ   004676e0 f i item_create.obj
 0001:00066710       ??0udf_handler@@QAE@PAUst_udf_func@@@Z 00467710 f i item_create.obj
 0001:00066740       ??2Item@@SAPAXIPAUst_mem_root@@@Z 00467740 f i item_create.obj
 0001:00066760       ?constructor_helper@Item_func_encrypt@@AAEXXZ 00467760 f i item_create.obj
 0001:00066790       ?set_stmt_unsafe@Query_tables_list@@QAEXXZ 00467790 f i item_create.obj
 0001:000667a0       ?uncacheable@st_lex@@QAEXE@Z 004677a0 f i item_create.obj
 0001:00066800       ??0Create_func@@IAE@XZ     00467800 f i item_create.obj
 0001:00066810       ??1Create_func@@MAE@XZ     00467810 f i item_create.obj
 0001:00066820       ??_GCreate_func@@MAEPAXI@Z 00467820 f i item_create.obj
 0001:00066820       ??_ECreate_func@@MAEPAXI@Z 00467820 f i item_create.obj
 0001:00066850       ??0Create_qfunc@@IAE@XZ    00467850 f i item_create.obj
 0001:00066860       ??1Create_qfunc@@MAE@XZ    00467860 f i item_create.obj
 0001:00066870       ??_ECreate_qfunc@@MAEPAXI@Z 00467870 f i item_create.obj
 0001:00066870       ??_GCreate_qfunc@@MAEPAXI@Z 00467870 f i item_create.obj
 0001:000668a0       ??0Create_udf_func@@IAE@XZ 004678a0 f i item_create.obj
 0001:000668b0       ??1Create_udf_func@@MAE@XZ 004678b0 f i item_create.obj
 0001:000668c0       ??_ECreate_udf_func@@MAEPAXI@Z 004678c0 f i item_create.obj
 0001:000668c0       ??_GCreate_udf_func@@MAEPAXI@Z 004678c0 f i item_create.obj
 0001:000668f0       ??0sp_name@@QAE@Ust_mysql_lex_string@@0_N@Z 004678f0 f i item_create.obj
 0001:00066940       ??0Create_native_func@@IAE@XZ 00467940 f i item_create.obj
 0001:00066950       ??1Create_native_func@@MAE@XZ 00467950 f i item_create.obj
 0001:00066960       ??_GCreate_native_func@@MAEPAXI@Z 00467960 f i item_create.obj
 0001:00066960       ??_ECreate_native_func@@MAEPAXI@Z 00467960 f i item_create.obj
 0001:00066990       ??0Create_func_arg0@@IAE@XZ 00467990 f i item_create.obj
 0001:000669a0       ??1Create_func_arg0@@MAE@XZ 004679a0 f i item_create.obj
 0001:000669b0       ??_ECreate_func_arg0@@MAEPAXI@Z 004679b0 f i item_create.obj
 0001:000669b0       ??_GCreate_func_arg0@@MAEPAXI@Z 004679b0 f i item_create.obj
 0001:000669e0       ??0Create_func_arg1@@IAE@XZ 004679e0 f i item_create.obj
 0001:000669f0       ??1Create_func_arg1@@MAE@XZ 004679f0 f i item_create.obj
 0001:00066a00       ??_ECreate_func_arg1@@MAEPAXI@Z 00467a00 f i item_create.obj
 0001:00066a00       ??_GCreate_func_arg1@@MAEPAXI@Z 00467a00 f i item_create.obj
 0001:00066a30       ??0Create_func_arg2@@IAE@XZ 00467a30 f i item_create.obj
 0001:00066a40       ??1Create_func_arg2@@MAE@XZ 00467a40 f i item_create.obj
 0001:00066a50       ??_ECreate_func_arg2@@MAEPAXI@Z 00467a50 f i item_create.obj
 0001:00066a50       ??_GCreate_func_arg2@@MAEPAXI@Z 00467a50 f i item_create.obj
 0001:00066a80       ??0Create_func_arg3@@IAE@XZ 00467a80 f i item_create.obj
 0001:00066a90       ??1Create_func_arg3@@MAE@XZ 00467a90 f i item_create.obj
 0001:00066aa0       ??_GCreate_func_arg3@@MAEPAXI@Z 00467aa0 f i item_create.obj
 0001:00066aa0       ??_ECreate_func_arg3@@MAEPAXI@Z 00467aa0 f i item_create.obj
 0001:00066ad0       ??0Create_sp_func@@IAE@XZ  00467ad0 f i item_create.obj
 0001:00066ae0       ??1Create_sp_func@@MAE@XZ  00467ae0 f i item_create.obj
 0001:00066af0       ??_ECreate_sp_func@@MAEPAXI@Z 00467af0 f i item_create.obj
 0001:00066af0       ??_GCreate_sp_func@@MAEPAXI@Z 00467af0 f i item_create.obj
 0001:00066b20       ??0Create_func_abs@@IAE@XZ 00467b20 f i item_create.obj
 0001:00066b30       ??1Create_func_abs@@MAE@XZ 00467b30 f i item_create.obj
 0001:00066b40       ??_GCreate_func_abs@@MAEPAXI@Z 00467b40 f i item_create.obj
 0001:00066b40       ??_ECreate_func_abs@@MAEPAXI@Z 00467b40 f i item_create.obj
 0001:00066b70       ??0Create_func_acos@@IAE@XZ 00467b70 f i item_create.obj
 0001:00066b80       ??1Create_func_acos@@MAE@XZ 00467b80 f i item_create.obj
 0001:00066b90       ??_GCreate_func_acos@@MAEPAXI@Z 00467b90 f i item_create.obj
 0001:00066b90       ??_ECreate_func_acos@@MAEPAXI@Z 00467b90 f i item_create.obj
 0001:00066bc0       ??0Create_func_addtime@@IAE@XZ 00467bc0 f i item_create.obj
 0001:00066bd0       ??1Create_func_addtime@@MAE@XZ 00467bd0 f i item_create.obj
 0001:00066be0       ??_GCreate_func_addtime@@MAEPAXI@Z 00467be0 f i item_create.obj
 0001:00066be0       ??_ECreate_func_addtime@@MAEPAXI@Z 00467be0 f i item_create.obj
 0001:00066c10       ??0Create_func_aes_encrypt@@IAE@XZ 00467c10 f i item_create.obj
 0001:00066c20       ??1Create_func_aes_encrypt@@MAE@XZ 00467c20 f i item_create.obj
 0001:00066c30       ??_ECreate_func_aes_encrypt@@MAEPAXI@Z 00467c30 f i item_create.obj
 0001:00066c30       ??_GCreate_func_aes_encrypt@@MAEPAXI@Z 00467c30 f i item_create.obj
 0001:00066c60       ??0Create_func_aes_decrypt@@IAE@XZ 00467c60 f i item_create.obj
 0001:00066c70       ??1Create_func_aes_decrypt@@MAE@XZ 00467c70 f i item_create.obj
 0001:00066c80       ??_ECreate_func_aes_decrypt@@MAEPAXI@Z 00467c80 f i item_create.obj
 0001:00066c80       ??_GCreate_func_aes_decrypt@@MAEPAXI@Z 00467c80 f i item_create.obj
 0001:00066cb0       ??0Create_func_area@@IAE@XZ 00467cb0 f i item_create.obj
 0001:00066cc0       ??1Create_func_area@@MAE@XZ 00467cc0 f i item_create.obj
 0001:00066cd0       ??_GCreate_func_area@@MAEPAXI@Z 00467cd0 f i item_create.obj
 0001:00066cd0       ??_ECreate_func_area@@MAEPAXI@Z 00467cd0 f i item_create.obj
 0001:00066d00       ??0Create_func_as_wkb@@IAE@XZ 00467d00 f i item_create.obj
 0001:00066d10       ??1Create_func_as_wkb@@MAE@XZ 00467d10 f i item_create.obj
 0001:00066d20       ??_GCreate_func_as_wkb@@MAEPAXI@Z 00467d20 f i item_create.obj
 0001:00066d20       ??_ECreate_func_as_wkb@@MAEPAXI@Z 00467d20 f i item_create.obj
 0001:00066d50       ??0Create_func_as_wkt@@IAE@XZ 00467d50 f i item_create.obj
 0001:00066d60       ??1Create_func_as_wkt@@MAE@XZ 00467d60 f i item_create.obj
 0001:00066d70       ??_GCreate_func_as_wkt@@MAEPAXI@Z 00467d70 f i item_create.obj
 0001:00066d70       ??_ECreate_func_as_wkt@@MAEPAXI@Z 00467d70 f i item_create.obj
 0001:00066da0       ??0Create_func_asin@@IAE@XZ 00467da0 f i item_create.obj
 0001:00066db0       ??1Create_func_asin@@MAE@XZ 00467db0 f i item_create.obj
 0001:00066dc0       ??_ECreate_func_asin@@MAEPAXI@Z 00467dc0 f i item_create.obj
 0001:00066dc0       ??_GCreate_func_asin@@MAEPAXI@Z 00467dc0 f i item_create.obj
 0001:00066df0       ??0Create_func_atan@@IAE@XZ 00467df0 f i item_create.obj
 0001:00066e00       ??1Create_func_atan@@MAE@XZ 00467e00 f i item_create.obj
 0001:00066e10       ??_GCreate_func_atan@@MAEPAXI@Z 00467e10 f i item_create.obj
 0001:00066e10       ??_ECreate_func_atan@@MAEPAXI@Z 00467e10 f i item_create.obj
 0001:00066e40       ??0Create_func_benchmark@@IAE@XZ 00467e40 f i item_create.obj
 0001:00066e50       ??1Create_func_benchmark@@MAE@XZ 00467e50 f i item_create.obj
 0001:00066e60       ??_ECreate_func_benchmark@@MAEPAXI@Z 00467e60 f i item_create.obj
 0001:00066e60       ??_GCreate_func_benchmark@@MAEPAXI@Z 00467e60 f i item_create.obj
 0001:00066e90       ??0Create_func_bin@@IAE@XZ 00467e90 f i item_create.obj
 0001:00066ea0       ??1Create_func_bin@@MAE@XZ 00467ea0 f i item_create.obj
 0001:00066eb0       ??_GCreate_func_bin@@MAEPAXI@Z 00467eb0 f i item_create.obj
 0001:00066eb0       ??_ECreate_func_bin@@MAEPAXI@Z 00467eb0 f i item_create.obj
 0001:00066ee0       ??0Create_func_bit_count@@IAE@XZ 00467ee0 f i item_create.obj
 0001:00066ef0       ??1Create_func_bit_count@@MAE@XZ 00467ef0 f i item_create.obj
 0001:00066f00       ??_GCreate_func_bit_count@@MAEPAXI@Z 00467f00 f i item_create.obj
 0001:00066f00       ??_ECreate_func_bit_count@@MAEPAXI@Z 00467f00 f i item_create.obj
 0001:00066f30       ??0Create_func_bit_length@@IAE@XZ 00467f30 f i item_create.obj
 0001:00066f40       ??1Create_func_bit_length@@MAE@XZ 00467f40 f i item_create.obj
 0001:00066f50       ??_GCreate_func_bit_length@@MAEPAXI@Z 00467f50 f i item_create.obj
 0001:00066f50       ??_ECreate_func_bit_length@@MAEPAXI@Z 00467f50 f i item_create.obj
 0001:00066f80       ??0Create_func_ceiling@@IAE@XZ 00467f80 f i item_create.obj
 0001:00066f90       ??1Create_func_ceiling@@MAE@XZ 00467f90 f i item_create.obj
 0001:00066fa0       ??_ECreate_func_ceiling@@MAEPAXI@Z 00467fa0 f i item_create.obj
 0001:00066fa0       ??_GCreate_func_ceiling@@MAEPAXI@Z 00467fa0 f i item_create.obj
 0001:00066fd0       ??0Create_func_centroid@@IAE@XZ 00467fd0 f i item_create.obj
 0001:00066fe0       ??1Create_func_centroid@@MAE@XZ 00467fe0 f i item_create.obj
 0001:00066ff0       ??_ECreate_func_centroid@@MAEPAXI@Z 00467ff0 f i item_create.obj
 0001:00066ff0       ??_GCreate_func_centroid@@MAEPAXI@Z 00467ff0 f i item_create.obj
 0001:00067020       ??0Create_func_char_length@@IAE@XZ 00468020 f i item_create.obj
 0001:00067030       ??1Create_func_char_length@@MAE@XZ 00468030 f i item_create.obj
 0001:00067040       ??_GCreate_func_char_length@@MAEPAXI@Z 00468040 f i item_create.obj
 0001:00067040       ??_ECreate_func_char_length@@MAEPAXI@Z 00468040 f i item_create.obj
 0001:00067070       ??0Create_func_coercibility@@IAE@XZ 00468070 f i item_create.obj
 0001:00067080       ??1Create_func_coercibility@@MAE@XZ 00468080 f i item_create.obj
 0001:00067090       ??_GCreate_func_coercibility@@MAEPAXI@Z 00468090 f i item_create.obj
 0001:00067090       ??_ECreate_func_coercibility@@MAEPAXI@Z 00468090 f i item_create.obj
 0001:000670c0       ??0Create_func_compress@@IAE@XZ 004680c0 f i item_create.obj
 0001:000670d0       ??1Create_func_compress@@MAE@XZ 004680d0 f i item_create.obj
 0001:000670e0       ??_ECreate_func_compress@@MAEPAXI@Z 004680e0 f i item_create.obj
 0001:000670e0       ??_GCreate_func_compress@@MAEPAXI@Z 004680e0 f i item_create.obj
 0001:00067110       ??0Create_func_concat@@IAE@XZ 00468110 f i item_create.obj
 0001:00067120       ??1Create_func_concat@@MAE@XZ 00468120 f i item_create.obj
 0001:00067130       ??_ECreate_func_concat@@MAEPAXI@Z 00468130 f i item_create.obj
 0001:00067130       ??_GCreate_func_concat@@MAEPAXI@Z 00468130 f i item_create.obj
 0001:00067160       ??0Create_func_concat_ws@@IAE@XZ 00468160 f i item_create.obj
 0001:00067170       ??1Create_func_concat_ws@@MAE@XZ 00468170 f i item_create.obj
 0001:00067180       ??_ECreate_func_concat_ws@@MAEPAXI@Z 00468180 f i item_create.obj
 0001:00067180       ??_GCreate_func_concat_ws@@MAEPAXI@Z 00468180 f i item_create.obj
 0001:000671b0       ??0Create_func_connection_id@@IAE@XZ 004681b0 f i item_create.obj
 0001:000671c0       ??1Create_func_connection_id@@MAE@XZ 004681c0 f i item_create.obj
 0001:000671d0       ??_ECreate_func_connection_id@@MAEPAXI@Z 004681d0 f i item_create.obj
 0001:000671d0       ??_GCreate_func_connection_id@@MAEPAXI@Z 004681d0 f i item_create.obj
 0001:00067200       ??0Create_func_contains@@IAE@XZ 00468200 f i item_create.obj
 0001:00067210       ??1Create_func_contains@@MAE@XZ 00468210 f i item_create.obj
 0001:00067220       ??_ECreate_func_contains@@MAEPAXI@Z 00468220 f i item_create.obj
 0001:00067220       ??_GCreate_func_contains@@MAEPAXI@Z 00468220 f i item_create.obj
 0001:00067250       ??0Create_func_conv@@IAE@XZ 00468250 f i item_create.obj
 0001:00067260       ??1Create_func_conv@@MAE@XZ 00468260 f i item_create.obj
 0001:00067270       ??_ECreate_func_conv@@MAEPAXI@Z 00468270 f i item_create.obj
 0001:00067270       ??_GCreate_func_conv@@MAEPAXI@Z 00468270 f i item_create.obj
 0001:000672a0       ??0Create_func_convert_tz@@IAE@XZ 004682a0 f i item_create.obj
 0001:000672b0       ??1Create_func_convert_tz@@MAE@XZ 004682b0 f i item_create.obj
 0001:000672c0       ??_GCreate_func_convert_tz@@MAEPAXI@Z 004682c0 f i item_create.obj
 0001:000672c0       ??_ECreate_func_convert_tz@@MAEPAXI@Z 004682c0 f i item_create.obj
 0001:000672f0       ??0Create_func_cos@@IAE@XZ 004682f0 f i item_create.obj
 0001:00067300       ??1Create_func_cos@@MAE@XZ 00468300 f i item_create.obj
 0001:00067310       ??_ECreate_func_cos@@MAEPAXI@Z 00468310 f i item_create.obj
 0001:00067310       ??_GCreate_func_cos@@MAEPAXI@Z 00468310 f i item_create.obj
 0001:00067340       ??0Create_func_cot@@IAE@XZ 00468340 f i item_create.obj
 0001:00067350       ??1Create_func_cot@@MAE@XZ 00468350 f i item_create.obj
 0001:00067360       ??_GCreate_func_cot@@MAEPAXI@Z 00468360 f i item_create.obj
 0001:00067360       ??_ECreate_func_cot@@MAEPAXI@Z 00468360 f i item_create.obj
 0001:00067390       ??0Create_func_crc32@@IAE@XZ 00468390 f i item_create.obj
 0001:000673a0       ??1Create_func_crc32@@MAE@XZ 004683a0 f i item_create.obj
 0001:000673b0       ??_GCreate_func_crc32@@MAEPAXI@Z 004683b0 f i item_create.obj
 0001:000673b0       ??_ECreate_func_crc32@@MAEPAXI@Z 004683b0 f i item_create.obj
 0001:000673e0       ??0Create_func_crosses@@IAE@XZ 004683e0 f i item_create.obj
 0001:000673f0       ??1Create_func_crosses@@MAE@XZ 004683f0 f i item_create.obj
 0001:00067400       ??_ECreate_func_crosses@@MAEPAXI@Z 00468400 f i item_create.obj
 0001:00067400       ??_GCreate_func_crosses@@MAEPAXI@Z 00468400 f i item_create.obj
 0001:00067430       ??0Create_func_date_format@@IAE@XZ 00468430 f i item_create.obj
 0001:00067440       ??1Create_func_date_format@@MAE@XZ 00468440 f i item_create.obj
 0001:00067450       ??_GCreate_func_date_format@@MAEPAXI@Z 00468450 f i item_create.obj
 0001:00067450       ??_ECreate_func_date_format@@MAEPAXI@Z 00468450 f i item_create.obj
 0001:00067480       ??0Create_func_datediff@@IAE@XZ 00468480 f i item_create.obj
 0001:00067490       ??1Create_func_datediff@@MAE@XZ 00468490 f i item_create.obj
 0001:000674a0       ??_GCreate_func_datediff@@MAEPAXI@Z 004684a0 f i item_create.obj
 0001:000674a0       ??_ECreate_func_datediff@@MAEPAXI@Z 004684a0 f i item_create.obj
 0001:000674d0       ??0Create_func_dayname@@IAE@XZ 004684d0 f i item_create.obj
 0001:000674e0       ??1Create_func_dayname@@MAE@XZ 004684e0 f i item_create.obj
 0001:000674f0       ??_GCreate_func_dayname@@MAEPAXI@Z 004684f0 f i item_create.obj
 0001:000674f0       ??_ECreate_func_dayname@@MAEPAXI@Z 004684f0 f i item_create.obj
 0001:00067520       ??0Create_func_dayofmonth@@IAE@XZ 00468520 f i item_create.obj
 0001:00067530       ??1Create_func_dayofmonth@@MAE@XZ 00468530 f i item_create.obj
 0001:00067540       ??_GCreate_func_dayofmonth@@MAEPAXI@Z 00468540 f i item_create.obj
 0001:00067540       ??_ECreate_func_dayofmonth@@MAEPAXI@Z 00468540 f i item_create.obj
 0001:00067570       ??0Create_func_dayofweek@@IAE@XZ 00468570 f i item_create.obj
 0001:00067580       ??1Create_func_dayofweek@@MAE@XZ 00468580 f i item_create.obj
 0001:00067590       ??_ECreate_func_dayofweek@@MAEPAXI@Z 00468590 f i item_create.obj
 0001:00067590       ??_GCreate_func_dayofweek@@MAEPAXI@Z 00468590 f i item_create.obj
 0001:000675c0       ??0Create_func_dayofyear@@IAE@XZ 004685c0 f i item_create.obj
 0001:000675d0       ??1Create_func_dayofyear@@MAE@XZ 004685d0 f i item_create.obj
 0001:000675e0       ??_ECreate_func_dayofyear@@MAEPAXI@Z 004685e0 f i item_create.obj
 0001:000675e0       ??_GCreate_func_dayofyear@@MAEPAXI@Z 004685e0 f i item_create.obj
 0001:00067610       ??0Create_func_decode@@IAE@XZ 00468610 f i item_create.obj
 0001:00067620       ??1Create_func_decode@@MAE@XZ 00468620 f i item_create.obj
 0001:00067630       ??_ECreate_func_decode@@MAEPAXI@Z 00468630 f i item_create.obj
 0001:00067630       ??_GCreate_func_decode@@MAEPAXI@Z 00468630 f i item_create.obj
 0001:00067660       ??0Create_func_degrees@@IAE@XZ 00468660 f i item_create.obj
 0001:00067670       ??1Create_func_degrees@@MAE@XZ 00468670 f i item_create.obj
 0001:00067680       ??_ECreate_func_degrees@@MAEPAXI@Z 00468680 f i item_create.obj
 0001:00067680       ??_GCreate_func_degrees@@MAEPAXI@Z 00468680 f i item_create.obj
 0001:000676b0       ??0Create_func_des_decrypt@@IAE@XZ 004686b0 f i item_create.obj
 0001:000676c0       ??1Create_func_des_decrypt@@MAE@XZ 004686c0 f i item_create.obj
 0001:000676d0       ??_ECreate_func_des_decrypt@@MAEPAXI@Z 004686d0 f i item_create.obj
 0001:000676d0       ??_GCreate_func_des_decrypt@@MAEPAXI@Z 004686d0 f i item_create.obj
 0001:00067700       ??0Create_func_des_encrypt@@IAE@XZ 00468700 f i item_create.obj
 0001:00067710       ??1Create_func_des_encrypt@@MAE@XZ 00468710 f i item_create.obj
 0001:00067720       ??_ECreate_func_des_encrypt@@MAEPAXI@Z 00468720 f i item_create.obj
 0001:00067720       ??_GCreate_func_des_encrypt@@MAEPAXI@Z 00468720 f i item_create.obj
 0001:00067750       ??0Create_func_dimension@@IAE@XZ 00468750 f i item_create.obj
 0001:00067760       ??1Create_func_dimension@@MAE@XZ 00468760 f i item_create.obj
 0001:00067770       ??_GCreate_func_dimension@@MAEPAXI@Z 00468770 f i item_create.obj
 0001:00067770       ??_ECreate_func_dimension@@MAEPAXI@Z 00468770 f i item_create.obj
 0001:000677a0       ??0Create_func_disjoint@@IAE@XZ 004687a0 f i item_create.obj
 0001:000677b0       ??1Create_func_disjoint@@MAE@XZ 004687b0 f i item_create.obj
 0001:000677c0       ??_GCreate_func_disjoint@@MAEPAXI@Z 004687c0 f i item_create.obj
 0001:000677c0       ??_ECreate_func_disjoint@@MAEPAXI@Z 004687c0 f i item_create.obj
 0001:000677f0       ??0Create_func_elt@@IAE@XZ 004687f0 f i item_create.obj
 0001:00067800       ??1Create_func_elt@@MAE@XZ 00468800 f i item_create.obj
 0001:00067810       ??_ECreate_func_elt@@MAEPAXI@Z 00468810 f i item_create.obj
 0001:00067810       ??_GCreate_func_elt@@MAEPAXI@Z 00468810 f i item_create.obj
 0001:00067840       ??0Create_func_encode@@IAE@XZ 00468840 f i item_create.obj
 0001:00067850       ??1Create_func_encode@@MAE@XZ 00468850 f i item_create.obj
 0001:00067860       ??_GCreate_func_encode@@MAEPAXI@Z 00468860 f i item_create.obj
 0001:00067860       ??_ECreate_func_encode@@MAEPAXI@Z 00468860 f i item_create.obj
 0001:00067890       ??0Create_func_encrypt@@IAE@XZ 00468890 f i item_create.obj
 0001:000678a0       ??1Create_func_encrypt@@MAE@XZ 004688a0 f i item_create.obj
 0001:000678b0       ??_GCreate_func_encrypt@@MAEPAXI@Z 004688b0 f i item_create.obj
 0001:000678b0       ??_ECreate_func_encrypt@@MAEPAXI@Z 004688b0 f i item_create.obj
 0001:000678e0       ??0Create_func_endpoint@@IAE@XZ 004688e0 f i item_create.obj
 0001:000678f0       ??1Create_func_endpoint@@MAE@XZ 004688f0 f i item_create.obj
 0001:00067900       ??_ECreate_func_endpoint@@MAEPAXI@Z 00468900 f i item_create.obj
 0001:00067900       ??_GCreate_func_endpoint@@MAEPAXI@Z 00468900 f i item_create.obj
 0001:00067930       ??0Create_func_envelope@@IAE@XZ 00468930 f i item_create.obj
 0001:00067940       ??1Create_func_envelope@@MAE@XZ 00468940 f i item_create.obj
 0001:00067950       ??_GCreate_func_envelope@@MAEPAXI@Z 00468950 f i item_create.obj
 0001:00067950       ??_ECreate_func_envelope@@MAEPAXI@Z 00468950 f i item_create.obj
 0001:00067980       ??0Create_func_equals@@IAE@XZ 00468980 f i item_create.obj
 0001:00067990       ??1Create_func_equals@@MAE@XZ 00468990 f i item_create.obj
 0001:000679a0       ??_ECreate_func_equals@@MAEPAXI@Z 004689a0 f i item_create.obj
 0001:000679a0       ??_GCreate_func_equals@@MAEPAXI@Z 004689a0 f i item_create.obj
 0001:000679d0       ??0Create_func_exp@@IAE@XZ 004689d0 f i item_create.obj
 0001:000679e0       ??1Create_func_exp@@MAE@XZ 004689e0 f i item_create.obj
 0001:000679f0       ??_ECreate_func_exp@@MAEPAXI@Z 004689f0 f i item_create.obj
 0001:000679f0       ??_GCreate_func_exp@@MAEPAXI@Z 004689f0 f i item_create.obj
 0001:00067a20       ??0Create_func_export_set@@IAE@XZ 00468a20 f i item_create.obj
 0001:00067a30       ??1Create_func_export_set@@MAE@XZ 00468a30 f i item_create.obj
 0001:00067a40       ??_GCreate_func_export_set@@MAEPAXI@Z 00468a40 f i item_create.obj
 0001:00067a40       ??_ECreate_func_export_set@@MAEPAXI@Z 00468a40 f i item_create.obj
 0001:00067a70       ??0Create_func_exteriorring@@IAE@XZ 00468a70 f i item_create.obj
 0001:00067a80       ??1Create_func_exteriorring@@MAE@XZ 00468a80 f i item_create.obj
 0001:00067a90       ??_ECreate_func_exteriorring@@MAEPAXI@Z 00468a90 f i item_create.obj
 0001:00067a90       ??_GCreate_func_exteriorring@@MAEPAXI@Z 00468a90 f i item_create.obj
 0001:00067ac0       ??0Create_func_field@@IAE@XZ 00468ac0 f i item_create.obj
 0001:00067ad0       ??1Create_func_field@@MAE@XZ 00468ad0 f i item_create.obj
 0001:00067ae0       ??_ECreate_func_field@@MAEPAXI@Z 00468ae0 f i item_create.obj
 0001:00067ae0       ??_GCreate_func_field@@MAEPAXI@Z 00468ae0 f i item_create.obj
 0001:00067b10       ??0Create_func_find_in_set@@IAE@XZ 00468b10 f i item_create.obj
 0001:00067b20       ??1Create_func_find_in_set@@MAE@XZ 00468b20 f i item_create.obj
 0001:00067b30       ??_ECreate_func_find_in_set@@MAEPAXI@Z 00468b30 f i item_create.obj
 0001:00067b30       ??_GCreate_func_find_in_set@@MAEPAXI@Z 00468b30 f i item_create.obj
 0001:00067b60       ??0Create_func_floor@@IAE@XZ 00468b60 f i item_create.obj
 0001:00067b70       ??1Create_func_floor@@MAE@XZ 00468b70 f i item_create.obj
 0001:00067b80       ??_ECreate_func_floor@@MAEPAXI@Z 00468b80 f i item_create.obj
 0001:00067b80       ??_GCreate_func_floor@@MAEPAXI@Z 00468b80 f i item_create.obj
 0001:00067bb0       ??0Create_func_format@@IAE@XZ 00468bb0 f i item_create.obj
 0001:00067bc0       ??1Create_func_format@@MAE@XZ 00468bc0 f i item_create.obj
 0001:00067bd0       ??_ECreate_func_format@@MAEPAXI@Z 00468bd0 f i item_create.obj
 0001:00067bd0       ??_GCreate_func_format@@MAEPAXI@Z 00468bd0 f i item_create.obj
 0001:00067c00       ??0Create_func_found_rows@@IAE@XZ 00468c00 f i item_create.obj
 0001:00067c10       ??1Create_func_found_rows@@MAE@XZ 00468c10 f i item_create.obj
 0001:00067c20       ??_ECreate_func_found_rows@@MAEPAXI@Z 00468c20 f i item_create.obj
 0001:00067c20       ??_GCreate_func_found_rows@@MAEPAXI@Z 00468c20 f i item_create.obj
 0001:00067c50       ??0Create_func_from_days@@IAE@XZ 00468c50 f i item_create.obj
 0001:00067c60       ??1Create_func_from_days@@MAE@XZ 00468c60 f i item_create.obj
 0001:00067c70       ??_ECreate_func_from_days@@MAEPAXI@Z 00468c70 f i item_create.obj
 0001:00067c70       ??_GCreate_func_from_days@@MAEPAXI@Z 00468c70 f i item_create.obj
 0001:00067ca0       ??0Create_func_from_unixtime@@IAE@XZ 00468ca0 f i item_create.obj
 0001:00067cb0       ??1Create_func_from_unixtime@@MAE@XZ 00468cb0 f i item_create.obj
 0001:00067cc0       ??_GCreate_func_from_unixtime@@MAEPAXI@Z 00468cc0 f i item_create.obj
 0001:00067cc0       ??_ECreate_func_from_unixtime@@MAEPAXI@Z 00468cc0 f i item_create.obj
 0001:00067cf0       ??0Create_func_geometry_from_text@@IAE@XZ 00468cf0 f i item_create.obj
 0001:00067d00       ??1Create_func_geometry_from_text@@MAE@XZ 00468d00 f i item_create.obj
 0001:00067d10       ??_ECreate_func_geometry_from_text@@MAEPAXI@Z 00468d10 f i item_create.obj
 0001:00067d10       ??_GCreate_func_geometry_from_text@@MAEPAXI@Z 00468d10 f i item_create.obj
 0001:00067d40       ??0Create_func_geometry_from_wkb@@IAE@XZ 00468d40 f i item_create.obj
 0001:00067d50       ??1Create_func_geometry_from_wkb@@MAE@XZ 00468d50 f i item_create.obj
 0001:00067d60       ??_GCreate_func_geometry_from_wkb@@MAEPAXI@Z 00468d60 f i item_create.obj
 0001:00067d60       ??_ECreate_func_geometry_from_wkb@@MAEPAXI@Z 00468d60 f i item_create.obj
 0001:00067d90       ??0Create_func_geometry_type@@IAE@XZ 00468d90 f i item_create.obj
 0001:00067da0       ??1Create_func_geometry_type@@MAE@XZ 00468da0 f i item_create.obj
 0001:00067db0       ??_ECreate_func_geometry_type@@MAEPAXI@Z 00468db0 f i item_create.obj
 0001:00067db0       ??_GCreate_func_geometry_type@@MAEPAXI@Z 00468db0 f i item_create.obj
 0001:00067de0       ??0Create_func_geometryn@@IAE@XZ 00468de0 f i item_create.obj
 0001:00067df0       ??1Create_func_geometryn@@MAE@XZ 00468df0 f i item_create.obj
 0001:00067e00       ??_GCreate_func_geometryn@@MAEPAXI@Z 00468e00 f i item_create.obj
 0001:00067e00       ??_ECreate_func_geometryn@@MAEPAXI@Z 00468e00 f i item_create.obj
 0001:00067e30       ??0Create_func_get_lock@@IAE@XZ 00468e30 f i item_create.obj
 0001:00067e40       ??1Create_func_get_lock@@MAE@XZ 00468e40 f i item_create.obj
 0001:00067e50       ??_ECreate_func_get_lock@@MAEPAXI@Z 00468e50 f i item_create.obj
 0001:00067e50       ??_GCreate_func_get_lock@@MAEPAXI@Z 00468e50 f i item_create.obj
 0001:00067e80       ??0Create_func_glength@@IAE@XZ 00468e80 f i item_create.obj
 0001:00067e90       ??1Create_func_glength@@MAE@XZ 00468e90 f i item_create.obj
 0001:00067ea0       ??_ECreate_func_glength@@MAEPAXI@Z 00468ea0 f i item_create.obj
 0001:00067ea0       ??_GCreate_func_glength@@MAEPAXI@Z 00468ea0 f i item_create.obj
 0001:00067ed0       ??0Create_func_greatest@@IAE@XZ 00468ed0 f i item_create.obj
 0001:00067ee0       ??1Create_func_greatest@@MAE@XZ 00468ee0 f i item_create.obj
 0001:00067ef0       ??_ECreate_func_greatest@@MAEPAXI@Z 00468ef0 f i item_create.obj
 0001:00067ef0       ??_GCreate_func_greatest@@MAEPAXI@Z 00468ef0 f i item_create.obj
 0001:00067f20       ??0Create_func_hex@@IAE@XZ 00468f20 f i item_create.obj
 0001:00067f30       ??1Create_func_hex@@MAE@XZ 00468f30 f i item_create.obj
 0001:00067f40       ??_GCreate_func_hex@@MAEPAXI@Z 00468f40 f i item_create.obj
 0001:00067f40       ??_ECreate_func_hex@@MAEPAXI@Z 00468f40 f i item_create.obj
 0001:00067f70       ??0Create_func_ifnull@@IAE@XZ 00468f70 f i item_create.obj
 0001:00067f80       ??1Create_func_ifnull@@MAE@XZ 00468f80 f i item_create.obj
 0001:00067f90       ??_GCreate_func_ifnull@@MAEPAXI@Z 00468f90 f i item_create.obj
 0001:00067f90       ??_ECreate_func_ifnull@@MAEPAXI@Z 00468f90 f i item_create.obj
 0001:00067fc0       ??0Create_func_inet_ntoa@@IAE@XZ 00468fc0 f i item_create.obj
 0001:00067fd0       ??1Create_func_inet_ntoa@@MAE@XZ 00468fd0 f i item_create.obj
 0001:00067fe0       ??_GCreate_func_inet_ntoa@@MAEPAXI@Z 00468fe0 f i item_create.obj
 0001:00067fe0       ??_ECreate_func_inet_ntoa@@MAEPAXI@Z 00468fe0 f i item_create.obj
 0001:00068010       ??0Create_func_inet_aton@@IAE@XZ 00469010 f i item_create.obj
 0001:00068020       ??1Create_func_inet_aton@@MAE@XZ 00469020 f i item_create.obj
 0001:00068030       ??_GCreate_func_inet_aton@@MAEPAXI@Z 00469030 f i item_create.obj
 0001:00068030       ??_ECreate_func_inet_aton@@MAEPAXI@Z 00469030 f i item_create.obj
 0001:00068060       ??0Create_func_instr@@IAE@XZ 00469060 f i item_create.obj
 0001:00068070       ??1Create_func_instr@@MAE@XZ 00469070 f i item_create.obj
 0001:00068080       ??_ECreate_func_instr@@MAEPAXI@Z 00469080 f i item_create.obj
 0001:00068080       ??_GCreate_func_instr@@MAEPAXI@Z 00469080 f i item_create.obj
 0001:000680b0       ??0Create_func_interiorringn@@IAE@XZ 004690b0 f i item_create.obj
 0001:000680c0       ??1Create_func_interiorringn@@MAE@XZ 004690c0 f i item_create.obj
 0001:000680d0       ??_ECreate_func_interiorringn@@MAEPAXI@Z 004690d0 f i item_create.obj
 0001:000680d0       ??_GCreate_func_interiorringn@@MAEPAXI@Z 004690d0 f i item_create.obj
 0001:00068100       ??0Create_func_intersects@@IAE@XZ 00469100 f i item_create.obj
 0001:00068110       ??1Create_func_intersects@@MAE@XZ 00469110 f i item_create.obj
 0001:00068120       ??_GCreate_func_intersects@@MAEPAXI@Z 00469120 f i item_create.obj
 0001:00068120       ??_ECreate_func_intersects@@MAEPAXI@Z 00469120 f i item_create.obj
 0001:00068150       ??0Create_func_is_free_lock@@IAE@XZ 00469150 f i item_create.obj
 0001:00068160       ??1Create_func_is_free_lock@@MAE@XZ 00469160 f i item_create.obj
 0001:00068170       ??_GCreate_func_is_free_lock@@MAEPAXI@Z 00469170 f i item_create.obj
 0001:00068170       ??_ECreate_func_is_free_lock@@MAEPAXI@Z 00469170 f i item_create.obj
 0001:000681a0       ??0Create_func_is_used_lock@@IAE@XZ 004691a0 f i item_create.obj
 0001:000681b0       ??1Create_func_is_used_lock@@MAE@XZ 004691b0 f i item_create.obj
 0001:000681c0       ??_ECreate_func_is_used_lock@@MAEPAXI@Z 004691c0 f i item_create.obj
 0001:000681c0       ??_GCreate_func_is_used_lock@@MAEPAXI@Z 004691c0 f i item_create.obj
 0001:000681f0       ??0Create_func_isclosed@@IAE@XZ 004691f0 f i item_create.obj
 0001:00068200       ??1Create_func_isclosed@@MAE@XZ 00469200 f i item_create.obj
 0001:00068210       ??_GCreate_func_isclosed@@MAEPAXI@Z 00469210 f i item_create.obj
 0001:00068210       ??_ECreate_func_isclosed@@MAEPAXI@Z 00469210 f i item_create.obj
 0001:00068240       ??0Create_func_isempty@@IAE@XZ 00469240 f i item_create.obj
 0001:00068250       ??1Create_func_isempty@@MAE@XZ 00469250 f i item_create.obj
 0001:00068260       ??_ECreate_func_isempty@@MAEPAXI@Z 00469260 f i item_create.obj
 0001:00068260       ??_GCreate_func_isempty@@MAEPAXI@Z 00469260 f i item_create.obj
 0001:00068290       ??0Create_func_isnull@@IAE@XZ 00469290 f i item_create.obj
 0001:000682a0       ??1Create_func_isnull@@MAE@XZ 004692a0 f i item_create.obj
 0001:000682b0       ??_ECreate_func_isnull@@MAEPAXI@Z 004692b0 f i item_create.obj
 0001:000682b0       ??_GCreate_func_isnull@@MAEPAXI@Z 004692b0 f i item_create.obj
 0001:000682e0       ??0Create_func_issimple@@IAE@XZ 004692e0 f i item_create.obj
 0001:000682f0       ??1Create_func_issimple@@MAE@XZ 004692f0 f i item_create.obj
 0001:00068300       ??_GCreate_func_issimple@@MAEPAXI@Z 00469300 f i item_create.obj
 0001:00068300       ??_ECreate_func_issimple@@MAEPAXI@Z 00469300 f i item_create.obj
 0001:00068330       ??0Create_func_last_day@@IAE@XZ 00469330 f i item_create.obj
 0001:00068340       ??1Create_func_last_day@@MAE@XZ 00469340 f i item_create.obj
 0001:00068350       ??_GCreate_func_last_day@@MAEPAXI@Z 00469350 f i item_create.obj
 0001:00068350       ??_ECreate_func_last_day@@MAEPAXI@Z 00469350 f i item_create.obj
 0001:00068380       ??0Create_func_last_insert_id@@IAE@XZ 00469380 f i item_create.obj
 0001:00068390       ??1Create_func_last_insert_id@@MAE@XZ 00469390 f i item_create.obj
 0001:000683a0       ??_GCreate_func_last_insert_id@@MAEPAXI@Z 004693a0 f i item_create.obj
 0001:000683a0       ??_ECreate_func_last_insert_id@@MAEPAXI@Z 004693a0 f i item_create.obj
 0001:000683d0       ??0Create_func_lcase@@IAE@XZ 004693d0 f i item_create.obj
 0001:000683e0       ??1Create_func_lcase@@MAE@XZ 004693e0 f i item_create.obj
 0001:000683f0       ??_GCreate_func_lcase@@MAEPAXI@Z 004693f0 f i item_create.obj
 0001:000683f0       ??_ECreate_func_lcase@@MAEPAXI@Z 004693f0 f i item_create.obj
 0001:00068420       ??0Create_func_least@@IAE@XZ 00469420 f i item_create.obj
 0001:00068430       ??1Create_func_least@@MAE@XZ 00469430 f i item_create.obj
 0001:00068440       ??_ECreate_func_least@@MAEPAXI@Z 00469440 f i item_create.obj
 0001:00068440       ??_GCreate_func_least@@MAEPAXI@Z 00469440 f i item_create.obj
 0001:00068470       ??0Create_func_length@@IAE@XZ 00469470 f i item_create.obj
 0001:00068480       ??1Create_func_length@@MAE@XZ 00469480 f i item_create.obj
 0001:00068490       ??_GCreate_func_length@@MAEPAXI@Z 00469490 f i item_create.obj
 0001:00068490       ??_ECreate_func_length@@MAEPAXI@Z 00469490 f i item_create.obj
 0001:000684c0       ??0Create_func_ln@@IAE@XZ  004694c0 f i item_create.obj
 0001:000684d0       ??1Create_func_ln@@MAE@XZ  004694d0 f i item_create.obj
 0001:000684e0       ??_ECreate_func_ln@@MAEPAXI@Z 004694e0 f i item_create.obj
 0001:000684e0       ??_GCreate_func_ln@@MAEPAXI@Z 004694e0 f i item_create.obj
 0001:00068510       ??0Create_func_load_file@@IAE@XZ 00469510 f i item_create.obj
 0001:00068520       ??1Create_func_load_file@@MAE@XZ 00469520 f i item_create.obj
 0001:00068530       ??_GCreate_func_load_file@@MAEPAXI@Z 00469530 f i item_create.obj
 0001:00068530       ??_ECreate_func_load_file@@MAEPAXI@Z 00469530 f i item_create.obj
 0001:00068560       ??0Create_func_locate@@IAE@XZ 00469560 f i item_create.obj
 0001:00068570       ??1Create_func_locate@@MAE@XZ 00469570 f i item_create.obj
 0001:00068580       ??_ECreate_func_locate@@MAEPAXI@Z 00469580 f i item_create.obj
 0001:00068580       ??_GCreate_func_locate@@MAEPAXI@Z 00469580 f i item_create.obj
 0001:000685b0       ??0Create_func_log@@IAE@XZ 004695b0 f i item_create.obj
 0001:000685c0       ??1Create_func_log@@MAE@XZ 004695c0 f i item_create.obj
 0001:000685d0       ??_ECreate_func_log@@MAEPAXI@Z 004695d0 f i item_create.obj
 0001:000685d0       ??_GCreate_func_log@@MAEPAXI@Z 004695d0 f i item_create.obj
 0001:00068600       ??0Create_func_log10@@IAE@XZ 00469600 f i item_create.obj
 0001:00068610       ??1Create_func_log10@@MAE@XZ 00469610 f i item_create.obj
 0001:00068620       ??_GCreate_func_log10@@MAEPAXI@Z 00469620 f i item_create.obj
 0001:00068620       ??_ECreate_func_log10@@MAEPAXI@Z 00469620 f i item_create.obj
 0001:00068650       ??0Create_func_log2@@IAE@XZ 00469650 f i item_create.obj
 0001:00068660       ??1Create_func_log2@@MAE@XZ 00469660 f i item_create.obj
 0001:00068670       ??_ECreate_func_log2@@MAEPAXI@Z 00469670 f i item_create.obj
 0001:00068670       ??_GCreate_func_log2@@MAEPAXI@Z 00469670 f i item_create.obj
 0001:000686a0       ??0Create_func_lpad@@IAE@XZ 004696a0 f i item_create.obj
 0001:000686b0       ??1Create_func_lpad@@MAE@XZ 004696b0 f i item_create.obj
 0001:000686c0       ??_ECreate_func_lpad@@MAEPAXI@Z 004696c0 f i item_create.obj
 0001:000686c0       ??_GCreate_func_lpad@@MAEPAXI@Z 004696c0 f i item_create.obj
 0001:000686f0       ??0Create_func_ltrim@@IAE@XZ 004696f0 f i item_create.obj
 0001:00068700       ??1Create_func_ltrim@@MAE@XZ 00469700 f i item_create.obj
 0001:00068710       ??_GCreate_func_ltrim@@MAEPAXI@Z 00469710 f i item_create.obj
 0001:00068710       ??_ECreate_func_ltrim@@MAEPAXI@Z 00469710 f i item_create.obj
 0001:00068740       ??0Create_func_makedate@@IAE@XZ 00469740 f i item_create.obj
 0001:00068750       ??1Create_func_makedate@@MAE@XZ 00469750 f i item_create.obj
 0001:00068760       ??_ECreate_func_makedate@@MAEPAXI@Z 00469760 f i item_create.obj
 0001:00068760       ??_GCreate_func_makedate@@MAEPAXI@Z 00469760 f i item_create.obj
 0001:00068790       ??0Create_func_maketime@@IAE@XZ 00469790 f i item_create.obj
 0001:000687a0       ??1Create_func_maketime@@MAE@XZ 004697a0 f i item_create.obj
 0001:000687b0       ??_ECreate_func_maketime@@MAEPAXI@Z 004697b0 f i item_create.obj
 0001:000687b0       ??_GCreate_func_maketime@@MAEPAXI@Z 004697b0 f i item_create.obj
 0001:000687e0       ??0Create_func_make_set@@IAE@XZ 004697e0 f i item_create.obj
 0001:000687f0       ??1Create_func_make_set@@MAE@XZ 004697f0 f i item_create.obj
 0001:00068800       ??_GCreate_func_make_set@@MAEPAXI@Z 00469800 f i item_create.obj
 0001:00068800       ??_ECreate_func_make_set@@MAEPAXI@Z 00469800 f i item_create.obj
 0001:00068830       ??0Create_func_master_pos_wait@@IAE@XZ 00469830 f i item_create.obj
 0001:00068840       ??1Create_func_master_pos_wait@@MAE@XZ 00469840 f i item_create.obj
 0001:00068850       ??_GCreate_func_master_pos_wait@@MAEPAXI@Z 00469850 f i item_create.obj
 0001:00068850       ??_ECreate_func_master_pos_wait@@MAEPAXI@Z 00469850 f i item_create.obj
 0001:00068880       ??0Create_func_md5@@IAE@XZ 00469880 f i item_create.obj
 0001:00068890       ??1Create_func_md5@@MAE@XZ 00469890 f i item_create.obj
 0001:000688a0       ??_ECreate_func_md5@@MAEPAXI@Z 004698a0 f i item_create.obj
 0001:000688a0       ??_GCreate_func_md5@@MAEPAXI@Z 004698a0 f i item_create.obj
 0001:000688d0       ??0Create_func_monthname@@IAE@XZ 004698d0 f i item_create.obj
 0001:000688e0       ??1Create_func_monthname@@MAE@XZ 004698e0 f i item_create.obj
 0001:000688f0       ??_GCreate_func_monthname@@MAEPAXI@Z 004698f0 f i item_create.obj
 0001:000688f0       ??_ECreate_func_monthname@@MAEPAXI@Z 004698f0 f i item_create.obj
 0001:00068920       ??0Create_func_name_const@@IAE@XZ 00469920 f i item_create.obj
 0001:00068930       ??1Create_func_name_const@@MAE@XZ 00469930 f i item_create.obj
 0001:00068940       ??_GCreate_func_name_const@@MAEPAXI@Z 00469940 f i item_create.obj
 0001:00068940       ??_ECreate_func_name_const@@MAEPAXI@Z 00469940 f i item_create.obj
 0001:00068970       ??0Create_func_nullif@@IAE@XZ 00469970 f i item_create.obj
 0001:00068980       ??1Create_func_nullif@@MAE@XZ 00469980 f i item_create.obj
 0001:00068990       ??_ECreate_func_nullif@@MAEPAXI@Z 00469990 f i item_create.obj
 0001:00068990       ??_GCreate_func_nullif@@MAEPAXI@Z 00469990 f i item_create.obj
 0001:000689c0       ??0Create_func_numgeometries@@IAE@XZ 004699c0 f i item_create.obj
 0001:000689d0       ??1Create_func_numgeometries@@MAE@XZ 004699d0 f i item_create.obj
 0001:000689e0       ??_GCreate_func_numgeometries@@MAEPAXI@Z 004699e0 f i item_create.obj
 0001:000689e0       ??_ECreate_func_numgeometries@@MAEPAXI@Z 004699e0 f i item_create.obj
 0001:00068a10       ??0Create_func_numinteriorring@@IAE@XZ 00469a10 f i item_create.obj
 0001:00068a20       ??1Create_func_numinteriorring@@MAE@XZ 00469a20 f i item_create.obj
 0001:00068a30       ??_GCreate_func_numinteriorring@@MAEPAXI@Z 00469a30 f i item_create.obj
 0001:00068a30       ??_ECreate_func_numinteriorring@@MAEPAXI@Z 00469a30 f i item_create.obj
 0001:00068a60       ??0Create_func_numpoints@@IAE@XZ 00469a60 f i item_create.obj
 0001:00068a70       ??1Create_func_numpoints@@MAE@XZ 00469a70 f i item_create.obj
 0001:00068a80       ??_ECreate_func_numpoints@@MAEPAXI@Z 00469a80 f i item_create.obj
 0001:00068a80       ??_GCreate_func_numpoints@@MAEPAXI@Z 00469a80 f i item_create.obj
 0001:00068ab0       ??0Create_func_oct@@IAE@XZ 00469ab0 f i item_create.obj
 0001:00068ac0       ??1Create_func_oct@@MAE@XZ 00469ac0 f i item_create.obj
 0001:00068ad0       ??_ECreate_func_oct@@MAEPAXI@Z 00469ad0 f i item_create.obj
 0001:00068ad0       ??_GCreate_func_oct@@MAEPAXI@Z 00469ad0 f i item_create.obj
 0001:00068b00       ??0Create_func_ord@@IAE@XZ 00469b00 f i item_create.obj
 0001:00068b10       ??1Create_func_ord@@MAE@XZ 00469b10 f i item_create.obj
 0001:00068b20       ??_ECreate_func_ord@@MAEPAXI@Z 00469b20 f i item_create.obj
 0001:00068b20       ??_GCreate_func_ord@@MAEPAXI@Z 00469b20 f i item_create.obj
 0001:00068b50       ??0Create_func_overlaps@@IAE@XZ 00469b50 f i item_create.obj
 0001:00068b60       ??1Create_func_overlaps@@MAE@XZ 00469b60 f i item_create.obj
 0001:00068b70       ??_ECreate_func_overlaps@@MAEPAXI@Z 00469b70 f i item_create.obj
 0001:00068b70       ??_GCreate_func_overlaps@@MAEPAXI@Z 00469b70 f i item_create.obj
 0001:00068ba0       ??0Create_func_period_add@@IAE@XZ 00469ba0 f i item_create.obj
 0001:00068bb0       ??1Create_func_period_add@@MAE@XZ 00469bb0 f i item_create.obj
 0001:00068bc0       ??_ECreate_func_period_add@@MAEPAXI@Z 00469bc0 f i item_create.obj
 0001:00068bc0       ??_GCreate_func_period_add@@MAEPAXI@Z 00469bc0 f i item_create.obj
 0001:00068bf0       ??0Create_func_period_diff@@IAE@XZ 00469bf0 f i item_create.obj
 0001:00068c00       ??1Create_func_period_diff@@MAE@XZ 00469c00 f i item_create.obj
 0001:00068c10       ??_ECreate_func_period_diff@@MAEPAXI@Z 00469c10 f i item_create.obj
 0001:00068c10       ??_GCreate_func_period_diff@@MAEPAXI@Z 00469c10 f i item_create.obj
 0001:00068c40       ??0Create_func_pi@@IAE@XZ  00469c40 f i item_create.obj
 0001:00068c50       ??1Create_func_pi@@MAE@XZ  00469c50 f i item_create.obj
 0001:00068c60       ??_GCreate_func_pi@@MAEPAXI@Z 00469c60 f i item_create.obj
 0001:00068c60       ??_ECreate_func_pi@@MAEPAXI@Z 00469c60 f i item_create.obj
 0001:00068c90       ??0Create_func_pointn@@IAE@XZ 00469c90 f i item_create.obj
 0001:00068ca0       ??1Create_func_pointn@@MAE@XZ 00469ca0 f i item_create.obj
 0001:00068cb0       ??_GCreate_func_pointn@@MAEPAXI@Z 00469cb0 f i item_create.obj
 0001:00068cb0       ??_ECreate_func_pointn@@MAEPAXI@Z 00469cb0 f i item_create.obj
 0001:00068ce0       ??0Create_func_pow@@IAE@XZ 00469ce0 f i item_create.obj
 0001:00068cf0       ??1Create_func_pow@@MAE@XZ 00469cf0 f i item_create.obj
 0001:00068d00       ??_GCreate_func_pow@@MAEPAXI@Z 00469d00 f i item_create.obj
 0001:00068d00       ??_ECreate_func_pow@@MAEPAXI@Z 00469d00 f i item_create.obj
 0001:00068d30       ??0Create_func_quote@@IAE@XZ 00469d30 f i item_create.obj
 0001:00068d40       ??1Create_func_quote@@MAE@XZ 00469d40 f i item_create.obj
 0001:00068d50       ??_ECreate_func_quote@@MAEPAXI@Z 00469d50 f i item_create.obj
 0001:00068d50       ??_GCreate_func_quote@@MAEPAXI@Z 00469d50 f i item_create.obj
 0001:00068d80       ??0Create_func_radians@@IAE@XZ 00469d80 f i item_create.obj
 0001:00068d90       ??1Create_func_radians@@MAE@XZ 00469d90 f i item_create.obj
 0001:00068da0       ??_GCreate_func_radians@@MAEPAXI@Z 00469da0 f i item_create.obj
 0001:00068da0       ??_ECreate_func_radians@@MAEPAXI@Z 00469da0 f i item_create.obj
 0001:00068dd0       ??0Create_func_rand@@IAE@XZ 00469dd0 f i item_create.obj
 0001:00068de0       ??1Create_func_rand@@MAE@XZ 00469de0 f i item_create.obj
 0001:00068df0       ??_GCreate_func_rand@@MAEPAXI@Z 00469df0 f i item_create.obj
 0001:00068df0       ??_ECreate_func_rand@@MAEPAXI@Z 00469df0 f i item_create.obj
 0001:00068e20       ??0Create_func_release_lock@@IAE@XZ 00469e20 f i item_create.obj
 0001:00068e30       ??1Create_func_release_lock@@MAE@XZ 00469e30 f i item_create.obj
 0001:00068e40       ??_ECreate_func_release_lock@@MAEPAXI@Z 00469e40 f i item_create.obj
 0001:00068e40       ??_GCreate_func_release_lock@@MAEPAXI@Z 00469e40 f i item_create.obj
 0001:00068e70       ??0Create_func_reverse@@IAE@XZ 00469e70 f i item_create.obj
 0001:00068e80       ??1Create_func_reverse@@MAE@XZ 00469e80 f i item_create.obj
 0001:00068e90       ??_ECreate_func_reverse@@MAEPAXI@Z 00469e90 f i item_create.obj
 0001:00068e90       ??_GCreate_func_reverse@@MAEPAXI@Z 00469e90 f i item_create.obj
 0001:00068ec0       ??0Create_func_round@@IAE@XZ 00469ec0 f i item_create.obj
 0001:00068ed0       ??1Create_func_round@@MAE@XZ 00469ed0 f i item_create.obj
 0001:00068ee0       ??_ECreate_func_round@@MAEPAXI@Z 00469ee0 f i item_create.obj
 0001:00068ee0       ??_GCreate_func_round@@MAEPAXI@Z 00469ee0 f i item_create.obj
 0001:00068f10       ??0Create_func_row_count@@IAE@XZ 00469f10 f i item_create.obj
 0001:00068f20       ??1Create_func_row_count@@MAE@XZ 00469f20 f i item_create.obj
 0001:00068f30       ??_GCreate_func_row_count@@MAEPAXI@Z 00469f30 f i item_create.obj
 0001:00068f30       ??_ECreate_func_row_count@@MAEPAXI@Z 00469f30 f i item_create.obj
 0001:00068f60       ??0Create_func_rpad@@IAE@XZ 00469f60 f i item_create.obj
 0001:00068f70       ??1Create_func_rpad@@MAE@XZ 00469f70 f i item_create.obj
 0001:00068f80       ??_ECreate_func_rpad@@MAEPAXI@Z 00469f80 f i item_create.obj
 0001:00068f80       ??_GCreate_func_rpad@@MAEPAXI@Z 00469f80 f i item_create.obj
 0001:00068fb0       ??0Create_func_rtrim@@IAE@XZ 00469fb0 f i item_create.obj
 0001:00068fc0       ??1Create_func_rtrim@@MAE@XZ 00469fc0 f i item_create.obj
 0001:00068fd0       ??_ECreate_func_rtrim@@MAEPAXI@Z 00469fd0 f i item_create.obj
 0001:00068fd0       ??_GCreate_func_rtrim@@MAEPAXI@Z 00469fd0 f i item_create.obj
 0001:00069000       ??0Create_func_sec_to_time@@IAE@XZ 0046a000 f i item_create.obj
 0001:00069010       ??1Create_func_sec_to_time@@MAE@XZ 0046a010 f i item_create.obj
 0001:00069020       ??_GCreate_func_sec_to_time@@MAEPAXI@Z 0046a020 f i item_create.obj
 0001:00069020       ??_ECreate_func_sec_to_time@@MAEPAXI@Z 0046a020 f i item_create.obj
 0001:00069050       ??0Create_func_sha@@IAE@XZ 0046a050 f i item_create.obj
 0001:00069060       ??1Create_func_sha@@MAE@XZ 0046a060 f i item_create.obj
 0001:00069070       ??_ECreate_func_sha@@MAEPAXI@Z 0046a070 f i item_create.obj
 0001:00069070       ??_GCreate_func_sha@@MAEPAXI@Z 0046a070 f i item_create.obj
 0001:000690a0       ??0Create_func_sign@@IAE@XZ 0046a0a0 f i item_create.obj
 0001:000690b0       ??1Create_func_sign@@MAE@XZ 0046a0b0 f i item_create.obj
 0001:000690c0       ??_ECreate_func_sign@@MAEPAXI@Z 0046a0c0 f i item_create.obj
 0001:000690c0       ??_GCreate_func_sign@@MAEPAXI@Z 0046a0c0 f i item_create.obj
 0001:000690f0       ??0Create_func_sin@@IAE@XZ 0046a0f0 f i item_create.obj
 0001:00069100       ??1Create_func_sin@@MAE@XZ 0046a100 f i item_create.obj
 0001:00069110       ??_GCreate_func_sin@@MAEPAXI@Z 0046a110 f i item_create.obj
 0001:00069110       ??_ECreate_func_sin@@MAEPAXI@Z 0046a110 f i item_create.obj
 0001:00069140       ??0Create_func_sleep@@IAE@XZ 0046a140 f i item_create.obj
 0001:00069150       ??1Create_func_sleep@@MAE@XZ 0046a150 f i item_create.obj
 0001:00069160       ??_GCreate_func_sleep@@MAEPAXI@Z 0046a160 f i item_create.obj
 0001:00069160       ??_ECreate_func_sleep@@MAEPAXI@Z 0046a160 f i item_create.obj
 0001:00069190       ??0Create_func_soundex@@IAE@XZ 0046a190 f i item_create.obj
 0001:000691a0       ??1Create_func_soundex@@MAE@XZ 0046a1a0 f i item_create.obj
 0001:000691b0       ??_GCreate_func_soundex@@MAEPAXI@Z 0046a1b0 f i item_create.obj
 0001:000691b0       ??_ECreate_func_soundex@@MAEPAXI@Z 0046a1b0 f i item_create.obj
 0001:000691e0       ??0Create_func_space@@IAE@XZ 0046a1e0 f i item_create.obj
 0001:000691f0       ??1Create_func_space@@MAE@XZ 0046a1f0 f i item_create.obj
 0001:00069200       ??_GCreate_func_space@@MAEPAXI@Z 0046a200 f i item_create.obj
 0001:00069200       ??_ECreate_func_space@@MAEPAXI@Z 0046a200 f i item_create.obj
 0001:00069230       ??0Create_func_sqrt@@IAE@XZ 0046a230 f i item_create.obj
 0001:00069240       ??1Create_func_sqrt@@MAE@XZ 0046a240 f i item_create.obj
 0001:00069250       ??_ECreate_func_sqrt@@MAEPAXI@Z 0046a250 f i item_create.obj
 0001:00069250       ??_GCreate_func_sqrt@@MAEPAXI@Z 0046a250 f i item_create.obj
 0001:00069280       ??0Create_func_srid@@IAE@XZ 0046a280 f i item_create.obj
 0001:00069290       ??1Create_func_srid@@MAE@XZ 0046a290 f i item_create.obj
 0001:000692a0       ??_ECreate_func_srid@@MAEPAXI@Z 0046a2a0 f i item_create.obj
 0001:000692a0       ??_GCreate_func_srid@@MAEPAXI@Z 0046a2a0 f i item_create.obj
 0001:000692d0       ??0Create_func_startpoint@@IAE@XZ 0046a2d0 f i item_create.obj
 0001:000692e0       ??1Create_func_startpoint@@MAE@XZ 0046a2e0 f i item_create.obj
 0001:000692f0       ??_ECreate_func_startpoint@@MAEPAXI@Z 0046a2f0 f i item_create.obj
 0001:000692f0       ??_GCreate_func_startpoint@@MAEPAXI@Z 0046a2f0 f i item_create.obj
 0001:00069320       ??0Create_func_str_to_date@@IAE@XZ 0046a320 f i item_create.obj
 0001:00069330       ??1Create_func_str_to_date@@MAE@XZ 0046a330 f i item_create.obj
 0001:00069340       ??_ECreate_func_str_to_date@@MAEPAXI@Z 0046a340 f i item_create.obj
 0001:00069340       ??_GCreate_func_str_to_date@@MAEPAXI@Z 0046a340 f i item_create.obj
 0001:00069370       ??0Create_func_strcmp@@IAE@XZ 0046a370 f i item_create.obj
 0001:00069380       ??1Create_func_strcmp@@MAE@XZ 0046a380 f i item_create.obj
 0001:00069390       ??_ECreate_func_strcmp@@MAEPAXI@Z 0046a390 f i item_create.obj
 0001:00069390       ??_GCreate_func_strcmp@@MAEPAXI@Z 0046a390 f i item_create.obj
 0001:000693c0       ??0Create_func_substr_index@@IAE@XZ 0046a3c0 f i item_create.obj
 0001:000693d0       ??1Create_func_substr_index@@MAE@XZ 0046a3d0 f i item_create.obj
 0001:000693e0       ??_ECreate_func_substr_index@@MAEPAXI@Z 0046a3e0 f i item_create.obj
 0001:000693e0       ??_GCreate_func_substr_index@@MAEPAXI@Z 0046a3e0 f i item_create.obj
 0001:00069410       ??0Create_func_subtime@@IAE@XZ 0046a410 f i item_create.obj
 0001:00069420       ??1Create_func_subtime@@MAE@XZ 0046a420 f i item_create.obj
 0001:00069430       ??_GCreate_func_subtime@@MAEPAXI@Z 0046a430 f i item_create.obj
 0001:00069430       ??_ECreate_func_subtime@@MAEPAXI@Z 0046a430 f i item_create.obj
 0001:00069460       ??0Create_func_tan@@IAE@XZ 0046a460 f i item_create.obj
 0001:00069470       ??1Create_func_tan@@MAE@XZ 0046a470 f i item_create.obj
 0001:00069480       ??_ECreate_func_tan@@MAEPAXI@Z 0046a480 f i item_create.obj
 0001:00069480       ??_GCreate_func_tan@@MAEPAXI@Z 0046a480 f i item_create.obj
 0001:000694b0       ??0Create_func_time_format@@IAE@XZ 0046a4b0 f i item_create.obj
 0001:000694c0       ??1Create_func_time_format@@MAE@XZ 0046a4c0 f i item_create.obj
 0001:000694d0       ??_ECreate_func_time_format@@MAEPAXI@Z 0046a4d0 f i item_create.obj
 0001:000694d0       ??_GCreate_func_time_format@@MAEPAXI@Z 0046a4d0 f i item_create.obj
 0001:00069500       ??0Create_func_time_to_sec@@IAE@XZ 0046a500 f i item_create.obj
 0001:00069510       ??1Create_func_time_to_sec@@MAE@XZ 0046a510 f i item_create.obj
 0001:00069520       ??_ECreate_func_time_to_sec@@MAEPAXI@Z 0046a520 f i item_create.obj
 0001:00069520       ??_GCreate_func_time_to_sec@@MAEPAXI@Z 0046a520 f i item_create.obj
 0001:00069550       ??0Create_func_timediff@@IAE@XZ 0046a550 f i item_create.obj
 0001:00069560       ??1Create_func_timediff@@MAE@XZ 0046a560 f i item_create.obj
 0001:00069570       ??_ECreate_func_timediff@@MAEPAXI@Z 0046a570 f i item_create.obj
 0001:00069570       ??_GCreate_func_timediff@@MAEPAXI@Z 0046a570 f i item_create.obj
 0001:000695a0       ??0Create_func_to_days@@IAE@XZ 0046a5a0 f i item_create.obj
 0001:000695b0       ??1Create_func_to_days@@MAE@XZ 0046a5b0 f i item_create.obj
 0001:000695c0       ??_ECreate_func_to_days@@MAEPAXI@Z 0046a5c0 f i item_create.obj
 0001:000695c0       ??_GCreate_func_to_days@@MAEPAXI@Z 0046a5c0 f i item_create.obj
 0001:000695f0       ??0Create_func_touches@@IAE@XZ 0046a5f0 f i item_create.obj
 0001:00069600       ??1Create_func_touches@@MAE@XZ 0046a600 f i item_create.obj
 0001:00069610       ??_ECreate_func_touches@@MAEPAXI@Z 0046a610 f i item_create.obj
 0001:00069610       ??_GCreate_func_touches@@MAEPAXI@Z 0046a610 f i item_create.obj
 0001:00069640       ??0Create_func_ucase@@IAE@XZ 0046a640 f i item_create.obj
 0001:00069650       ??1Create_func_ucase@@MAE@XZ 0046a650 f i item_create.obj
 0001:00069660       ??_GCreate_func_ucase@@MAEPAXI@Z 0046a660 f i item_create.obj
 0001:00069660       ??_ECreate_func_ucase@@MAEPAXI@Z 0046a660 f i item_create.obj
 0001:00069690       ??0Create_func_uncompress@@IAE@XZ 0046a690 f i item_create.obj
 0001:000696a0       ??1Create_func_uncompress@@MAE@XZ 0046a6a0 f i item_create.obj
 0001:000696b0       ??_GCreate_func_uncompress@@MAEPAXI@Z 0046a6b0 f i item_create.obj
 0001:000696b0       ??_ECreate_func_uncompress@@MAEPAXI@Z 0046a6b0 f i item_create.obj
 0001:000696e0       ??0Create_func_uncompressed_length@@IAE@XZ 0046a6e0 f i item_create.obj
 0001:000696f0       ??1Create_func_uncompressed_length@@MAE@XZ 0046a6f0 f i item_create.obj
 0001:00069700       ??_ECreate_func_uncompressed_length@@MAEPAXI@Z 0046a700 f i item_create.obj
 0001:00069700       ??_GCreate_func_uncompressed_length@@MAEPAXI@Z 0046a700 f i item_create.obj
 0001:00069730       ??0Create_func_unhex@@IAE@XZ 0046a730 f i item_create.obj
 0001:00069740       ??1Create_func_unhex@@MAE@XZ 0046a740 f i item_create.obj
 0001:00069750       ??_ECreate_func_unhex@@MAEPAXI@Z 0046a750 f i item_create.obj
 0001:00069750       ??_GCreate_func_unhex@@MAEPAXI@Z 0046a750 f i item_create.obj
 0001:00069780       ??0Create_func_unix_timestamp@@IAE@XZ 0046a780 f i item_create.obj
 0001:00069790       ??1Create_func_unix_timestamp@@MAE@XZ 0046a790 f i item_create.obj
 0001:000697a0       ??_ECreate_func_unix_timestamp@@MAEPAXI@Z 0046a7a0 f i item_create.obj
 0001:000697a0       ??_GCreate_func_unix_timestamp@@MAEPAXI@Z 0046a7a0 f i item_create.obj
 0001:000697d0       ??0Create_func_uuid@@IAE@XZ 0046a7d0 f i item_create.obj
 0001:000697e0       ??1Create_func_uuid@@MAE@XZ 0046a7e0 f i item_create.obj
 0001:000697f0       ??_GCreate_func_uuid@@MAEPAXI@Z 0046a7f0 f i item_create.obj
 0001:000697f0       ??_ECreate_func_uuid@@MAEPAXI@Z 0046a7f0 f i item_create.obj
 0001:00069820       ??0Create_func_uuid_short@@IAE@XZ 0046a820 f i item_create.obj
 0001:00069830       ??1Create_func_uuid_short@@MAE@XZ 0046a830 f i item_create.obj
 0001:00069840       ??_GCreate_func_uuid_short@@MAEPAXI@Z 0046a840 f i item_create.obj
 0001:00069840       ??_ECreate_func_uuid_short@@MAEPAXI@Z 0046a840 f i item_create.obj
 0001:00069870       ??0Create_func_version@@IAE@XZ 0046a870 f i item_create.obj
 0001:00069880       ??1Create_func_version@@MAE@XZ 0046a880 f i item_create.obj
 0001:00069890       ??_ECreate_func_version@@MAEPAXI@Z 0046a890 f i item_create.obj
 0001:00069890       ??_GCreate_func_version@@MAEPAXI@Z 0046a890 f i item_create.obj
 0001:000698c0       ??0Create_func_weekday@@IAE@XZ 0046a8c0 f i item_create.obj
 0001:000698d0       ??1Create_func_weekday@@MAE@XZ 0046a8d0 f i item_create.obj
 0001:000698e0       ??_ECreate_func_weekday@@MAEPAXI@Z 0046a8e0 f i item_create.obj
 0001:000698e0       ??_GCreate_func_weekday@@MAEPAXI@Z 0046a8e0 f i item_create.obj
 0001:00069910       ??0Create_func_weekofyear@@IAE@XZ 0046a910 f i item_create.obj
 0001:00069920       ??1Create_func_weekofyear@@MAE@XZ 0046a920 f i item_create.obj
 0001:00069930       ??_ECreate_func_weekofyear@@MAEPAXI@Z 0046a930 f i item_create.obj
 0001:00069930       ??_GCreate_func_weekofyear@@MAEPAXI@Z 0046a930 f i item_create.obj
 0001:00069960       ??0Create_func_within@@IAE@XZ 0046a960 f i item_create.obj
 0001:00069970       ??1Create_func_within@@MAE@XZ 0046a970 f i item_create.obj
 0001:00069980       ??_GCreate_func_within@@MAEPAXI@Z 0046a980 f i item_create.obj
 0001:00069980       ??_ECreate_func_within@@MAEPAXI@Z 0046a980 f i item_create.obj
 0001:000699b0       ??0Create_func_x@@IAE@XZ   0046a9b0 f i item_create.obj
 0001:000699c0       ??1Create_func_x@@MAE@XZ   0046a9c0 f i item_create.obj
 0001:000699d0       ??_ECreate_func_x@@MAEPAXI@Z 0046a9d0 f i item_create.obj
 0001:000699d0       ??_GCreate_func_x@@MAEPAXI@Z 0046a9d0 f i item_create.obj
 0001:00069a00       ??0Create_func_xml_extractvalue@@IAE@XZ 0046aa00 f i item_create.obj
 0001:00069a10       ??1Create_func_xml_extractvalue@@MAE@XZ 0046aa10 f i item_create.obj
 0001:00069a20       ??_ECreate_func_xml_extractvalue@@MAEPAXI@Z 0046aa20 f i item_create.obj
 0001:00069a20       ??_GCreate_func_xml_extractvalue@@MAEPAXI@Z 0046aa20 f i item_create.obj
 0001:00069a50       ??0Create_func_xml_update@@IAE@XZ 0046aa50 f i item_create.obj
 0001:00069a60       ??1Create_func_xml_update@@MAE@XZ 0046aa60 f i item_create.obj
 0001:00069a70       ??_ECreate_func_xml_update@@MAEPAXI@Z 0046aa70 f i item_create.obj
 0001:00069a70       ??_GCreate_func_xml_update@@MAEPAXI@Z 0046aa70 f i item_create.obj
 0001:00069aa0       ??0Create_func_y@@IAE@XZ   0046aaa0 f i item_create.obj
 0001:00069ab0       ??1Create_func_y@@MAE@XZ   0046aab0 f i item_create.obj
 0001:00069ac0       ??_ECreate_func_y@@MAEPAXI@Z 0046aac0 f i item_create.obj
 0001:00069ac0       ??_GCreate_func_y@@MAEPAXI@Z 0046aac0 f i item_create.obj
 0001:00069af0       ??0Create_func_year_week@@IAE@XZ 0046aaf0 f i item_create.obj
 0001:00069b00       ??1Create_func_year_week@@MAE@XZ 0046ab00 f i item_create.obj
 0001:00069b10       ??_GCreate_func_year_week@@MAEPAXI@Z 0046ab10 f i item_create.obj
 0001:00069b10       ??_ECreate_func_year_week@@MAEPAXI@Z 0046ab10 f i item_create.obj
 0001:00069b40       ?create@Create_qfunc@@UAEPAVItem@@PAVTHD@@Ust_mysql_lex_string@@PAV?$List@VItem@@@@@Z 0046ab40 f   item_create.obj
 0001:00069bf0       ?create@Create_func_arg0@@UAEPAVItem@@PAVTHD@@Ust_mysql_lex_string@@PAV?$List@VItem@@@@@Z 0046abf0 f   item_create.obj
 0001:00069c40       ?create@Create_func_format@@UAEPAVItem@@PAVTHD@@PAV2@1@Z 0046ac40 f   item_create.obj
 0001:00069c80       ?create@Create_func_name_const@@UAEPAVItem@@PAVTHD@@PAV2@1@Z 0046ac80 f   item_create.obj
 0001:00069cc0       _get_native_fct_hash_key   0046acc0 f   item_create.obj
 0001:00069ce0       ?item_create_init@@YAHXZ   0046ace0 f   item_create.obj
 0001:00069d60       ?item_create_cleanup@@YAXXZ 0046ad60 f   item_create.obj
 0001:00069d70       ?find_native_function_builder@@YAPAVCreate_func@@PAVTHD@@Ust_mysql_lex_string@@@Z 0046ad70 f   item_create.obj
 0001:00069da0       ?find_qualified_function_builder@@YAPAVCreate_qfunc@@PAVTHD@@@Z 0046ada0 f   item_create.obj
 0001:00069db0       ?pop@?$List@VItem@@@@QAEPAVItem@@XZ 0046adb0 f i item_create.obj
 0001:00069de0       ?head@?$List@UName_resolution_context@@@@QAEPAUName_resolution_context@@XZ 0046ade0 f i item_create.obj
 0001:00069df0       ??0Item_sum@@QAE@XZ        0046adf0 f i item_create.obj
 0001:00069e40       ?type@Item_sum@@UBE?AW4Type@Item@@XZ 0046ae40 f i item_create.obj
 0001:00069e50       ?keep_field_type@Item_sum@@UBE_NXZ 0046ae50 f i item_create.obj
 0001:00069e60       ?fix_length_and_dec@Item_sum@@UAEXXZ 0046ae60 f i item_create.obj
 0001:00069e70       ?result_item@Item_sum@@UAEPAVItem@@PAVField@@@Z 0046ae70 f i item_create.obj
 0001:00069ea0       ?used_tables@Item_sum@@UBE_KXZ 0046aea0 f i item_create.obj
 0001:00069eb0       ?cleanup@Item_sum@@UAEXXZ  0046aeb0 f i item_create.obj
 0001:00069ed0       ?is_null@Item_sum@@UAE_NXZ 0046aed0 f i item_create.obj
 0001:00069ee0       ?const_item@Item_sum@@UBE_NXZ 0046aee0 f i item_create.obj
 0001:00069ef0       ?no_rows_in_result@Item_sum@@UAEXXZ 0046aef0 f i item_create.obj
 0001:00069f00       ?setup@Item_sum@@UAE_NPAVTHD@@@Z 0046af00 f i item_create.obj
 0001:00069f10       ?make_unique@Item_sum@@UAEXXZ 0046af10 f i item_create.obj
 0001:00069f20       ??1Item_sum@@UAE@XZ        0046af20 f i item_create.obj
 0001:00069f60       ??0Item_udf_sum@@QAE@PAUst_udf_func@@@Z 0046af60 f i item_create.obj
 0001:00069ff0       ?name@udf_handler@@QBEPBDXZ 0046aff0 f i item_create.obj
 0001:0006a010       ?func_name@Item_udf_sum@@UBEPBDXZ 0046b010 f i item_create.obj
 0001:0006a030       ?fix_fields@Item_udf_sum@@UAE_NPAVTHD@@PAPAVItem@@@Z 0046b030 f i item_create.obj
 0001:0006a0b0       ?sum_func@Item_udf_sum@@UBE?AW4Sumfunctype@Item_sum@@XZ 0046b0b0 f i item_create.obj
 0001:0006a0c0       ?have_field_update@Item_udf_sum@@UBE_NXZ 0046b0c0 f i item_create.obj
 0001:0006a0d0       ?reset_field@Item_udf_sum@@UAEXXZ 0046b0d0 f i item_create.obj
 0001:0006a0e0       ?update_field@Item_udf_sum@@UAEXXZ 0046b0e0 f i item_create.obj
 0001:0006a0f0       ??0Item_udf_sum@@QAE@PAUst_udf_func@@AAV?$List@VItem@@@@@Z 0046b0f0 f i item_create.obj
 0001:0006a150       ??1Item_udf_sum@@UAE@XZ    0046b150 f i item_create.obj
 0001:0006a1a0       ??0Item_sum_udf_float@@QAE@PAUst_udf_func@@@Z 0046b1a0 f i item_create.obj
 0001:0006a1c0       ?val_int@Item_sum_udf_float@@UAE_JXZ 0046b1c0 f i item_create.obj
 0001:0006a230       ?fix_length_and_dec@Item_sum_udf_float@@UAEXXZ 0046b230 f i item_create.obj
 0001:0006a240       ??0Item_sum_udf_float@@QAE@PAUst_udf_func@@AAV?$List@VItem@@@@@Z 0046b240 f i item_create.obj
 0001:0006a2a0       ??1Item_sum_udf_float@@UAE@XZ 0046b2a0 f i item_create.obj
 0001:0006a2f0       ??0Item_sum_udf_int@@QAE@PAUst_udf_func@@@Z 0046b2f0 f i item_create.obj
 0001:0006a310       ?val_real@Item_sum_udf_int@@UAENXZ 0046b310 f i item_create.obj
 0001:0006a330       ?result_type@Item_sum_udf_int@@UBE?AW4Item_result@@XZ 0046b330 f i item_create.obj
 0001:0006a340       ?fix_length_and_dec@Item_sum_udf_int@@UAEXXZ 0046b340 f i item_create.obj
 0001:0006a350       ??0Item_sum_udf_int@@QAE@PAUst_udf_func@@AAV?$List@VItem@@@@@Z 0046b350 f i item_create.obj
 0001:0006a3b0       ??1Item_sum_udf_int@@UAE@XZ 0046b3b0 f i item_create.obj
 0001:0006a400       ??0Item_sum_udf_str@@QAE@PAUst_udf_func@@@Z 0046b400 f i item_create.obj
 0001:0006a420       ?val_real@Item_sum_udf_str@@UAENXZ 0046b420 f i item_create.obj
 0001:0006a470       ?val_int@Item_sum_udf_str@@UAE_JXZ 0046b470 f i item_create.obj
 0001:0006a4d0       ?result_type@Item_sum_udf_str@@UBE?AW4Item_result@@XZ 0046b4d0 f i item_create.obj
 0001:0006a4e0       ??0Item_sum_udf_str@@QAE@PAUst_udf_func@@AAV?$List@VItem@@@@@Z 0046b4e0 f i item_create.obj
 0001:0006a540       ??1Item_sum_udf_str@@UAE@XZ 0046b540 f i item_create.obj
 0001:0006a590       ??0Item_sum_udf_decimal@@QAE@PAUst_udf_func@@@Z 0046b590 f i item_create.obj
 0001:0006a5b0       ?result_type@Item_sum_udf_decimal@@UBE?AW4Item_result@@XZ 0046b5b0 f i item_create.obj
 0001:0006a5c0       ?fix_length_and_dec@Item_sum_udf_decimal@@UAEXXZ 0046b5c0 f i item_create.obj
 0001:0006a5d0       ??0Item_sum_udf_decimal@@QAE@PAUst_udf_func@@AAV?$List@VItem@@@@@Z 0046b5d0 f i item_create.obj
 0001:0006a630       ??1Item_sum_udf_decimal@@UAE@XZ 0046b630 f i item_create.obj
 0001:0006a680       ??0Item_func@@QAE@PAVItem@@00@Z 0046b680 f i item_create.obj
 0001:0006a720       ??0Item_func@@QAE@PAVItem@@000@Z 0046b720 f i item_create.obj
 0001:0006a7e0       ??0Item_func@@QAE@PAVItem@@0000@Z 0046b7e0 f i item_create.obj
 0001:0006a8b0       ??0Item_real_func@@QAE@XZ  0046b8b0 f i item_create.obj
 0001:0006a8e0       ?val_int@Item_real_func@@UAE_JXZ 0046b8e0 f i item_create.obj
 0001:0006a950       ?result_type@Item_real_func@@UBE?AW4Item_result@@XZ 0046b950 f i item_create.obj
 0001:0006a960       ?fix_length_and_dec@Item_real_func@@UAEXXZ 0046b960 f i item_create.obj
 0001:0006a970       ??0Item_real_func@@QAE@PAVItem@@@Z 0046b970 f i item_create.obj
 0001:0006a9c0       ??0Item_real_func@@QAE@PAVItem@@0@Z 0046b9c0 f i item_create.obj
 0001:0006a9f0       ??1Item_real_func@@UAE@XZ  0046b9f0 f i item_create.obj
 0001:0006aa30       ??0Item_func_numhybrid@@QAE@PAVItem@@@Z 0046ba30 f i item_create.obj
 0001:0006aa90       ?result_type@Item_func_numhybrid@@UBE?AW4Item_result@@XZ 0046ba90 f i item_create.obj
 0001:0006aaa0       ?is_null@Item_func_numhybrid@@UAE_NXZ 0046baa0 f i item_create.obj
 0001:0006aac0       ??0Item_func_numhybrid@@QAE@PAVItem@@0@Z 0046bac0 f i item_create.obj
 0001:0006ab00       ??1Item_func_numhybrid@@UAE@XZ 0046bb00 f i item_create.obj
 0001:0006ab40       ??0Item_func_num1@@QAE@PAVItem@@@Z 0046bb40 f i item_create.obj
 0001:0006aba0       ?str_op@Item_func_num1@@UAEPAVString@@PAV2@@Z 0046bba0 f i item_create.obj
 0001:0006abb0       ??0Item_func_num1@@QAE@PAVItem@@0@Z 0046bbb0 f i item_create.obj
 0001:0006abf0       ??1Item_func_num1@@UAE@XZ  0046bbf0 f i item_create.obj
 0001:0006ac30       ??0Item_num_op@@QAE@PAVItem@@0@Z 0046bc30 f i item_create.obj
 0001:0006ac70       ?print@Item_num_op@@UAEXPAVString@@W4enum_query_type@@@Z 0046bc70 f i item_create.obj
 0001:0006ac80       ?str_op@Item_num_op@@UAEPAVString@@PAV2@@Z 0046bc80 f i item_create.obj
 0001:0006ac90       ??1Item_num_op@@UAE@XZ     0046bc90 f i item_create.obj
 0001:0006acd0       ??0Item_int_func@@QAE@PAVItem@@00@Z 0046bcd0 f i item_create.obj
 0001:0006ad10       ??0Item_int_func@@QAE@AAV?$List@VItem@@@@@Z 0046bd10 f i item_create.obj
 0001:0006ad40       ??0Item_func_connection_id@@QAE@XZ 0046bd40 f i item_create.obj
 0001:0006ad80       ?func_name@Item_func_connection_id@@UBEPBDXZ 0046bd80 f i item_create.obj
 0001:0006ad90       ?val_int@Item_func_connection_id@@UAE_JXZ 0046bd90 f i item_create.obj
 0001:0006ada0       ??1Item_func_connection_id@@UAE@XZ 0046bda0 f i item_create.obj
 0001:0006ade0       ??0Item_func_signed@@QAE@PAVItem@@@Z 0046bde0 f i item_create.obj
 0001:0006ae40       ?func_name@Item_func_signed@@UBEPBDXZ 0046be40 f i item_create.obj
 0001:0006ae50       ?fix_length_and_dec@Item_func_signed@@UAEXXZ 0046be50 f i item_create.obj
 0001:0006ae70       ?decimal_precision@Item_func_signed@@UBEIXZ 0046be70 f i item_create.obj
 0001:0006ae90       ??1Item_func_signed@@UAE@XZ 0046be90 f i item_create.obj
 0001:0006aed0       ??0Item_func_unsigned@@QAE@PAVItem@@@Z 0046bed0 f i item_create.obj
 0001:0006af30       ?func_name@Item_func_unsigned@@UBEPBDXZ 0046bf30 f i item_create.obj
 0001:0006af40       ?fix_length_and_dec@Item_func_unsigned@@UAEXXZ 0046bf40 f i item_create.obj
 0001:0006af60       ??1Item_func_unsigned@@UAE@XZ 0046bf60 f i item_create.obj
 0001:0006afa0       ??0Item_decimal_typecast@@QAE@PAVItem@@HH@Z 0046bfa0 f i item_create.obj
 0001:0006b050       ?result_type@Item_decimal_typecast@@UBE?AW4Item_result@@XZ 0046c050 f i item_create.obj
 0001:0006b060       ?field_type@Item_decimal_typecast@@UBE?AW4enum_field_types@@XZ 0046c060 f i item_create.obj
 0001:0006b070       ?fix_length_and_dec@Item_decimal_typecast@@UAEXXZ 0046c070 f i item_create.obj
 0001:0006b080       ?func_name@Item_decimal_typecast@@UBEPBDXZ 0046c080 f i item_create.obj
 0001:0006b090       ??1Item_decimal_typecast@@UAE@XZ 0046c090 f i item_create.obj
 0001:0006b0d0       ??0Item_func_additive_op@@QAE@PAVItem@@0@Z 0046c0d0 f i item_create.obj
 0001:0006b110       ?check_partition_func_processor@Item_func_additive_op@@UAE_NPAE@Z 0046c110 f i item_create.obj
 0001:0006b120       ??1Item_func_additive_op@@UAE@XZ 0046c120 f i item_create.obj
 0001:0006b160       ??0Item_func_minus@@QAE@PAVItem@@0@Z 0046c160 f i item_create.obj
 0001:0006b1a0       ?func_name@Item_func_minus@@UBEPBDXZ 0046c1a0 f i item_create.obj
 0001:0006b1b0       ??1Item_func_minus@@UAE@XZ 0046c1b0 f i item_create.obj
 0001:0006b1f0       ??0Item_func_div@@QAE@PAVItem@@0@Z 0046c1f0 f i item_create.obj
 0001:0006b230       ?int_op@Item_func_div@@UAE_JXZ 0046c230 f i item_create.obj
 0001:0006b240       ?func_name@Item_func_div@@UBEPBDXZ 0046c240 f i item_create.obj
 0001:0006b250       ??1Item_func_div@@UAE@XZ   0046c250 f i item_create.obj
 0001:0006b290       ??0Item_func_abs@@QAE@PAVItem@@@Z 0046c290 f i item_create.obj
 0001:0006b2f0       ?func_name@Item_func_abs@@UBEPBDXZ 0046c2f0 f i item_create.obj
 0001:0006b300       ?check_partition_func_processor@Item_func_abs@@UAE_NPAE@Z 0046c300 f i item_create.obj
 0001:0006b310       ??1Item_func_abs@@UAE@XZ   0046c310 f i item_create.obj
 0001:0006b350       ??0Item_dec_func@@QAE@PAVItem@@@Z 0046c350 f i item_create.obj
 0001:0006b3a0       ?fix_length_and_dec@Item_dec_func@@UAEXXZ 0046c3a0 f i item_create.obj
 0001:0006b3c0       ??0Item_dec_func@@QAE@PAVItem@@0@Z 0046c3c0 f i item_create.obj
 0001:0006b3f0       ??1Item_dec_func@@UAE@XZ   0046c3f0 f i item_create.obj
 0001:0006b430       ??0Item_func_exp@@QAE@PAVItem@@@Z 0046c430 f i item_create.obj
 0001:0006b480       ?func_name@Item_func_exp@@UBEPBDXZ 0046c480 f i item_create.obj
 0001:0006b490       ??1Item_func_exp@@UAE@XZ   0046c490 f i item_create.obj
 0001:0006b4d0       ??0Item_func_ln@@QAE@PAVItem@@@Z 0046c4d0 f i item_create.obj
 0001:0006b520       ?func_name@Item_func_ln@@UBEPBDXZ 0046c520 f i item_create.obj
 0001:0006b530       ??1Item_func_ln@@UAE@XZ    0046c530 f i item_create.obj
 0001:0006b570       ??0Item_func_log@@QAE@PAVItem@@@Z 0046c570 f i item_create.obj
 0001:0006b5c0       ?func_name@Item_func_log@@UBEPBDXZ 0046c5c0 f i item_create.obj
 0001:0006b5d0       ??0Item_func_log@@QAE@PAVItem@@0@Z 0046c5d0 f i item_create.obj
 0001:0006b600       ??1Item_func_log@@UAE@XZ   0046c600 f i item_create.obj
 0001:0006b640       ??0Item_func_log2@@QAE@PAVItem@@@Z 0046c640 f i item_create.obj
 0001:0006b690       ?func_name@Item_func_log2@@UBEPBDXZ 0046c690 f i item_create.obj
 0001:0006b6a0       ??1Item_func_log2@@UAE@XZ  0046c6a0 f i item_create.obj
 0001:0006b6e0       ??0Item_func_log10@@QAE@PAVItem@@@Z 0046c6e0 f i item_create.obj
 0001:0006b730       ?func_name@Item_func_log10@@UBEPBDXZ 0046c730 f i item_create.obj
 0001:0006b740       ??1Item_func_log10@@UAE@XZ 0046c740 f i item_create.obj
 0001:0006b780       ??0Item_func_sqrt@@QAE@PAVItem@@@Z 0046c780 f i item_create.obj
 0001:0006b7d0       ?func_name@Item_func_sqrt@@UBEPBDXZ 0046c7d0 f i item_create.obj
 0001:0006b7e0       ??1Item_func_sqrt@@UAE@XZ  0046c7e0 f i item_create.obj
 0001:0006b820       ??0Item_func_pow@@QAE@PAVItem@@0@Z 0046c820 f i item_create.obj
 0001:0006b850       ?func_name@Item_func_pow@@UBEPBDXZ 0046c850 f i item_create.obj
 0001:0006b860       ??1Item_func_pow@@UAE@XZ   0046c860 f i item_create.obj
 0001:0006b8a0       ??0Item_func_acos@@QAE@PAVItem@@@Z 0046c8a0 f i item_create.obj
 0001:0006b8f0       ?func_name@Item_func_acos@@UBEPBDXZ 0046c8f0 f i item_create.obj
 0001:0006b900       ??1Item_func_acos@@UAE@XZ  0046c900 f i item_create.obj
 0001:0006b940       ??0Item_func_asin@@QAE@PAVItem@@@Z 0046c940 f i item_create.obj
 0001:0006b990       ?func_name@Item_func_asin@@UBEPBDXZ 0046c990 f i item_create.obj
 0001:0006b9a0       ??1Item_func_asin@@UAE@XZ  0046c9a0 f i item_create.obj
 0001:0006b9e0       ??0Item_func_atan@@QAE@PAVItem@@@Z 0046c9e0 f i item_create.obj
 0001:0006ba30       ?func_name@Item_func_atan@@UBEPBDXZ 0046ca30 f i item_create.obj
 0001:0006ba40       ??0Item_func_atan@@QAE@PAVItem@@0@Z 0046ca40 f i item_create.obj
 0001:0006ba70       ??1Item_func_atan@@UAE@XZ  0046ca70 f i item_create.obj
 0001:0006bab0       ??0Item_func_cos@@QAE@PAVItem@@@Z 0046cab0 f i item_create.obj
 0001:0006bb00       ?func_name@Item_func_cos@@UBEPBDXZ 0046cb00 f i item_create.obj
 0001:0006bb10       ??1Item_func_cos@@UAE@XZ   0046cb10 f i item_create.obj
 0001:0006bb50       ??0Item_func_sin@@QAE@PAVItem@@@Z 0046cb50 f i item_create.obj
 0001:0006bba0       ?func_name@Item_func_sin@@UBEPBDXZ 0046cba0 f i item_create.obj
 0001:0006bbb0       ??1Item_func_sin@@UAE@XZ   0046cbb0 f i item_create.obj
 0001:0006bbf0       ??0Item_func_tan@@QAE@PAVItem@@@Z 0046cbf0 f i item_create.obj
 0001:0006bc40       ?func_name@Item_func_tan@@UBEPBDXZ 0046cc40 f i item_create.obj
 0001:0006bc50       ??1Item_func_tan@@UAE@XZ   0046cc50 f i item_create.obj
 0001:0006bc90       ??0Item_func_int_val@@QAE@PAVItem@@@Z 0046cc90 f i item_create.obj
 0001:0006bcf0       ??1Item_func_int_val@@UAE@XZ 0046ccf0 f i item_create.obj
 0001:0006bd30       ??0Item_func_ceiling@@QAE@PAVItem@@@Z 0046cd30 f i item_create.obj
 0001:0006bd90       ?func_name@Item_func_ceiling@@UBEPBDXZ 0046cd90 f i item_create.obj
 0001:0006bda0       ?check_partition_func_processor@Item_func_ceiling@@UAE_NPAE@Z 0046cda0 f i item_create.obj
 0001:0006bdb0       ??1Item_func_ceiling@@UAE@XZ 0046cdb0 f i item_create.obj
 0001:0006bdf0       ??0Item_func_floor@@QAE@PAVItem@@@Z 0046cdf0 f i item_create.obj
 0001:0006be50       ?func_name@Item_func_floor@@UBEPBDXZ 0046ce50 f i item_create.obj
 0001:0006be60       ?check_partition_func_processor@Item_func_floor@@UAE_NPAE@Z 0046ce60 f i item_create.obj
 0001:0006be70       ??1Item_func_floor@@UAE@XZ 0046ce70 f i item_create.obj
 0001:0006beb0       ??0Item_func_round@@QAE@PAVItem@@0_N@Z 0046ceb0 f i item_create.obj
 0001:0006bf00       ?func_name@Item_func_round@@UBEPBDXZ 0046cf00 f i item_create.obj
 0001:0006bf20       ??1Item_func_round@@UAE@XZ 0046cf20 f i item_create.obj
 0001:0006bf60       ??0Item_func_rand@@QAE@PAVItem@@@Z 0046cf60 f i item_create.obj
 0001:0006bfc0       ?func_name@Item_func_rand@@UBEPBDXZ 0046cfc0 f i item_create.obj
 0001:0006bfd0       ?const_item@Item_func_rand@@UBE_NXZ 0046cfd0 f i item_create.obj
 0001:0006bfe0       ??0Item_func_rand@@QAE@XZ  0046cfe0 f i item_create.obj
 0001:0006c010       ??1Item_func_rand@@UAE@XZ  0046d010 f i item_create.obj
 0001:0006c050       ??0Item_func_sign@@QAE@PAVItem@@@Z 0046d050 f i item_create.obj
 0001:0006c0b0       ?func_name@Item_func_sign@@UBEPBDXZ 0046d0b0 f i item_create.obj
 0001:0006c0c0       ??1Item_func_sign@@UAE@XZ  0046d0c0 f i item_create.obj
 0001:0006c100       ??0Item_func_units@@QAE@PADPAVItem@@NN@Z 0046d100 f i item_create.obj
 0001:0006c180       ?func_name@Item_func_units@@UBEPBDXZ 0046d180 f i item_create.obj
 0001:0006c190       ?fix_length_and_dec@Item_func_units@@UAEXXZ 0046d190 f i item_create.obj
 0001:0006c1a0       ??1Item_func_units@@UAE@XZ 0046d1a0 f i item_create.obj
 0001:0006c1e0       ??0Item_func_min_max@@QAE@AAV?$List@VItem@@@@H@Z 0046d1e0 f i item_create.obj
 0001:0006c260       ?result_type@Item_func_min_max@@UBE?AW4Item_result@@XZ 0046d260 f i item_create.obj
 0001:0006c270       ?result_as_longlong@Item_func_min_max@@UAE_NXZ 0046d270 f i item_create.obj
 0001:0006c280       ?field_type@Item_func_min_max@@UBE?AW4enum_field_types@@XZ 0046d280 f i item_create.obj
 0001:0006c290       ??1Item_func_min_max@@UAE@XZ 0046d290 f i item_create.obj
 0001:0006c310       ??0Item_func_min@@QAE@AAV?$List@VItem@@@@@Z 0046d310 f i item_create.obj
 0001:0006c340       ?func_name@Item_func_min@@UBEPBDXZ 0046d340 f i item_create.obj
 0001:0006c350       ??1Item_func_min@@UAE@XZ   0046d350 f i item_create.obj
 0001:0006c360       ??0Item_func_max@@QAE@AAV?$List@VItem@@@@@Z 0046d360 f i item_create.obj
 0001:0006c390       ?func_name@Item_func_max@@UBEPBDXZ 0046d390 f i item_create.obj
 0001:0006c3a0       ??1Item_func_max@@UAE@XZ   0046d3a0 f i item_create.obj
 0001:0006c3b0       ??0Item_func_length@@QAE@PAVItem@@@Z 0046d3b0 f i item_create.obj
 0001:0006c430       ?func_name@Item_func_length@@UBEPBDXZ 0046d430 f i item_create.obj
 0001:0006c440       ?fix_length_and_dec@Item_func_length@@UAEXXZ 0046d440 f i item_create.obj
 0001:0006c450       ??1Item_func_length@@UAE@XZ 0046d450 f i item_create.obj
 0001:0006c4d0       ??0Item_func_bit_length@@QAE@PAVItem@@@Z 0046d4d0 f i item_create.obj
 0001:0006c4f0       ?val_int@Item_func_bit_length@@UAE_JXZ 0046d4f0 f i item_create.obj
 0001:0006c510       ?func_name@Item_func_bit_length@@UBEPBDXZ 0046d510 f i item_create.obj
 0001:0006c520       ??1Item_func_bit_length@@UAE@XZ 0046d520 f i item_create.obj
 0001:0006c530       ??0Item_func_char_length@@QAE@PAVItem@@@Z 0046d530 f i item_create.obj
 0001:0006c5b0       ?func_name@Item_func_char_length@@UBEPBDXZ 0046d5b0 f i item_create.obj
 0001:0006c5c0       ?fix_length_and_dec@Item_func_char_length@@UAEXXZ 0046d5c0 f i item_create.obj
 0001:0006c5d0       ??1Item_func_char_length@@UAE@XZ 0046d5d0 f i item_create.obj
 0001:0006c650       ??0Item_func_coercibility@@QAE@PAVItem@@@Z 0046d650 f i item_create.obj
 0001:0006c6b0       ?func_name@Item_func_coercibility@@UBEPBDXZ 0046d6b0 f i item_create.obj
 0001:0006c6c0       ?fix_length_and_dec@Item_func_coercibility@@UAEXXZ 0046d6c0 f i item_create.obj
 0001:0006c6d0       ?not_null_tables@Item_func_coercibility@@UBE_KXZ 0046d6d0 f i item_create.obj
 0001:0006c6e0       ??1Item_func_coercibility@@UAE@XZ 0046d6e0 f i item_create.obj
 0001:0006c720       ??0Item_func_locate@@QAE@PAVItem@@0@Z 0046d720 f i item_create.obj
 0001:0006c7d0       ?func_name@Item_func_locate@@UBEPBDXZ 0046d7d0 f i item_create.obj
 0001:0006c7e0       ??0Item_func_locate@@QAE@PAVItem@@00@Z 0046d7e0 f i item_create.obj
 0001:0006c890       ??1Item_func_locate@@UAE@XZ 0046d890 f i item_create.obj
 0001:0006c940       ??0Item_func_field@@QAE@AAV?$List@VItem@@@@@Z 0046d940 f i item_create.obj
 0001:0006c9e0       ?func_name@Item_func_field@@UBEPBDXZ 0046d9e0 f i item_create.obj
 0001:0006c9f0       ??1Item_func_field@@UAE@XZ 0046d9f0 f i item_create.obj
 0001:0006caa0       ??0Item_func_ord@@QAE@PAVItem@@@Z 0046daa0 f i item_create.obj
 0001:0006cb20       ?func_name@Item_func_ord@@UBEPBDXZ 0046db20 f i item_create.obj
 0001:0006cb30       ??1Item_func_ord@@UAE@XZ   0046db30 f i item_create.obj
 0001:0006cbb0       ??0Item_func_find_in_set@@QAE@PAVItem@@0@Z 0046dbb0 f i item_create.obj
 0001:0006cc60       ?func_name@Item_func_find_in_set@@UBEPBDXZ 0046dc60 f i item_create.obj
 0001:0006cc70       ??1Item_func_find_in_set@@UAE@XZ 0046dc70 f i item_create.obj
 0001:0006cd20       ??0Item_func_bit_count@@QAE@PAVItem@@@Z 0046dd20 f i item_create.obj
 0001:0006cd80       ?func_name@Item_func_bit_count@@UBEPBDXZ 0046dd80 f i item_create.obj
 0001:0006cd90       ?fix_length_and_dec@Item_func_bit_count@@UAEXXZ 0046dd90 f i item_create.obj
 0001:0006cda0       ??1Item_func_bit_count@@UAE@XZ 0046dda0 f i item_create.obj
 0001:0006cde0       ??0Item_func_last_insert_id@@QAE@XZ 0046dde0 f i item_create.obj
 0001:0006ce20       ?func_name@Item_func_last_insert_id@@UBEPBDXZ 0046de20 f i item_create.obj
 0001:0006ce30       ?fix_length_and_dec@Item_func_last_insert_id@@UAEXXZ 0046de30 f i item_create.obj
 0001:0006ce50       ??0Item_func_last_insert_id@@QAE@PAVItem@@@Z 0046de50 f i item_create.obj
 0001:0006ceb0       ??1Item_func_last_insert_id@@UAE@XZ 0046deb0 f i item_create.obj
 0001:0006cef0       ??0Item_func_benchmark@@QAE@PAVItem@@0@Z 0046def0 f i item_create.obj
 0001:0006cf20       ?func_name@Item_func_benchmark@@UBEPBDXZ 0046df20 f i item_create.obj
 0001:0006cf30       ?fix_length_and_dec@Item_func_benchmark@@UAEXXZ 0046df30 f i item_create.obj
 0001:0006cf40       ??1Item_func_benchmark@@UAE@XZ 0046df40 f i item_create.obj
 0001:0006cf80       ??0Item_func_sleep@@QAE@PAVItem@@@Z 0046df80 f i item_create.obj
 0001:0006cfe0       ?const_item@Item_func_sleep@@UBE_NXZ 0046dfe0 f i item_create.obj
 0001:0006cff0       ?func_name@Item_func_sleep@@UBEPBDXZ 0046dff0 f i item_create.obj
 0001:0006d000       ?update_used_tables@Item_func_sleep@@UAEXXZ 0046e000 f i item_create.obj
 0001:0006d020       ??1Item_func_sleep@@UAE@XZ 0046e020 f i item_create.obj
 0001:0006d060       ??0Item_udf_func@@QAE@PAUst_udf_func@@@Z 0046e060 f i item_create.obj
 0001:0006d0d0       ?result_type@udf_handler@@QBE?AW4Item_result@@XZ 0046e0d0 f i item_create.obj
 0001:0006d0e0       ?func_name@Item_udf_func@@UBEPBDXZ 0046e0e0 f i item_create.obj
 0001:0006d100       ?functype@Item_udf_func@@UBE?AW4Functype@Item_func@@XZ 0046e100 f i item_create.obj
 0001:0006d110       ?fix_fields@Item_udf_func@@UAE_NPAVTHD@@PAPAVItem@@@Z 0046e110 f i item_create.obj
 0001:0006d160       ?update_used_tables@Item_udf_func@@UAEXXZ 0046e160 f i item_create.obj
 0001:0006d1c0       ?result_type@Item_udf_func@@UBE?AW4Item_result@@XZ 0046e1c0 f i item_create.obj
 0001:0006d1e0       ?not_null_tables@Item_udf_func@@UBE_KXZ 0046e1e0 f i item_create.obj
 0001:0006d1f0       ?is_expensive@Item_udf_func@@UAE_NXZ 0046e1f0 f i item_create.obj
 0001:0006d200       ??0Item_udf_func@@QAE@PAUst_udf_func@@AAV?$List@VItem@@@@@Z 0046e200 f i item_create.obj
 0001:0006d260       ??1Item_udf_func@@UAE@XZ   0046e260 f i item_create.obj
 0001:0006d2b0       ??0Item_func_udf_float@@QAE@PAUst_udf_func@@@Z 0046e2b0 f i item_create.obj
 0001:0006d320       ?val_int@Item_func_udf_float@@UAE_JXZ 0046e320 f i item_create.obj
 0001:0006d390       ?val_decimal@Item_func_udf_float@@UAEPAVmy_decimal@@PAV2@@Z 0046e390 f i item_create.obj
 0001:0006d3d0       ?fix_length_and_dec@Item_func_udf_float@@UAEXXZ 0046e3d0 f i item_create.obj
 0001:0006d3e0       ??0Item_func_udf_float@@QAE@PAUst_udf_func@@AAV?$List@VItem@@@@@Z 0046e3e0 f i item_create.obj
 0001:0006d440       ??1Item_func_udf_float@@UAE@XZ 0046e440 f i item_create.obj
 0001:0006d490       ??0Item_func_udf_int@@QAE@PAUst_udf_func@@@Z 0046e490 f i item_create.obj
 0001:0006d500       ?val_real@Item_func_udf_int@@UAENXZ 0046e500 f i item_create.obj
 0001:0006d520       ?result_type@Item_func_udf_int@@UBE?AW4Item_result@@XZ 0046e520 f i item_create.obj
 0001:0006d530       ?fix_length_and_dec@Item_func_udf_int@@UAEXXZ 0046e530 f i item_create.obj
 0001:0006d540       ??0Item_func_udf_int@@QAE@PAUst_udf_func@@AAV?$List@VItem@@@@@Z 0046e540 f i item_create.obj
 0001:0006d5a0       ??1Item_func_udf_int@@UAE@XZ 0046e5a0 f i item_create.obj
 0001:0006d5f0       ??0Item_func_udf_decimal@@QAE@PAUst_udf_func@@@Z 0046e5f0 f i item_create.obj
 0001:0006d660       ?result_type@Item_func_udf_decimal@@UBE?AW4Item_result@@XZ 0046e660 f i item_create.obj
 0001:0006d670       ??0Item_func_udf_decimal@@QAE@PAUst_udf_func@@AAV?$List@VItem@@@@@Z 0046e670 f i item_create.obj
 0001:0006d6d0       ??1Item_func_udf_decimal@@UAE@XZ 0046e6d0 f i item_create.obj
 0001:0006d720       ??0Item_func_udf_str@@QAE@PAUst_udf_func@@@Z 0046e720 f i item_create.obj
 0001:0006d790       ?val_real@Item_func_udf_str@@UAENXZ 0046e790 f i item_create.obj
 0001:0006d7e0       ?val_int@Item_func_udf_str@@UAE_JXZ 0046e7e0 f i item_create.obj
 0001:0006d830       ?val_decimal@Item_func_udf_str@@UAEPAVmy_decimal@@PAV2@@Z 0046e830 f i item_create.obj
 0001:0006d870       ?result_type@Item_func_udf_str@@UBE?AW4Item_result@@XZ 0046e870 f i item_create.obj
 0001:0006d880       ??0Item_func_udf_str@@QAE@PAUst_udf_func@@AAV?$List@VItem@@@@@Z 0046e880 f i item_create.obj
 0001:0006d8e0       ??1Item_func_udf_str@@UAE@XZ 0046e8e0 f i item_create.obj
 0001:0006d930       ??0Item_func_get_lock@@QAE@PAVItem@@0@Z 0046e930 f i item_create.obj
 0001:0006d990       ?func_name@Item_func_get_lock@@UBEPBDXZ 0046e990 f i item_create.obj
 0001:0006d9a0       ?fix_length_and_dec@Item_func_get_lock@@UAEXXZ 0046e9a0 f i item_create.obj
 0001:0006d9b0       ??1Item_func_get_lock@@UAE@XZ 0046e9b0 f i item_create.obj
 0001:0006da30       ??0Item_func_release_lock@@QAE@PAVItem@@@Z 0046ea30 f i item_create.obj
 0001:0006dab0       ?func_name@Item_func_release_lock@@UBEPBDXZ 0046eab0 f i item_create.obj
 0001:0006dac0       ?fix_length_and_dec@Item_func_release_lock@@UAEXXZ 0046eac0 f i item_create.obj
 0001:0006dad0       ??1Item_func_release_lock@@UAE@XZ 0046ead0 f i item_create.obj
 0001:0006db50       ??0Item_master_pos_wait@@QAE@PAVItem@@0@Z 0046eb50 f i item_create.obj
 0001:0006dbb0       ?func_name@Item_master_pos_wait@@UBEPBDXZ 0046ebb0 f i item_create.obj
 0001:0006dbc0       ?fix_length_and_dec@Item_master_pos_wait@@UAEXXZ 0046ebc0 f i item_create.obj
 0001:0006dbd0       ??0Item_master_pos_wait@@QAE@PAVItem@@00@Z 0046ebd0 f i item_create.obj
 0001:0006dc40       ??1Item_master_pos_wait@@UAE@XZ 0046ec40 f i item_create.obj
 0001:0006dcc0       ??0Item_func_inet_aton@@QAE@PAVItem@@@Z 0046ecc0 f i item_create.obj
 0001:0006dd20       ?func_name@Item_func_inet_aton@@UBEPBDXZ 0046ed20 f i item_create.obj
 0001:0006dd30       ?fix_length_and_dec@Item_func_inet_aton@@UAEXXZ 0046ed30 f i item_create.obj
 0001:0006dd50       ??1Item_func_inet_aton@@UAE@XZ 0046ed50 f i item_create.obj
 0001:0006dd90       ??0Item_func_is_free_lock@@QAE@PAVItem@@@Z 0046ed90 f i item_create.obj
 0001:0006de10       ?func_name@Item_func_is_free_lock@@UBEPBDXZ 0046ee10 f i item_create.obj
 0001:0006de20       ?fix_length_and_dec@Item_func_is_free_lock@@UAEXXZ 0046ee20 f i item_create.obj
 0001:0006de40       ??1Item_func_is_free_lock@@UAE@XZ 0046ee40 f i item_create.obj
 0001:0006dec0       ??0Item_func_is_used_lock@@QAE@PAVItem@@@Z 0046eec0 f i item_create.obj
 0001:0006df40       ?func_name@Item_func_is_used_lock@@UBEPBDXZ 0046ef40 f i item_create.obj
 0001:0006df50       ?fix_length_and_dec@Item_func_is_used_lock@@UAEXXZ 0046ef50 f i item_create.obj
 0001:0006df70       ??1Item_func_is_used_lock@@UAE@XZ 0046ef70 f i item_create.obj
 0001:0006dff0       ??0Item_func_row_count@@QAE@XZ 0046eff0 f i item_create.obj
 0001:0006e030       ?func_name@Item_func_row_count@@UBEPBDXZ 0046f030 f i item_create.obj
 0001:0006e040       ?fix_length_and_dec@Item_func_row_count@@UAEXXZ 0046f040 f i item_create.obj
 0001:0006e050       ??1Item_func_row_count@@UAE@XZ 0046f050 f i item_create.obj
 0001:0006e090       ??0Item_func_found_rows@@QAE@XZ 0046f090 f i item_create.obj
 0001:0006e0d0       ?func_name@Item_func_found_rows@@UBEPBDXZ 0046f0d0 f i item_create.obj
 0001:0006e0e0       ?fix_length_and_dec@Item_func_found_rows@@UAEXXZ 0046f0e0 f i item_create.obj
 0001:0006e0f0       ??1Item_func_found_rows@@UAE@XZ 0046f0f0 f i item_create.obj
 0001:0006e130       ??0Item_func_uuid_short@@QAE@XZ 0046f130 f i item_create.obj
 0001:0006e170       ?func_name@Item_func_uuid_short@@UBEPBDXZ 0046f170 f i item_create.obj
 0001:0006e180       ?fix_length_and_dec@Item_func_uuid_short@@UAEXXZ 0046f180 f i item_create.obj
 0001:0006e190       ?check_partition_func_processor@Item_func_uuid_short@@UAE_NPAE@Z 0046f190 f i item_create.obj
 0001:0006e1a0       ??1Item_func_uuid_short@@UAE@XZ 0046f1a0 f i item_create.obj
 0001:0006e1e0       ??0Item_func_strcmp@@QAE@PAVItem@@0@Z 0046f1e0 f i item_create.obj
 0001:0006e210       ?select_optimize@Item_func_strcmp@@UBE?AW4optimize_type@Item_func@@XZ 0046f210 f i item_create.obj
 0001:0006e220       ?func_name@Item_func_strcmp@@UBEPBDXZ 0046f220 f i item_create.obj
 0001:0006e230       ?print@Item_func_strcmp@@UAEXPAVString@@W4enum_query_type@@@Z 0046f230 f i item_create.obj
 0001:0006e240       ??1Item_func_strcmp@@UAE@XZ 0046f240 f i item_create.obj
 0001:0006e250       ??0Item_func_coalesce@@IAE@PAVItem@@0@Z 0046f250 f i item_create.obj
 0001:0006e290       ?find_num_type@Item_func_coalesce@@UAEXXZ 0046f290 f i item_create.obj
 0001:0006e2a0       ?result_type@Item_func_coalesce@@UBE?AW4Item_result@@XZ 0046f2a0 f i item_create.obj
 0001:0006e2b0       ?func_name@Item_func_coalesce@@UBEPBDXZ 0046f2b0 f i item_create.obj
 0001:0006e2c0       ?not_null_tables@Item_func_coalesce@@UBE_KXZ 0046f2c0 f i item_create.obj
 0001:0006e2d0       ?field_type@Item_func_coalesce@@UBE?AW4enum_field_types@@XZ 0046f2d0 f i item_create.obj
 0001:0006e2e0       ??1Item_func_coalesce@@UAE@XZ 0046f2e0 f i item_create.obj
 0001:0006e320       ??0Item_func_ifnull@@QAE@PAVItem@@0@Z 0046f320 f i item_create.obj
 0001:0006e360       ?func_name@Item_func_ifnull@@UBEPBDXZ 0046f360 f i item_create.obj
 0001:0006e370       ??1Item_func_ifnull@@UAE@XZ 0046f370 f i item_create.obj
 0001:0006e3b0       ??0Item_func_nullif@@QAE@PAVItem@@0@Z 0046f3b0 f i item_create.obj
 0001:0006e3f0       ?result_type@Item_func_nullif@@UBE?AW4Item_result@@XZ 0046f3f0 f i item_create.obj
 0001:0006e400       ?decimal_precision@Item_func_nullif@@UBEIXZ 0046f400 f i item_create.obj
 0001:0006e420       ?func_name@Item_func_nullif@@UBEPBDXZ 0046f420 f i item_create.obj
 0001:0006e430       ?print@Item_func_nullif@@UAEXPAVString@@W4enum_query_type@@@Z 0046f430 f i item_create.obj
 0001:0006e440       ?not_null_tables@Item_func_nullif@@UBE_KXZ 0046f440 f i item_create.obj
 0001:0006e450       ??1Item_func_nullif@@UAE@XZ 0046f450 f i item_create.obj
 0001:0006e460       ??0Item_str_func@@QAE@XZ   0046f460 f i item_create.obj
 0001:0006e4a0       ??0Item_str_func@@QAE@PAVItem@@0@Z 0046f4a0 f i item_create.obj
 0001:0006e4d0       ??0Item_str_func@@QAE@PAVItem@@00@Z 0046f4d0 f i item_create.obj
 0001:0006e510       ??0Item_str_func@@QAE@PAVItem@@000@Z 0046f510 f i item_create.obj
 0001:0006e550       ??0Item_str_func@@QAE@PAVItem@@0000@Z 0046f550 f i item_create.obj
 0001:0006e590       ??0Item_str_func@@QAE@AAV?$List@VItem@@@@@Z 0046f590 f i item_create.obj
 0001:0006e5c0       ??0Item_func_md5@@QAE@PAVItem@@@Z 0046f5c0 f i item_create.obj
 0001:0006e660       ?func_name@Item_func_md5@@UBEPBDXZ 0046f660 f i item_create.obj
 0001:0006e670       ??1Item_func_md5@@UAE@XZ   0046f670 f i item_create.obj
 0001:0006e6f0       ??0Item_func_sha@@QAE@PAVItem@@@Z 0046f6f0 f i item_create.obj
 0001:0006e770       ?func_name@Item_func_sha@@UBEPBDXZ 0046f770 f i item_create.obj
 0001:0006e780       ??1Item_func_sha@@UAE@XZ   0046f780 f i item_create.obj
 0001:0006e7c0       ??0Item_func_aes_encrypt@@QAE@PAVItem@@0@Z 0046f7c0 f i item_create.obj
 0001:0006e7f0       ?func_name@Item_func_aes_encrypt@@UBEPBDXZ 0046f7f0 f i item_create.obj
 0001:0006e800       ??1Item_func_aes_encrypt@@UAE@XZ 0046f800 f i item_create.obj
 0001:0006e840       ??0Item_func_aes_decrypt@@QAE@PAVItem@@0@Z 0046f840 f i item_create.obj
 0001:0006e870       ?func_name@Item_func_aes_decrypt@@UBEPBDXZ 0046f870 f i item_create.obj
 0001:0006e880       ??1Item_func_aes_decrypt@@UAE@XZ 0046f880 f i item_create.obj
 0001:0006e8c0       ??0Item_func_concat@@QAE@AAV?$List@VItem@@@@@Z 0046f8c0 f i item_create.obj
 0001:0006e920       ?func_name@Item_func_concat@@UBEPBDXZ 0046f920 f i item_create.obj
 0001:0006e930       ??1Item_func_concat@@UAE@XZ 0046f930 f i item_create.obj
 0001:0006e9b0       ??0Item_func_concat_ws@@QAE@AAV?$List@VItem@@@@@Z 0046f9b0 f i item_create.obj
 0001:0006ea10       ?func_name@Item_func_concat_ws@@UBEPBDXZ 0046fa10 f i item_create.obj
 0001:0006ea20       ?not_null_tables@Item_func_concat_ws@@UBE_KXZ 0046fa20 f i item_create.obj
 0001:0006ea30       ??1Item_func_concat_ws@@UAE@XZ 0046fa30 f i item_create.obj
 0001:0006eab0       ??0Item_func_reverse@@QAE@PAVItem@@@Z 0046fab0 f i item_create.obj
 0001:0006eb30       ?func_name@Item_func_reverse@@UBEPBDXZ 0046fb30 f i item_create.obj
 0001:0006eb40       ??1Item_func_reverse@@UAE@XZ 0046fb40 f i item_create.obj
 0001:0006ebc0       ??0Item_str_conv@@QAE@PAVItem@@@Z 0046fbc0 f i item_create.obj
 0001:0006ec40       ??1Item_str_conv@@UAE@XZ   0046fc40 f i item_create.obj
 0001:0006ecc0       ??0Item_func_lcase@@QAE@PAVItem@@@Z 0046fcc0 f i item_create.obj
 0001:0006ece0       ?func_name@Item_func_lcase@@UBEPBDXZ 0046fce0 f i item_create.obj
 0001:0006ecf0       ??1Item_func_lcase@@UAE@XZ 0046fcf0 f i item_create.obj
 0001:0006ed00       ??0Item_func_ucase@@QAE@PAVItem@@@Z 0046fd00 f i item_create.obj
 0001:0006ed20       ?func_name@Item_func_ucase@@UBEPBDXZ 0046fd20 f i item_create.obj
 0001:0006ed30       ??1Item_func_ucase@@UAE@XZ 0046fd30 f i item_create.obj
 0001:0006ed40       ??0Item_func_substr_index@@QAE@PAVItem@@00@Z 0046fd40 f i item_create.obj
 0001:0006eda0       ?func_name@Item_func_substr_index@@UBEPBDXZ 0046fda0 f i item_create.obj
 0001:0006edb0       ??1Item_func_substr_index@@UAE@XZ 0046fdb0 f i item_create.obj
 0001:0006ee30       ??0Item_func_trim@@QAE@PAVItem@@@Z 0046fe30 f i item_create.obj
 0001:0006eee0       ?func_name@Item_func_trim@@UBEPBDXZ 0046fee0 f i item_create.obj
 0001:0006eef0       ?mode_name@Item_func_trim@@UBEPBDXZ 0046fef0 f i item_create.obj
 0001:0006ef00       ??1Item_func_trim@@UAE@XZ  0046ff00 f i item_create.obj
 0001:0006efb0       ??0Item_func_ltrim@@QAE@PAVItem@@@Z 0046ffb0 f i item_create.obj
 0001:0006efd0       ?func_name@Item_func_ltrim@@UBEPBDXZ 0046ffd0 f i item_create.obj
 0001:0006efe0       ?mode_name@Item_func_ltrim@@UBEPBDXZ 0046ffe0 f i item_create.obj
 0001:0006eff0       ??1Item_func_ltrim@@UAE@XZ 0046fff0 f i item_create.obj
 0001:0006f000       ??0Item_func_rtrim@@QAE@PAVItem@@@Z 00470000 f i item_create.obj
 0001:0006f020       ?func_name@Item_func_rtrim@@UBEPBDXZ 00470020 f i item_create.obj
 0001:0006f030       ?mode_name@Item_func_rtrim@@UBEPBDXZ 00470030 f i item_create.obj
 0001:0006f040       ??1Item_func_rtrim@@UAE@XZ 00470040 f i item_create.obj
 0001:0006f050       ??0Item_func_des_encrypt@@QAE@PAVItem@@@Z 00470050 f i item_create.obj
 0001:0006f0d0       ?fix_length_and_dec@Item_func_des_encrypt@@UAEXXZ 004700d0 f i item_create.obj
 0001:0006f0f0       ?func_name@Item_func_des_encrypt@@UBEPBDXZ 004700f0 f i item_create.obj
 0001:0006f100       ??0Item_func_des_encrypt@@QAE@PAVItem@@0@Z 00470100 f i item_create.obj
 0001:0006f160       ??1Item_func_des_encrypt@@UAE@XZ 00470160 f i item_create.obj
 0001:0006f1e0       ??0Item_func_des_decrypt@@QAE@PAVItem@@@Z 004701e0 f i item_create.obj
 0001:0006f260       ?fix_length_and_dec@Item_func_des_decrypt@@UAEXXZ 00470260 f i item_create.obj
 0001:0006f280       ?func_name@Item_func_des_decrypt@@UBEPBDXZ 00470280 f i item_create.obj
 0001:0006f290       ??0Item_func_des_decrypt@@QAE@PAVItem@@0@Z 00470290 f i item_create.obj
 0001:0006f2f0       ??1Item_func_des_decrypt@@UAE@XZ 004702f0 f i item_create.obj
 0001:0006f370       ??0Item_func_encrypt@@QAE@PAVItem@@@Z 00470370 f i item_create.obj
 0001:0006f410       ?fix_length_and_dec@Item_func_encrypt@@UAEXXZ 00470410 f i item_create.obj
 0001:0006f420       ?func_name@Item_func_encrypt@@UBEPBDXZ 00470420 f i item_create.obj
 0001:0006f430       ??0Item_func_encrypt@@QAE@PAVItem@@0@Z 00470430 f i item_create.obj
 0001:0006f4b0       ??1Item_func_encrypt@@UAE@XZ 004704b0 f i item_create.obj
 0001:0006f530       ??0Item_func_encode@@QAE@PAVItem@@0@Z 00470530 f i item_create.obj
 0001:0006f560       ?func_name@Item_func_encode@@UBEPBDXZ 00470560 f i item_create.obj
 0001:0006f570       ??1Item_func_encode@@UAE@XZ 00470570 f i item_create.obj
 0001:0006f5b0       ??0Item_func_decode@@QAE@PAVItem@@0@Z 004705b0 f i item_create.obj
 0001:0006f5e0       ?func_name@Item_func_decode@@UBEPBDXZ 004705e0 f i item_create.obj
 0001:0006f5f0       ??1Item_func_decode@@UAE@XZ 004705f0 f i item_create.obj
 0001:0006f630       ??0Item_func_soundex@@QAE@PAVItem@@@Z 00470630 f i item_create.obj
 0001:0006f6b0       ?func_name@Item_func_soundex@@UBEPBDXZ 004706b0 f i item_create.obj
 0001:0006f6c0       ??1Item_func_soundex@@UAE@XZ 004706c0 f i item_create.obj
 0001:0006f740       ??0Item_func_elt@@QAE@AAV?$List@VItem@@@@@Z 00470740 f i item_create.obj
 0001:0006f770       ?func_name@Item_func_elt@@UBEPBDXZ 00470770 f i item_create.obj
 0001:0006f780       ??1Item_func_elt@@UAE@XZ   00470780 f i item_create.obj
 0001:0006f7c0       ??0Item_func_make_set@@QAE@PAVItem@@AAV?$List@VItem@@@@@Z 004707c0 f i item_create.obj
 0001:0006f820       ?fix_fields@Item_func_make_set@@UAE_NPAVTHD@@PAPAVItem@@@Z 00470820 f i item_create.obj
 0001:0006f8a0       ?func_name@Item_func_make_set@@UBEPBDXZ 004708a0 f i item_create.obj
 0001:0006f8b0       ?walk@Item_func_make_set@@UAE_NP8Item@@AE_NPAE@Z_N0@Z 004708b0 f i item_create.obj
 0001:0006f910       ??1Item_func_make_set@@UAE@XZ 00470910 f i item_create.obj
 0001:0006f990       ??0Item_func_repeat@@QAE@PAVItem@@0@Z 00470990 f i item_create.obj
 0001:0006f9f0       ?func_name@Item_func_repeat@@UBEPBDXZ 004709f0 f i item_create.obj
 0001:0006fa00       ??1Item_func_repeat@@UAE@XZ 00470a00 f i item_create.obj
 0001:0006fa80       ??0Item_func_rpad@@QAE@PAVItem@@00@Z 00470a80 f i item_create.obj
 0001:0006fb10       ?func_name@Item_func_rpad@@UBEPBDXZ 00470b10 f i item_create.obj
 0001:0006fb20       ??1Item_func_rpad@@UAE@XZ  00470b20 f i item_create.obj
 0001:0006fbd0       ??0Item_func_lpad@@QAE@PAVItem@@00@Z 00470bd0 f i item_create.obj
 0001:0006fc60       ?func_name@Item_func_lpad@@UBEPBDXZ 00470c60 f i item_create.obj
 0001:0006fc70       ??1Item_func_lpad@@UAE@XZ  00470c70 f i item_create.obj
 0001:0006fd20       ??0Item_func_conv@@QAE@PAVItem@@00@Z 00470d20 f i item_create.obj
 0001:0006fd60       ?func_name@Item_func_conv@@UBEPBDXZ 00470d60 f i item_create.obj
 0001:0006fd70       ?fix_length_and_dec@Item_func_conv@@UAEXXZ 00470d70 f i item_create.obj
 0001:0006fdb0       ??1Item_func_conv@@UAE@XZ  00470db0 f i item_create.obj
 0001:0006fdf0       ??0Item_func_hex@@QAE@PAVItem@@@Z 00470df0 f i item_create.obj
 0001:0006fe70       ?func_name@Item_func_hex@@UBEPBDXZ 00470e70 f i item_create.obj
 0001:0006fe80       ?fix_length_and_dec@Item_func_hex@@UAEXXZ 00470e80 f i item_create.obj
 0001:0006fed0       ??1Item_func_hex@@UAE@XZ   00470ed0 f i item_create.obj
 0001:0006ff50       ??0Item_func_unhex@@QAE@PAVItem@@@Z 00470f50 f i item_create.obj
 0001:0006ffe0       ?func_name@Item_func_unhex@@UBEPBDXZ 00470fe0 f i item_create.obj
 0001:0006fff0       ?fix_length_and_dec@Item_func_unhex@@UAEXXZ 00470ff0 f i item_create.obj
 0001:00070030       ??1Item_func_unhex@@UAE@XZ 00471030 f i item_create.obj
 0001:000700b0       ??0Item_func_binary@@QAE@PAVItem@@@Z 004710b0 f i item_create.obj
 0001:00070110       ?val_str@Item_func_binary@@UAEPAVString@@PAV2@@Z 00471110 f i item_create.obj
 0001:00070150       ?fix_length_and_dec@Item_func_binary@@UAEXXZ 00471150 f i item_create.obj
 0001:00070180       ?func_name@Item_func_binary@@UBEPBDXZ 00471180 f i item_create.obj
 0001:00070190       ??1Item_func_binary@@UAE@XZ 00471190 f i item_create.obj
 0001:000701d0       ??0Item_load_file@@QAE@PAVItem@@@Z 004711d0 f i item_create.obj
 0001:00070250       ?func_name@Item_load_file@@UBEPBDXZ 00471250 f i item_create.obj
 0001:00070260       ?fix_length_and_dec@Item_load_file@@UAEXXZ 00471260 f i item_create.obj
 0001:000702a0       ??1Item_load_file@@UAE@XZ  004712a0 f i item_create.obj
 0001:00070320       ??0Item_func_export_set@@QAE@PAVItem@@00@Z 00471320 f i item_create.obj
 0001:00070360       ?func_name@Item_func_export_set@@UBEPBDXZ 00471360 f i item_create.obj
 0001:00070370       ??0Item_func_export_set@@QAE@PAVItem@@000@Z 00471370 f i item_create.obj
 0001:000703b0       ??0Item_func_export_set@@QAE@PAVItem@@0000@Z 004713b0 f i item_create.obj
 0001:000703f0       ??1Item_func_export_set@@UAE@XZ 004713f0 f i item_create.obj
 0001:00070430       ??0Item_func_inet_ntoa@@QAE@PAVItem@@@Z 00471430 f i item_create.obj
 0001:00070490       ?func_name@Item_func_inet_ntoa@@UBEPBDXZ 00471490 f i item_create.obj
 0001:000704a0       ?fix_length_and_dec@Item_func_inet_ntoa@@UAEXXZ 004714a0 f i item_create.obj
 0001:000704c0       ??1Item_func_inet_ntoa@@UAE@XZ 004714c0 f i item_create.obj
 0001:00070500       ??0Item_func_quote@@QAE@PAVItem@@@Z 00471500 f i item_create.obj
 0001:00070580       ?func_name@Item_func_quote@@UBEPBDXZ 00471580 f i item_create.obj
 0001:00070590       ?fix_length_and_dec@Item_func_quote@@UAEXXZ 00471590 f i item_create.obj
 0001:000705d0       ??1Item_func_quote@@UAE@XZ 004715d0 f i item_create.obj
 0001:00070650       ??0Item_func_crc32@@QAE@PAVItem@@@Z 00471650 f i item_create.obj
 0001:000706e0       ?func_name@Item_func_crc32@@UBEPBDXZ 004716e0 f i item_create.obj
 0001:000706f0       ?fix_length_and_dec@Item_func_crc32@@UAEXXZ 004716f0 f i item_create.obj
 0001:00070700       ??1Item_func_crc32@@UAE@XZ 00471700 f i item_create.obj
 0001:00070780       ??0Item_func_uncompressed_length@@QAE@PAVItem@@@Z 00471780 f i item_create.obj
 0001:00070800       ?func_name@Item_func_uncompressed_length@@UBEPBDXZ 00471800 f i item_create.obj
 0001:00070810       ?fix_length_and_dec@Item_func_uncompressed_length@@UAEXXZ 00471810 f i item_create.obj
 0001:00070820       ??1Item_func_uncompressed_length@@UAE@XZ 00471820 f i item_create.obj
 0001:000708a0       ??0Item_func_compress@@QAE@PAVItem@@@Z 004718a0 f i item_create.obj
 0001:00070920       ?fix_length_and_dec@Item_func_compress@@UAEXXZ 00471920 f i item_create.obj
 0001:00070950       ?func_name@Item_func_compress@@UBEPBDXZ 00471950 f i item_create.obj
 0001:00070960       ??1Item_func_compress@@UAE@XZ 00471960 f i item_create.obj
 0001:000709e0       ??0Item_func_uncompress@@QAE@PAVItem@@@Z 004719e0 f i item_create.obj
 0001:00070a60       ?fix_length_and_dec@Item_func_uncompress@@UAEXXZ 00471a60 f i item_create.obj
 0001:00070a70       ?func_name@Item_func_uncompress@@UBEPBDXZ 00471a70 f i item_create.obj
 0001:00070a80       ??1Item_func_uncompress@@UAE@XZ 00471a80 f i item_create.obj
 0001:00070b00       ??0Item_func_uuid@@QAE@XZ  00471b00 f i item_create.obj
 0001:00070b40       ?fix_length_and_dec@Item_func_uuid@@UAEXXZ 00471b40 f i item_create.obj
 0001:00070b80       ?func_name@Item_func_uuid@@UBEPBDXZ 00471b80 f i item_create.obj
 0001:00070b90       ??1Item_func_uuid@@UAE@XZ  00471b90 f i item_create.obj
 0001:00070bd0       ??0Item_geometry_func@@QAE@PAVItem@@@Z 00471bd0 f i item_create.obj
 0001:00070c30       ?field_type@Item_geometry_func@@UBE?AW4enum_field_types@@XZ 00471c30 f i item_create.obj
 0001:00070c40       ?is_null@Item_geometry_func@@UAE_NXZ 00471c40 f i item_create.obj
 0001:00070c60       ??0Item_geometry_func@@QAE@PAVItem@@0@Z 00471c60 f i item_create.obj
 0001:00070c90       ??1Item_geometry_func@@UAE@XZ 00471c90 f i item_create.obj
 0001:00070cd0       ??0Item_func_geometry_from_text@@QAE@PAVItem@@@Z 00471cd0 f i item_create.obj
 0001:00070d30       ?func_name@Item_func_geometry_from_text@@UBEPBDXZ 00471d30 f i item_create.obj
 0001:00070d40       ??0Item_func_geometry_from_text@@QAE@PAVItem@@0@Z 00471d40 f i item_create.obj
 0001:00070d70       ??1Item_func_geometry_from_text@@UAE@XZ 00471d70 f i item_create.obj
 0001:00070db0       ??0Item_func_geometry_from_wkb@@QAE@PAVItem@@@Z 00471db0 f i item_create.obj
 0001:00070e10       ?func_name@Item_func_geometry_from_wkb@@UBEPBDXZ 00471e10 f i item_create.obj
 0001:00070e20       ??0Item_func_geometry_from_wkb@@QAE@PAVItem@@0@Z 00471e20 f i item_create.obj
 0001:00070e50       ??1Item_func_geometry_from_wkb@@UAE@XZ 00471e50 f i item_create.obj
 0001:00070e90       ??0Item_func_as_wkt@@QAE@PAVItem@@@Z 00471e90 f i item_create.obj
 0001:00070ef0       ?func_name@Item_func_as_wkt@@UBEPBDXZ 00471ef0 f i item_create.obj
 0001:00070f00       ??1Item_func_as_wkt@@UAE@XZ 00471f00 f i item_create.obj
 0001:00070f40       ??0Item_func_as_wkb@@QAE@PAVItem@@@Z 00471f40 f i item_create.obj
 0001:00070fa0       ?func_name@Item_func_as_wkb@@UBEPBDXZ 00471fa0 f i item_create.obj
 0001:00070fb0       ?field_type@Item_func_as_wkb@@UBE?AW4enum_field_types@@XZ 00471fb0 f i item_create.obj
 0001:00070fc0       ??1Item_func_as_wkb@@UAE@XZ 00471fc0 f i item_create.obj
 0001:00071000       ??0Item_func_geometry_type@@QAE@PAVItem@@@Z 00472000 f i item_create.obj
 0001:00071060       ?func_name@Item_func_geometry_type@@UBEPBDXZ 00472060 f i item_create.obj
 0001:00071070       ?fix_length_and_dec@Item_func_geometry_type@@UAEXXZ 00472070 f i item_create.obj
 0001:00071080       ??1Item_func_geometry_type@@UAE@XZ 00472080 f i item_create.obj
 0001:000710c0       ??0Item_func_centroid@@QAE@PAVItem@@@Z 004720c0 f i item_create.obj
 0001:00071120       ?func_name@Item_func_centroid@@UBEPBDXZ 00472120 f i item_create.obj
 0001:00071130       ??1Item_func_centroid@@UAE@XZ 00472130 f i item_create.obj
 0001:00071170       ??0Item_func_envelope@@QAE@PAVItem@@@Z 00472170 f i item_create.obj
 0001:000711d0       ?func_name@Item_func_envelope@@UBEPBDXZ 004721d0 f i item_create.obj
 0001:000711e0       ??1Item_func_envelope@@UAE@XZ 004721e0 f i item_create.obj
 0001:00071220       ??0Item_func_spatial_decomp@@QAE@PAVItem@@W4Functype@Item_func@@@Z 00472220 f i item_create.obj
 0001:00071280       ?func_name@Item_func_spatial_decomp@@UBEPBDXZ 00472280 f i item_create.obj
 0001:000712c0       ??1Item_func_spatial_decomp@@UAE@XZ 004722c0 f i item_create.obj
 0001:00071300       ??0Item_func_spatial_decomp_n@@QAE@PAVItem@@0W4Functype@Item_func@@@Z 00472300 f i item_create.obj
 0001:00071340       ?func_name@Item_func_spatial_decomp_n@@UBEPBDXZ 00472340 f i item_create.obj
 0001:00071380       ??1Item_func_spatial_decomp_n@@UAE@XZ 00472380 f i item_create.obj
 0001:000713c0       ??0Item_func_spatial_rel@@QAE@PAVItem@@0W4Functype@Item_func@@@Z 004723c0 f i item_create.obj
 0001:00071400       ?functype@Item_func_spatial_rel@@UBE?AW4Functype@Item_func@@XZ 00472400 f i item_create.obj
 0001:00071430       ?rev_functype@Item_func_spatial_rel@@UBE?AW4Functype@Item_func@@XZ 00472430 f i item_create.obj
 0001:00071440       ?func_name@Item_func_spatial_rel@@UBEPBDXZ 00472440 f i item_create.obj
 0001:000714d0       ?print@Item_func_spatial_rel@@UAEXPAVString@@W4enum_query_type@@@Z 004724d0 f i item_create.obj
 0001:000714e0       ?fix_length_and_dec@Item_func_spatial_rel@@UAEXXZ 004724e0 f i item_create.obj
 0001:000714f0       ?is_null@Item_func_spatial_rel@@UAE_NXZ 004724f0 f i item_create.obj
 0001:00071510       ??1Item_func_spatial_rel@@UAE@XZ 00472510 f i item_create.obj
 0001:00071520       ??0Item_func_isempty@@QAE@PAVItem@@@Z 00472520 f i item_create.obj
 0001:00071580       ?select_optimize@Item_func_isempty@@UBE?AW4optimize_type@Item_func@@XZ 00472580 f i item_create.obj
 0001:00071590       ?func_name@Item_func_isempty@@UBEPBDXZ 00472590 f i item_create.obj
 0001:000715a0       ?fix_length_and_dec@Item_func_isempty@@UAEXXZ 004725a0 f i item_create.obj
 0001:000715b0       ??1Item_func_isempty@@UAE@XZ 004725b0 f i item_create.obj
 0001:000715f0       ??0Item_func_issimple@@QAE@PAVItem@@@Z 004725f0 f i item_create.obj
 0001:00071650       ?select_optimize@Item_func_issimple@@UBE?AW4optimize_type@Item_func@@XZ 00472650 f i item_create.obj
 0001:00071660       ?func_name@Item_func_issimple@@UBEPBDXZ 00472660 f i item_create.obj
 0001:00071670       ?fix_length_and_dec@Item_func_issimple@@UAEXXZ 00472670 f i item_create.obj
 0001:00071680       ??1Item_func_issimple@@UAE@XZ 00472680 f i item_create.obj
 0001:000716c0       ??0Item_func_isclosed@@QAE@PAVItem@@@Z 004726c0 f i item_create.obj
 0001:00071720       ?select_optimize@Item_func_isclosed@@UBE?AW4optimize_type@Item_func@@XZ 00472720 f i item_create.obj
 0001:00071730       ?func_name@Item_func_isclosed@@UBEPBDXZ 00472730 f i item_create.obj
 0001:00071740       ?fix_length_and_dec@Item_func_isclosed@@UAEXXZ 00472740 f i item_create.obj
 0001:00071750       ??1Item_func_isclosed@@UAE@XZ 00472750 f i item_create.obj
 0001:00071790       ??0Item_func_dimension@@QAE@PAVItem@@@Z 00472790 f i item_create.obj
 0001:00071810       ?func_name@Item_func_dimension@@UBEPBDXZ 00472810 f i item_create.obj
 0001:00071820       ?fix_length_and_dec@Item_func_dimension@@UAEXXZ 00472820 f i item_create.obj
 0001:00071830       ??1Item_func_dimension@@UAE@XZ 00472830 f i item_create.obj
 0001:000718b0       ??0Item_func_x@@QAE@PAVItem@@@Z 004728b0 f i item_create.obj
 0001:00071930       ?func_name@Item_func_x@@UBEPBDXZ 00472930 f i item_create.obj
 0001:00071940       ?fix_length_and_dec@Item_func_x@@UAEXXZ 00472940 f i item_create.obj
 0001:00071960       ??1Item_func_x@@UAE@XZ     00472960 f i item_create.obj
 0001:000719e0       ??0Item_func_y@@QAE@PAVItem@@@Z 004729e0 f i item_create.obj
 0001:00071a60       ?func_name@Item_func_y@@UBEPBDXZ 00472a60 f i item_create.obj
 0001:00071a70       ?fix_length_and_dec@Item_func_y@@UAEXXZ 00472a70 f i item_create.obj
 0001:00071a90       ??1Item_func_y@@UAE@XZ     00472a90 f i item_create.obj
 0001:00071b10       ??0Item_func_numgeometries@@QAE@PAVItem@@@Z 00472b10 f i item_create.obj
 0001:00071b90       ?func_name@Item_func_numgeometries@@UBEPBDXZ 00472b90 f i item_create.obj
 0001:00071ba0       ?fix_length_and_dec@Item_func_numgeometries@@UAEXXZ 00472ba0 f i item_create.obj
 0001:00071bb0       ??1Item_func_numgeometries@@UAE@XZ 00472bb0 f i item_create.obj
 0001:00071c30       ??0Item_func_numinteriorring@@QAE@PAVItem@@@Z 00472c30 f i item_create.obj
 0001:00071cb0       ?func_name@Item_func_numinteriorring@@UBEPBDXZ 00472cb0 f i item_create.obj
 0001:00071cc0       ?fix_length_and_dec@Item_func_numinteriorring@@UAEXXZ 00472cc0 f i item_create.obj
 0001:00071cd0       ??1Item_func_numinteriorring@@UAE@XZ 00472cd0 f i item_create.obj
 0001:00071d50       ??0Item_func_numpoints@@QAE@PAVItem@@@Z 00472d50 f i item_create.obj
 0001:00071dd0       ?func_name@Item_func_numpoints@@UBEPBDXZ 00472dd0 f i item_create.obj
 0001:00071de0       ?fix_length_and_dec@Item_func_numpoints@@UAEXXZ 00472de0 f i item_create.obj
 0001:00071df0       ??1Item_func_numpoints@@UAE@XZ 00472df0 f i item_create.obj
 0001:00071e70       ??0Item_func_area@@QAE@PAVItem@@@Z 00472e70 f i item_create.obj
 0001:00071ef0       ?func_name@Item_func_area@@UBEPBDXZ 00472ef0 f i item_create.obj
 0001:00071f00       ?fix_length_and_dec@Item_func_area@@UAEXXZ 00472f00 f i item_create.obj
 0001:00071f20       ??1Item_func_area@@UAE@XZ  00472f20 f i item_create.obj
 0001:00071fa0       ??0Item_func_glength@@QAE@PAVItem@@@Z 00472fa0 f i item_create.obj
 0001:00072020       ?func_name@Item_func_glength@@UBEPBDXZ 00473020 f i item_create.obj
 0001:00072030       ?fix_length_and_dec@Item_func_glength@@UAEXXZ 00473030 f i item_create.obj
 0001:00072050       ??1Item_func_glength@@UAE@XZ 00473050 f i item_create.obj
 0001:000720d0       ??0Item_func_srid@@QAE@PAVItem@@@Z 004730d0 f i item_create.obj
 0001:00072150       ?func_name@Item_func_srid@@UBEPBDXZ 00473150 f i item_create.obj
 0001:00072160       ?fix_length_and_dec@Item_func_srid@@UAEXXZ 00473160 f i item_create.obj
 0001:00072170       ??1Item_func_srid@@UAE@XZ  00473170 f i item_create.obj
 0001:000721f0       ??0Item_func_period_add@@QAE@PAVItem@@0@Z 004731f0 f i item_create.obj
 0001:00072220       ?func_name@Item_func_period_add@@UBEPBDXZ 00473220 f i item_create.obj
 0001:00072230       ?fix_length_and_dec@Item_func_period_add@@UAEXXZ 00473230 f i item_create.obj
 0001:00072240       ??1Item_func_period_add@@UAE@XZ 00473240 f i item_create.obj
 0001:00072280       ??0Item_func_period_diff@@QAE@PAVItem@@0@Z 00473280 f i item_create.obj
 0001:000722b0       ?func_name@Item_func_period_diff@@UBEPBDXZ 004732b0 f i item_create.obj
 0001:000722c0       ?fix_length_and_dec@Item_func_period_diff@@UAEXXZ 004732c0 f i item_create.obj
 0001:000722d0       ??1Item_func_period_diff@@UAE@XZ 004732d0 f i item_create.obj
 0001:00072310       ??0Item_func_to_days@@QAE@PAVItem@@@Z 00473310 f i item_create.obj
 0001:00072370       ?func_name@Item_func_to_days@@UBEPBDXZ 00473370 f i item_create.obj
 0001:00072380       ?fix_length_and_dec@Item_func_to_days@@UAEXXZ 00473380 f i item_create.obj
 0001:000723a0       ?check_partition_func_processor@Item_func_to_days@@UAE_NPAE@Z 004733a0 f i item_create.obj
 0001:000723b0       ??1Item_func_to_days@@UAE@XZ 004733b0 f i item_create.obj
 0001:000723f0       ??0Item_func_dayofmonth@@QAE@PAVItem@@@Z 004733f0 f i item_create.obj
 0001:00072450       ?func_name@Item_func_dayofmonth@@UBEPBDXZ 00473450 f i item_create.obj
 0001:00072460       ?fix_length_and_dec@Item_func_dayofmonth@@UAEXXZ 00473460 f i item_create.obj
 0001:00072480       ?check_partition_func_processor@Item_func_dayofmonth@@UAE_NPAE@Z 00473480 f i item_create.obj
 0001:00072490       ??1Item_func_dayofmonth@@UAE@XZ 00473490 f i item_create.obj
 0001:000724d0       ??0Item_func_month@@QAE@PAVItem@@@Z 004734d0 f i item_create.obj
 0001:00072520       ?val_real@Item_func_month@@UAENXZ 00473520 f i item_create.obj
 0001:00072540       ?val_str@Item_func_month@@UAEPAVString@@PAV2@@Z 00473540 f i item_create.obj
 0001:00072580       ?func_name@Item_func_month@@UBEPBDXZ 00473580 f i item_create.obj
 0001:00072590       ?result_type@Item_func_month@@UBE?AW4Item_result@@XZ 00473590 f i item_create.obj
 0001:000725a0       ?fix_length_and_dec@Item_func_month@@UAEXXZ 004735a0 f i item_create.obj
 0001:000725e0       ?check_partition_func_processor@Item_func_month@@UAE_NPAE@Z 004735e0 f i item_create.obj
 0001:000725f0       ??1Item_func_month@@UAE@XZ 004735f0 f i item_create.obj
 0001:00072630       ??0Item_func_monthname@@QAE@PAVItem@@@Z 00473630 f i item_create.obj
 0001:00072680       ?func_name@Item_func_monthname@@UBEPBDXZ 00473680 f i item_create.obj
 0001:00072690       ?result_type@Item_func_monthname@@UBE?AW4Item_result@@XZ 00473690 f i item_create.obj
 0001:000726a0       ?check_partition_func_processor@Item_func_monthname@@UAE_NPAE@Z 004736a0 f i item_create.obj
 0001:000726b0       ??1Item_func_monthname@@UAE@XZ 004736b0 f i item_create.obj
 0001:000726f0       ??0Item_func_dayofyear@@QAE@PAVItem@@@Z 004736f0 f i item_create.obj
 0001:00072750       ?func_name@Item_func_dayofyear@@UBEPBDXZ 00473750 f i item_create.obj
 0001:00072760       ?fix_length_and_dec@Item_func_dayofyear@@UAEXXZ 00473760 f i item_create.obj
 0001:00072780       ?check_partition_func_processor@Item_func_dayofyear@@UAE_NPAE@Z 00473780 f i item_create.obj
 0001:00072790       ??1Item_func_dayofyear@@UAE@XZ 00473790 f i item_create.obj
 0001:000727d0       ??0Item_func_week@@QAE@PAVItem@@0@Z 004737d0 f i item_create.obj
 0001:00072800       ?func_name@Item_func_week@@UBEPBDXZ 00473800 f i item_create.obj
 0001:00072810       ?fix_length_and_dec@Item_func_week@@UAEXXZ 00473810 f i item_create.obj
 0001:00072830       ??1Item_func_week@@UAE@XZ  00473830 f i item_create.obj
 0001:00072870       ??0Item_func_yearweek@@QAE@PAVItem@@0@Z 00473870 f i item_create.obj
 0001:000728a0       ?func_name@Item_func_yearweek@@UBEPBDXZ 004738a0 f i item_create.obj
 0001:000728b0       ?fix_length_and_dec@Item_func_yearweek@@UAEXXZ 004738b0 f i item_create.obj
 0001:000728d0       ?check_partition_func_processor@Item_func_yearweek@@UAE_NPAE@Z 004738d0 f i item_create.obj
 0001:000728e0       ??1Item_func_yearweek@@UAE@XZ 004738e0 f i item_create.obj
 0001:00072920       ??0Item_func_weekday@@QAE@PAVItem@@_N@Z 00473920 f i item_create.obj
 0001:00072980       ?val_real@Item_func_weekday@@UAENXZ 00473980 f i item_create.obj
 0001:000729a0       ?val_str@Item_func_weekday@@UAEPAVString@@PAV2@@Z 004739a0 f i item_create.obj
 0001:000729e0       ?func_name@Item_func_weekday@@UBEPBDXZ 004739e0 f i item_create.obj
 0001:00072a00       ?result_type@Item_func_weekday@@UBE?AW4Item_result@@XZ 00473a00 f i item_create.obj
 0001:00072a10       ?fix_length_and_dec@Item_func_weekday@@UAEXXZ 00473a10 f i item_create.obj
 0001:00072a50       ?check_partition_func_processor@Item_func_weekday@@UAE_NPAE@Z 00473a50 f i item_create.obj
 0001:00072a60       ??1Item_func_weekday@@UAE@XZ 00473a60 f i item_create.obj
 0001:00072aa0       ??0Item_func_dayname@@QAE@PAVItem@@@Z 00473aa0 f i item_create.obj
 0001:00072b00       ?func_name@Item_func_dayname@@UBEPBDXZ 00473b00 f i item_create.obj
 0001:00072b10       ?result_type@Item_func_dayname@@UBE?AW4Item_result@@XZ 00473b10 f i item_create.obj
 0001:00072b20       ?check_partition_func_processor@Item_func_dayname@@UAE_NPAE@Z 00473b20 f i item_create.obj
 0001:00072b30       ??1Item_func_dayname@@UAE@XZ 00473b30 f i item_create.obj
 0001:00072b70       ??0Item_func_unix_timestamp@@QAE@XZ 00473b70 f i item_create.obj
 0001:00072bd0       ?func_name@Item_func_unix_timestamp@@UBEPBDXZ 00473bd0 f i item_create.obj
 0001:00072be0       ?fix_length_and_dec@Item_func_unix_timestamp@@UAEXXZ 00473be0 f i item_create.obj
 0001:00072bf0       ??0Item_func_unix_timestamp@@QAE@PAVItem@@@Z 00473bf0 f i item_create.obj
 0001:00072c70       ??1Item_func_unix_timestamp@@UAE@XZ 00473c70 f i item_create.obj
 0001:00072cf0       ??0Item_func_time_to_sec@@QAE@PAVItem@@@Z 00473cf0 f i item_create.obj
 0001:00072d50       ?func_name@Item_func_time_to_sec@@UBEPBDXZ 00473d50 f i item_create.obj
 0001:00072d60       ?fix_length_and_dec@Item_func_time_to_sec@@UAEXXZ 00473d60 f i item_create.obj
 0001:00072d70       ?check_partition_func_processor@Item_func_time_to_sec@@UAE_NPAE@Z 00473d70 f i item_create.obj
 0001:00072d80       ??1Item_func_time_to_sec@@UAE@XZ 00473d80 f i item_create.obj
 0001:00072dc0       ??0Item_date@@QAE@PAVItem@@@Z 00473dc0 f i item_create.obj
 0001:00072e10       ?result_type@Item_date@@UBE?AW4Item_result@@XZ 00473e10 f i item_create.obj
 0001:00072e20       ?field_type@Item_date@@UBE?AW4enum_field_types@@XZ 00473e20 f i item_create.obj
 0001:00072e30       ?val_real@Item_date@@UAENXZ 00473e30 f i item_create.obj
 0001:00072e40       ?func_name@Item_date@@UBEPBDXZ 00473e40 f i item_create.obj
 0001:00072e50       ?fix_length_and_dec@Item_date@@UAEXXZ 00473e50 f i item_create.obj
 0001:00072e80       ?tmp_table_field@Item_date@@UAEPAVField@@PAUst_table@@@Z 00473e80 f i item_create.obj
 0001:00072ea0       ?result_as_longlong@Item_date@@UAE_NXZ 00473ea0 f i item_create.obj
 0001:00072eb0       ?val_decimal@Item_date@@UAEPAVmy_decimal@@PAV2@@Z 00473eb0 f i item_create.obj
 0001:00072ec0       ?save_in_field@Item_date@@UAEHPAVField@@_N@Z 00473ec0 f i item_create.obj
 0001:00072ed0       ??1Item_date@@UAE@XZ       00473ed0 f i item_create.obj
 0001:00072f10       ??0Item_date_func@@QAE@PAVItem@@@Z 00473f10 f i item_create.obj
 0001:00072f70       ?field_type@Item_date_func@@UBE?AW4enum_field_types@@XZ 00473f70 f i item_create.obj
 0001:00072f80       ?tmp_table_field@Item_date_func@@UAEPAVField@@PAUst_table@@@Z 00473f80 f i item_create.obj
 0001:00072fa0       ?result_as_longlong@Item_date_func@@UAE_NXZ 00473fa0 f i item_create.obj
 0001:00072fb0       ?val_real@Item_date_func@@UAENXZ 00473fb0 f i item_create.obj
 0001:00072fd0       ?val_decimal@Item_date_func@@UAEPAVmy_decimal@@PAV2@@Z 00473fd0 f i item_create.obj
 0001:00072fe0       ?save_in_field@Item_date_func@@UAEHPAVField@@_N@Z 00473fe0 f i item_create.obj
 0001:00072ff0       ??0Item_date_func@@QAE@PAVItem@@0@Z 00473ff0 f i item_create.obj
 0001:00073020       ??0Item_date_func@@QAE@PAVItem@@00@Z 00474020 f i item_create.obj
 0001:00073060       ??1Item_date_func@@UAE@XZ  00474060 f i item_create.obj
 0001:000730a0       ??0Item_str_timefunc@@QAE@PAVItem@@@Z 004740a0 f i item_create.obj
 0001:00073100       ?field_type@Item_str_timefunc@@UBE?AW4enum_field_types@@XZ 00474100 f i item_create.obj
 0001:00073110       ?fix_length_and_dec@Item_str_timefunc@@UAEXXZ 00474110 f i item_create.obj
 0001:00073120       ?tmp_table_field@Item_str_timefunc@@UAEPAVField@@PAUst_table@@@Z 00474120 f i item_create.obj
 0001:00073140       ?val_real@Item_str_timefunc@@UAENXZ 00474140 f i item_create.obj
 0001:00073150       ?val_decimal@Item_str_timefunc@@UAEPAVmy_decimal@@PAV2@@Z 00474150 f i item_create.obj
 0001:00073160       ?save_in_field@Item_str_timefunc@@UAEHPAVField@@_N@Z 00474160 f i item_create.obj
 0001:00073170       ?val_int@Item_str_timefunc@@UAE_JXZ 00474170 f i item_create.obj
 0001:00073180       ?result_as_longlong@Item_str_timefunc@@UAE_NXZ 00474180 f i item_create.obj
 0001:00073190       ??0Item_str_timefunc@@QAE@PAVItem@@0@Z 00474190 f i item_create.obj
 0001:000731c0       ??0Item_str_timefunc@@QAE@PAVItem@@00@Z 004741c0 f i item_create.obj
 0001:00073200       ??1Item_str_timefunc@@UAE@XZ 00474200 f i item_create.obj
 0001:00073240       ??0Item_func_from_days@@QAE@PAVItem@@@Z 00474240 f i item_create.obj
 0001:00073290       ?func_name@Item_func_from_days@@UBEPBDXZ 00474290 f i item_create.obj
 0001:000732a0       ?check_partition_func_processor@Item_func_from_days@@UAE_NPAE@Z 004742a0 f i item_create.obj
 0001:000732b0       ??1Item_func_from_days@@UAE@XZ 004742b0 f i item_create.obj
 0001:000732f0       ??0Item_func_date_format@@QAE@PAVItem@@0_N@Z 004742f0 f i item_create.obj
 0001:00073360       ?func_name@Item_func_date_format@@UBEPBDXZ 00474360 f i item_create.obj
 0001:00073380       ??1Item_func_date_format@@UAE@XZ 00474380 f i item_create.obj
 0001:00073400       ??0Item_func_from_unixtime@@QAE@PAVItem@@@Z 00474400 f i item_create.obj
 0001:00073460       ?func_name@Item_func_from_unixtime@@UBEPBDXZ 00474460 f i item_create.obj
 0001:00073470       ??1Item_func_from_unixtime@@UAE@XZ 00474470 f i item_create.obj
 0001:000734b0       ??0Item_func_convert_tz@@QAE@PAVItem@@00@Z 004744b0 f i item_create.obj
 0001:00073500       ?func_name@Item_func_convert_tz@@UBEPBDXZ 00474500 f i item_create.obj
 0001:00073510       ??1Item_func_convert_tz@@UAE@XZ 00474510 f i item_create.obj
 0001:00073550       ??0Item_func_sec_to_time@@QAE@PAVItem@@@Z 00474550 f i item_create.obj
 0001:000735b0       ?val_real@Item_func_sec_to_time@@UAENXZ 004745b0 f i item_create.obj
 0001:000735d0       ?fix_length_and_dec@Item_func_sec_to_time@@UAEXXZ 004745d0 f i item_create.obj
 0001:00073610       ?func_name@Item_func_sec_to_time@@UBEPBDXZ 00474610 f i item_create.obj
 0001:00073620       ?result_as_longlong@Item_func_sec_to_time@@UAE_NXZ 00474620 f i item_create.obj
 0001:00073630       ??1Item_func_sec_to_time@@UAE@XZ 00474630 f i item_create.obj
 0001:00073670       ??0Item_typecast@@QAE@PAVItem@@@Z 00474670 f i item_create.obj
 0001:000736d0       ?val_str@Item_typecast@@UAEPAVString@@PAV2@@Z 004746d0 f i item_create.obj
 0001:00073710       ?fix_length_and_dec@Item_typecast@@UAEXXZ 00474710 f i item_create.obj
 0001:00073740       ??1Item_typecast@@UAE@XZ   00474740 f i item_create.obj
 0001:00073780       ??0Item_typecast_maybe_null@@QAE@PAVItem@@@Z 00474780 f i item_create.obj
 0001:000737e0       ?fix_length_and_dec@Item_typecast_maybe_null@@UAEXXZ 004747e0 f i item_create.obj
 0001:00073820       ??1Item_typecast_maybe_null@@UAE@XZ 00474820 f i item_create.obj
 0001:00073860       ??0Item_char_typecast@@QAE@PAVItem@@HPAUcharset_info_st@@@Z 00474860 f i item_create.obj
 0001:00073900       ?functype@Item_char_typecast@@UBE?AW4Functype@Item_func@@XZ 00474900 f i item_create.obj
 0001:00073910       ?func_name@Item_char_typecast@@UBEPBDXZ 00474910 f i item_create.obj
 0001:00073920       ?cast_type@Item_char_typecast@@UBEPBDXZ 00474920 f i item_create.obj
 0001:00073930       ??1Item_char_typecast@@UAE@XZ 00474930 f i item_create.obj
 0001:000739b0       ??0Item_date_typecast@@QAE@PAVItem@@@Z 004749b0 f i item_create.obj
 0001:00073a10       ?func_name@Item_date_typecast@@UBEPBDXZ 00474a10 f i item_create.obj
 0001:00073a20       ?cast_type@Item_date_typecast@@UBEPBDXZ 00474a20 f i item_create.obj
 0001:00073a30       ?field_type@Item_date_typecast@@UBE?AW4enum_field_types@@XZ 00474a30 f i item_create.obj
 0001:00073a40       ?tmp_table_field@Item_date_typecast@@UAEPAVField@@PAUst_table@@@Z 00474a40 f i item_create.obj
 0001:00073a60       ?fix_length_and_dec@Item_date_typecast@@UAEXXZ 00474a60 f i item_create.obj
 0001:00073a90       ?result_as_longlong@Item_date_typecast@@UAE_NXZ 00474a90 f i item_create.obj
 0001:00073aa0       ?val_real@Item_date_typecast@@UAENXZ 00474aa0 f i item_create.obj
 0001:00073ac0       ?val_decimal@Item_date_typecast@@UAEPAVmy_decimal@@PAV2@@Z 00474ac0 f i item_create.obj
 0001:00073ad0       ?save_in_field@Item_date_typecast@@UAEHPAVField@@_N@Z 00474ad0 f i item_create.obj
 0001:00073ae0       ??1Item_date_typecast@@UAE@XZ 00474ae0 f i item_create.obj
 0001:00073b20       ??0Item_time_typecast@@QAE@PAVItem@@@Z 00474b20 f i item_create.obj
 0001:00073b80       ?func_name@Item_time_typecast@@UBEPBDXZ 00474b80 f i item_create.obj
 0001:00073b90       ?cast_type@Item_time_typecast@@UBEPBDXZ 00474b90 f i item_create.obj
 0001:00073ba0       ?field_type@Item_time_typecast@@UBE?AW4enum_field_types@@XZ 00474ba0 f i item_create.obj
 0001:00073bb0       ?tmp_table_field@Item_time_typecast@@UAEPAVField@@PAUst_table@@@Z 00474bb0 f i item_create.obj
 0001:00073bd0       ?result_as_longlong@Item_time_typecast@@UAE_NXZ 00474bd0 f i item_create.obj
 0001:00073be0       ?val_real@Item_time_typecast@@UAENXZ 00474be0 f i item_create.obj
 0001:00073bf0       ?val_decimal@Item_time_typecast@@UAEPAVmy_decimal@@PAV2@@Z 00474bf0 f i item_create.obj
 0001:00073c00       ?save_in_field@Item_time_typecast@@UAEHPAVField@@_N@Z 00474c00 f i item_create.obj
 0001:00073c10       ??1Item_time_typecast@@UAE@XZ 00474c10 f i item_create.obj
 0001:00073c50       ??0Item_datetime_typecast@@QAE@PAVItem@@@Z 00474c50 f i item_create.obj
 0001:00073cb0       ?func_name@Item_datetime_typecast@@UBEPBDXZ 00474cb0 f i item_create.obj
 0001:00073cc0       ?cast_type@Item_datetime_typecast@@UBEPBDXZ 00474cc0 f i item_create.obj
 0001:00073cd0       ?field_type@Item_datetime_typecast@@UBE?AW4enum_field_types@@XZ 00474cd0 f i item_create.obj
 0001:00073ce0       ?tmp_table_field@Item_datetime_typecast@@UAEPAVField@@PAUst_table@@@Z 00474ce0 f i item_create.obj
 0001:00073d00       ?fix_length_and_dec@Item_datetime_typecast@@UAEXXZ 00474d00 f i item_create.obj
 0001:00073d40       ?result_as_longlong@Item_datetime_typecast@@UAE_NXZ 00474d40 f i item_create.obj
 0001:00073d50       ?val_real@Item_datetime_typecast@@UAENXZ 00474d50 f i item_create.obj
 0001:00073d60       ?val_decimal@Item_datetime_typecast@@UAEPAVmy_decimal@@PAV2@@Z 00474d60 f i item_create.obj
 0001:00073d70       ?save_in_field@Item_datetime_typecast@@UAEHPAVField@@_N@Z 00474d70 f i item_create.obj
 0001:00073d80       ??1Item_datetime_typecast@@UAE@XZ 00474d80 f i item_create.obj
 0001:00073dc0       ??0Item_func_makedate@@QAE@PAVItem@@0@Z 00474dc0 f i item_create.obj
 0001:00073df0       ?func_name@Item_func_makedate@@UBEPBDXZ 00474df0 f i item_create.obj
 0001:00073e00       ?field_type@Item_func_makedate@@UBE?AW4enum_field_types@@XZ 00474e00 f i item_create.obj
 0001:00073e10       ?fix_length_and_dec@Item_func_makedate@@UAEXXZ 00474e10 f i item_create.obj
 0001:00073e20       ??1Item_func_makedate@@UAE@XZ 00474e20 f i item_create.obj
 0001:00073e60       ??0Item_func_add_time@@QAE@PAVItem@@0_N1@Z 00474e60 f i item_create.obj
 0001:00073ec0       ?field_type@Item_func_add_time@@UBE?AW4enum_field_types@@XZ 00474ec0 f i item_create.obj
 0001:00073ed0       ?tmp_table_field@Item_func_add_time@@UAEPAVField@@PAUst_table@@@Z 00474ed0 f i item_create.obj
 0001:00073ef0       ?func_name@Item_func_add_time@@UBEPBDXZ 00474ef0 f i item_create.obj
 0001:00073f00       ?val_real@Item_func_add_time@@UAENXZ 00474f00 f i item_create.obj
 0001:00073f10       ?val_decimal@Item_func_add_time@@UAEPAVmy_decimal@@PAV2@@Z 00474f10 f i item_create.obj
 0001:00073f40       ?save_in_field@Item_func_add_time@@UAEHPAVField@@_N@Z 00474f40 f i item_create.obj
 0001:00073f80       ??1Item_func_add_time@@UAE@XZ 00474f80 f i item_create.obj
 0001:00073fc0       ??0Item_func_timediff@@QAE@PAVItem@@0@Z 00474fc0 f i item_create.obj
 0001:00073ff0       ?func_name@Item_func_timediff@@UBEPBDXZ 00474ff0 f i item_create.obj
 0001:00074000       ?fix_length_and_dec@Item_func_timediff@@UAEXXZ 00475000 f i item_create.obj
 0001:00074020       ??1Item_func_timediff@@UAE@XZ 00475020 f i item_create.obj
 0001:00074060       ??0Item_func_maketime@@QAE@PAVItem@@00@Z 00475060 f i item_create.obj
 0001:000740a0       ?func_name@Item_func_maketime@@UBEPBDXZ 004750a0 f i item_create.obj
 0001:000740b0       ??1Item_func_maketime@@UAE@XZ 004750b0 f i item_create.obj
 0001:000740f0       ??0Item_func_str_to_date@@QAE@PAVItem@@0@Z 004750f0 f i item_create.obj
 0001:00074130       ?func_name@Item_func_str_to_date@@UBEPBDXZ 00475130 f i item_create.obj
 0001:00074140       ?field_type@Item_func_str_to_date@@UBE?AW4enum_field_types@@XZ 00475140 f i item_create.obj
 0001:00074150       ?tmp_table_field@Item_func_str_to_date@@UAEPAVField@@PAUst_table@@@Z 00475150 f i item_create.obj
 0001:00074170       ??1Item_func_str_to_date@@UAE@XZ 00475170 f i item_create.obj
 0001:000741b0       ??0Item_func_last_day@@QAE@PAVItem@@@Z 004751b0 f i item_create.obj
 0001:00074200       ?func_name@Item_func_last_day@@UBEPBDXZ 00475200 f i item_create.obj
 0001:00074210       ??1Item_func_last_day@@UAE@XZ 00475210 f i item_create.obj
 0001:00074250       ??0Item_xml_str_func@@QAE@PAVItem@@0@Z 00475250 f i item_create.obj
 0001:000742e0       ??0Item_xml_str_func@@QAE@PAVItem@@00@Z 004752e0 f i item_create.obj
 0001:00074370       ??1Item_xml_str_func@@UAE@XZ 00475370 f i item_create.obj
 0001:00074420       ??0Item_func_xml_extractvalue@@QAE@PAVItem@@0@Z 00475420 f i item_create.obj
 0001:00074450       ?func_name@Item_func_xml_extractvalue@@UBEPBDXZ 00475450 f i item_create.obj
 0001:00074460       ??1Item_func_xml_extractvalue@@UAE@XZ 00475460 f i item_create.obj
 0001:00074470       ??0Item_func_xml_update@@QAE@PAVItem@@00@Z 00475470 f i item_create.obj
 0001:00074500       ?func_name@Item_func_xml_update@@UBEPBDXZ 00475500 f i item_create.obj
 0001:00074510       ??1Item_func_xml_update@@UAE@XZ 00475510 f i item_create.obj
 0001:000745a0       ?current_context@st_lex@@QAEPAUName_resolution_context@@XZ 004755a0 f i item_create.obj
 0001:000745b0       ?create@Create_udf_func@@QAEPAVItem@@PAVTHD@@PAUst_udf_func@@PAV?$List@VItem@@@@@Z 004755b0 f   item_create.obj
 0001:00074a60       ?create@Create_func_arg1@@UAEPAVItem@@PAVTHD@@Ust_mysql_lex_string@@PAV?$List@VItem@@@@@Z 00475a60 f   item_create.obj
 0001:00074b00       ?create@Create_func_arg2@@UAEPAVItem@@PAVTHD@@Ust_mysql_lex_string@@PAV?$List@VItem@@@@@Z 00475b00 f   item_create.obj
 0001:00074bd0       ?create@Create_func_arg3@@UAEPAVItem@@PAVTHD@@Ust_mysql_lex_string@@PAV?$List@VItem@@@@@Z 00475bd0 f   item_create.obj
 0001:00074cd0       ?create@Create_func_abs@@UAEPAVItem@@PAVTHD@@PAV2@@Z 00475cd0 f   item_create.obj
 0001:00074d50       ?create@Create_func_acos@@UAEPAVItem@@PAVTHD@@PAV2@@Z 00475d50 f   item_create.obj
 0001:00074dd0       ?create@Create_func_addtime@@UAEPAVItem@@PAVTHD@@PAV2@1@Z 00475dd0 f   item_create.obj
 0001:00074e40       ?create@Create_func_aes_encrypt@@UAEPAVItem@@PAVTHD@@PAV2@1@Z 00475e40 f   item_create.obj
 0001:00074ea0       ?create@Create_func_aes_decrypt@@UAEPAVItem@@PAVTHD@@PAV2@1@Z 00475ea0 f   item_create.obj
 0001:00074f00       ?create@Create_func_area@@UAEPAVItem@@PAVTHD@@PAV2@@Z 00475f00 f   item_create.obj
 0001:00074f40       ?create@Create_func_as_wkb@@UAEPAVItem@@PAVTHD@@PAV2@@Z 00475f40 f   item_create.obj
 0001:00074fc0       ?create@Create_func_as_wkt@@UAEPAVItem@@PAVTHD@@PAV2@@Z 00475fc0 f   item_create.obj
 0001:00075040       ?create@Create_func_asin@@UAEPAVItem@@PAVTHD@@PAV2@@Z 00476040 f   item_create.obj
 0001:000750c0       ?create_native@Create_func_atan@@UAEPAVItem@@PAVTHD@@Ust_mysql_lex_string@@PAV?$List@VItem@@@@@Z 004760c0 f   item_create.obj
 0001:00075200       ?create@Create_func_benchmark@@UAEPAVItem@@PAVTHD@@PAV2@1@Z 00476200 f   item_create.obj
 0001:00075270       ?create@Create_func_bit_count@@UAEPAVItem@@PAVTHD@@PAV2@@Z 00476270 f   item_create.obj
 0001:000752f0       ?create@Create_func_bit_length@@UAEPAVItem@@PAVTHD@@PAV2@@Z 004762f0 f   item_create.obj
 0001:00075340       ?create@Create_func_ceiling@@UAEPAVItem@@PAVTHD@@PAV2@@Z 00476340 f   item_create.obj
 0001:000753c0       ?create@Create_func_centroid@@UAEPAVItem@@PAVTHD@@PAV2@@Z 004763c0 f   item_create.obj
 0001:00075440       ?create@Create_func_char_length@@UAEPAVItem@@PAVTHD@@PAV2@@Z 00476440 f   item_create.obj
 0001:00075480       ?create@Create_func_coercibility@@UAEPAVItem@@PAVTHD@@PAV2@@Z 00476480 f   item_create.obj
 0001:00075500       ?create_native@Create_func_concat@@UAEPAVItem@@PAVTHD@@Ust_mysql_lex_string@@PAV?$List@VItem@@@@@Z 00476500 f   item_create.obj
 0001:00075570       ?create_native@Create_func_concat_ws@@UAEPAVItem@@PAVTHD@@Ust_mysql_lex_string@@PAV?$List@VItem@@@@@Z 00476570 f   item_create.obj
 0001:000755e0       ?create@Create_func_compress@@UAEPAVItem@@PAVTHD@@PAV2@@Z 004765e0 f   item_create.obj
 0001:00075620       ?create@Create_func_connection_id@@UAEPAVItem@@PAVTHD@@@Z 00476620 f   item_create.obj
 0001:00075690       ?create@Create_func_contains@@UAEPAVItem@@PAVTHD@@PAV2@1@Z 00476690 f   item_create.obj
 0001:000756f0       ?create@Create_func_conv@@UAEPAVItem@@PAVTHD@@PAV2@11@Z 004766f0 f   item_create.obj
 0001:00075750       ?create@Create_func_convert_tz@@UAEPAVItem@@PAVTHD@@PAV2@11@Z 00476750 f   item_create.obj
 0001:000757c0       ?create@Create_func_cos@@UAEPAVItem@@PAVTHD@@PAV2@@Z 004767c0 f   item_create.obj
 0001:00075840       ?create@Create_func_crc32@@UAEPAVItem@@PAVTHD@@PAV2@@Z 00476840 f   item_create.obj
 0001:00075880       ?create@Create_func_crosses@@UAEPAVItem@@PAVTHD@@PAV2@1@Z 00476880 f   item_create.obj
 0001:000758e0       ?create@Create_func_date_format@@UAEPAVItem@@PAVTHD@@PAV2@1@Z 004768e0 f   item_create.obj
 0001:00075930       ?create@Create_func_datediff@@UAEPAVItem@@PAVTHD@@PAV2@1@Z 00476930 f   item_create.obj
 0001:00075a60       ?create@Create_func_dayname@@UAEPAVItem@@PAVTHD@@PAV2@@Z 00476a60 f   item_create.obj
 0001:00075ae0       ?create@Create_func_dayofmonth@@UAEPAVItem@@PAVTHD@@PAV2@@Z 00476ae0 f   item_create.obj
 0001:00075b60       ?create@Create_func_dayofweek@@UAEPAVItem@@PAVTHD@@PAV2@@Z 00476b60 f   item_create.obj
 0001:00075be0       ?create@Create_func_dayofyear@@UAEPAVItem@@PAVTHD@@PAV2@@Z 00476be0 f   item_create.obj
 0001:00075c60       ?create@Create_func_decode@@UAEPAVItem@@PAVTHD@@PAV2@1@Z 00476c60 f   item_create.obj
 0001:00075cc0       ?create@Create_func_degrees@@UAEPAVItem@@PAVTHD@@PAV2@@Z 00476cc0 f   item_create.obj
 0001:00075d20       ?create_native@Create_func_des_decrypt@@UAEPAVItem@@PAVTHD@@Ust_mysql_lex_string@@PAV?$List@VItem@@@@@Z 00476d20 f   item_create.obj
 0001:00075e50       ?create_native@Create_func_des_encrypt@@UAEPAVItem@@PAVTHD@@Ust_mysql_lex_string@@PAV?$List@VItem@@@@@Z 00476e50 f   item_create.obj
 0001:00075f80       ?create@Create_func_dimension@@UAEPAVItem@@PAVTHD@@PAV2@@Z 00476f80 f   item_create.obj
 0001:00075fc0       ?create@Create_func_disjoint@@UAEPAVItem@@PAVTHD@@PAV2@1@Z 00476fc0 f   item_create.obj
 0001:00076020       ?create_native@Create_func_elt@@UAEPAVItem@@PAVTHD@@Ust_mysql_lex_string@@PAV?$List@VItem@@@@@Z 00477020 f   item_create.obj
 0001:000760a0       ?create@Create_func_encode@@UAEPAVItem@@PAVTHD@@PAV2@1@Z 004770a0 f   item_create.obj
 0001:00076100       ?create_native@Create_func_encrypt@@UAEPAVItem@@PAVTHD@@Ust_mysql_lex_string@@PAV?$List@VItem@@@@@Z 00477100 f   item_create.obj
 0001:00076250       ?create@Create_func_endpoint@@UAEPAVItem@@PAVTHD@@PAV2@@Z 00477250 f   item_create.obj
 0001:00076290       ?create@Create_func_envelope@@UAEPAVItem@@PAVTHD@@PAV2@@Z 00477290 f   item_create.obj
 0001:00076310       ?create@Create_func_equals@@UAEPAVItem@@PAVTHD@@PAV2@1@Z 00477310 f   item_create.obj
 0001:00076370       ?create@Create_func_exp@@UAEPAVItem@@PAVTHD@@PAV2@@Z 00477370 f   item_create.obj
 0001:000763f0       ?create_native@Create_func_export_set@@UAEPAVItem@@PAVTHD@@Ust_mysql_lex_string@@PAV?$List@VItem@@@@@Z 004773f0 f   item_create.obj
 0001:000766f0       ?create@Create_func_exteriorring@@UAEPAVItem@@PAVTHD@@PAV2@@Z 004776f0 f   item_create.obj
 0001:00076730       ?create_native@Create_func_field@@UAEPAVItem@@PAVTHD@@Ust_mysql_lex_string@@PAV?$List@VItem@@@@@Z 00477730 f   item_create.obj
 0001:000767a0       ?create@Create_func_find_in_set@@UAEPAVItem@@PAVTHD@@PAV2@1@Z 004777a0 f   item_create.obj
 0001:000767e0       ?create@Create_func_floor@@UAEPAVItem@@PAVTHD@@PAV2@@Z 004777e0 f   item_create.obj
 0001:00076860       ?create@Create_func_found_rows@@UAEPAVItem@@PAVTHD@@@Z 00477860 f   item_create.obj
 0001:000768e0       ?create@Create_func_from_days@@UAEPAVItem@@PAVTHD@@PAV2@@Z 004778e0 f   item_create.obj
 0001:00076960       ?create_native@Create_func_from_unixtime@@UAEPAVItem@@PAVTHD@@Ust_mysql_lex_string@@PAV?$List@VItem@@@@@Z 00477960 f   item_create.obj
 0001:00076ac0       ?create_native@Create_func_geometry_from_text@@UAEPAVItem@@PAVTHD@@Ust_mysql_lex_string@@PAV?$List@VItem@@@@@Z 00477ac0 f   item_create.obj
 0001:00076c30       ?create_native@Create_func_geometry_from_wkb@@UAEPAVItem@@PAVTHD@@Ust_mysql_lex_string@@PAV?$List@VItem@@@@@Z 00477c30 f   item_create.obj
 0001:00076da0       ?create@Create_func_geometry_type@@UAEPAVItem@@PAVTHD@@PAV2@@Z 00477da0 f   item_create.obj
 0001:00076e20       ?create@Create_func_geometryn@@UAEPAVItem@@PAVTHD@@PAV2@1@Z 00477e20 f   item_create.obj
 0001:00076e80       ?create@Create_func_get_lock@@UAEPAVItem@@PAVTHD@@PAV2@1@Z 00477e80 f   item_create.obj
 0001:00076ed0       ?create@Create_func_glength@@UAEPAVItem@@PAVTHD@@PAV2@@Z 00477ed0 f   item_create.obj
 0001:00076f10       ?create_native@Create_func_greatest@@UAEPAVItem@@PAVTHD@@Ust_mysql_lex_string@@PAV?$List@VItem@@@@@Z 00477f10 f   item_create.obj
 0001:00076f90       ?create@Create_func_hex@@UAEPAVItem@@PAVTHD@@PAV2@@Z 00477f90 f   item_create.obj
 0001:00076fd0       ?create@Create_func_ifnull@@UAEPAVItem@@PAVTHD@@PAV2@1@Z 00477fd0 f   item_create.obj
 0001:00077030       ?create@Create_func_inet_ntoa@@UAEPAVItem@@PAVTHD@@PAV2@@Z 00478030 f   item_create.obj
 0001:000770b0       ?create@Create_func_inet_aton@@UAEPAVItem@@PAVTHD@@PAV2@@Z 004780b0 f   item_create.obj
 0001:00077130       ?create@Create_func_instr@@UAEPAVItem@@PAVTHD@@PAV2@1@Z 00478130 f   item_create.obj
 0001:00077170       ?create@Create_func_interiorringn@@UAEPAVItem@@PAVTHD@@PAV2@1@Z 00478170 f   item_create.obj
 0001:000771d0       ?create@Create_func_intersects@@UAEPAVItem@@PAVTHD@@PAV2@1@Z 004781d0 f   item_create.obj
 0001:00077230       ?create@Create_func_is_free_lock@@UAEPAVItem@@PAVTHD@@PAV2@@Z 00478230 f   item_create.obj
 0001:00077280       ?create@Create_func_is_used_lock@@UAEPAVItem@@PAVTHD@@PAV2@@Z 00478280 f   item_create.obj
 0001:000772d0       ?create@Create_func_isclosed@@UAEPAVItem@@PAVTHD@@PAV2@@Z 004782d0 f   item_create.obj
 0001:00077350       ?create@Create_func_isempty@@UAEPAVItem@@PAVTHD@@PAV2@@Z 00478350 f   item_create.obj
 0001:000773d0       ?create@Create_func_isnull@@UAEPAVItem@@PAVTHD@@PAV2@@Z 004783d0 f   item_create.obj
 0001:00077450       ?create@Create_func_issimple@@UAEPAVItem@@PAVTHD@@PAV2@@Z 00478450 f   item_create.obj
 0001:000774d0       ?create@Create_func_last_day@@UAEPAVItem@@PAVTHD@@PAV2@@Z 004784d0 f   item_create.obj
 0001:00077550       ?create_native@Create_func_last_insert_id@@UAEPAVItem@@PAVTHD@@Ust_mysql_lex_string@@PAV?$List@VItem@@@@@Z 00478550 f   item_create.obj
 0001:00077690       ?create@Create_func_lcase@@UAEPAVItem@@PAVTHD@@PAV2@@Z 00478690 f   item_create.obj
 0001:000776e0       ?create_native@Create_func_least@@UAEPAVItem@@PAVTHD@@Ust_mysql_lex_string@@PAV?$List@VItem@@@@@Z 004786e0 f   item_create.obj
 0001:00077760       ?create@Create_func_length@@UAEPAVItem@@PAVTHD@@PAV2@@Z 00478760 f   item_create.obj
 0001:000777a0       ?create@Create_func_ln@@UAEPAVItem@@PAVTHD@@PAV2@@Z 004787a0 f   item_create.obj
 0001:00077820       ?create@Create_func_load_file@@UAEPAVItem@@PAVTHD@@PAV2@@Z 00478820 f   item_create.obj
 0001:00077870       ?create_native@Create_func_locate@@UAEPAVItem@@PAVTHD@@Ust_mysql_lex_string@@PAV?$List@VItem@@@@@Z 00478870 f   item_create.obj
 0001:000779f0       ?create_native@Create_func_log@@UAEPAVItem@@PAVTHD@@Ust_mysql_lex_string@@PAV?$List@VItem@@@@@Z 004789f0 f   item_create.obj
 0001:00077b30       ?create@Create_func_log10@@UAEPAVItem@@PAVTHD@@PAV2@@Z 00478b30 f   item_create.obj
 0001:00077bb0       ?create@Create_func_log2@@UAEPAVItem@@PAVTHD@@PAV2@@Z 00478bb0 f   item_create.obj
 0001:00077c30       ?create@Create_func_lpad@@UAEPAVItem@@PAVTHD@@PAV2@11@Z 00478c30 f   item_create.obj
 0001:00077c80       ?create@Create_func_ltrim@@UAEPAVItem@@PAVTHD@@PAV2@@Z 00478c80 f   item_create.obj
 0001:00077cd0       ?create@Create_func_makedate@@UAEPAVItem@@PAVTHD@@PAV2@1@Z 00478cd0 f   item_create.obj
 0001:00077d30       ?create@Create_func_maketime@@UAEPAVItem@@PAVTHD@@PAV2@11@Z 00478d30 f   item_create.obj
 0001:00077d90       ?create_native@Create_func_make_set@@UAEPAVItem@@PAVTHD@@Ust_mysql_lex_string@@PAV?$List@VItem@@@@@Z 00478d90 f   item_create.obj
 0001:00077e30       ?create_native@Create_func_master_pos_wait@@UAEPAVItem@@PAVTHD@@Ust_mysql_lex_string@@PAV?$List@VItem@@@@@Z 00478e30 f   item_create.obj
 0001:00077ff0       ?create@Create_func_md5@@UAEPAVItem@@PAVTHD@@PAV2@@Z 00478ff0 f   item_create.obj
 0001:00078030       ?create@Create_func_monthname@@UAEPAVItem@@PAVTHD@@PAV2@@Z 00479030 f   item_create.obj
 0001:000780b0       ?create@Create_func_nullif@@UAEPAVItem@@PAVTHD@@PAV2@1@Z 004790b0 f   item_create.obj
 0001:00078110       ?create@Create_func_numgeometries@@UAEPAVItem@@PAVTHD@@PAV2@@Z 00479110 f   item_create.obj
 0001:00078150       ?create@Create_func_numinteriorring@@UAEPAVItem@@PAVTHD@@PAV2@@Z 00479150 f   item_create.obj
 0001:00078190       ?create@Create_func_numpoints@@UAEPAVItem@@PAVTHD@@PAV2@@Z 00479190 f   item_create.obj
 0001:000781d0       ?create@Create_func_ord@@UAEPAVItem@@PAVTHD@@PAV2@@Z 004791d0 f   item_create.obj
 0001:00078210       ?create@Create_func_overlaps@@UAEPAVItem@@PAVTHD@@PAV2@1@Z 00479210 f   item_create.obj
 0001:00078270       ?create@Create_func_period_add@@UAEPAVItem@@PAVTHD@@PAV2@1@Z 00479270 f   item_create.obj
 0001:000782d0       ?create@Create_func_period_diff@@UAEPAVItem@@PAVTHD@@PAV2@1@Z 004792d0 f   item_create.obj
 0001:00078330       ?create@Create_func_pointn@@UAEPAVItem@@PAVTHD@@PAV2@1@Z 00479330 f   item_create.obj
 0001:00078390       ?create@Create_func_pow@@UAEPAVItem@@PAVTHD@@PAV2@1@Z 00479390 f   item_create.obj
 0001:000783e0       ?create@Create_func_quote@@UAEPAVItem@@PAVTHD@@PAV2@@Z 004793e0 f   item_create.obj
 0001:00078420       ?create@Create_func_radians@@UAEPAVItem@@PAVTHD@@PAV2@@Z 00479420 f   item_create.obj
 0001:00078480       ?create_native@Create_func_rand@@UAEPAVItem@@PAVTHD@@Ust_mysql_lex_string@@PAV?$List@VItem@@@@@Z 00479480 f   item_create.obj
 0001:000785b0       ?create@Create_func_release_lock@@UAEPAVItem@@PAVTHD@@PAV2@@Z 004795b0 f   item_create.obj
 0001:00078600       ?create@Create_func_reverse@@UAEPAVItem@@PAVTHD@@PAV2@@Z 00479600 f   item_create.obj
 0001:00078640       ?create@Create_func_row_count@@UAEPAVItem@@PAVTHD@@@Z 00479640 f   item_create.obj
 0001:000786c0       ?create@Create_func_rpad@@UAEPAVItem@@PAVTHD@@PAV2@11@Z 004796c0 f   item_create.obj
 0001:00078710       ?create@Create_func_rtrim@@UAEPAVItem@@PAVTHD@@PAV2@@Z 00479710 f   item_create.obj
 0001:00078760       ?create@Create_func_sec_to_time@@UAEPAVItem@@PAVTHD@@PAV2@@Z 00479760 f   item_create.obj
 0001:000787e0       ?create@Create_func_sha@@UAEPAVItem@@PAVTHD@@PAV2@@Z 004797e0 f   item_create.obj
 0001:00078820       ?create@Create_func_sign@@UAEPAVItem@@PAVTHD@@PAV2@@Z 00479820 f   item_create.obj
 0001:000788a0       ?create@Create_func_sin@@UAEPAVItem@@PAVTHD@@PAV2@@Z 004798a0 f   item_create.obj
 0001:00078920       ?create@Create_func_sleep@@UAEPAVItem@@PAVTHD@@PAV2@@Z 00479920 f   item_create.obj
 0001:000789b0       ?create@Create_func_soundex@@UAEPAVItem@@PAVTHD@@PAV2@@Z 004799b0 f   item_create.obj
 0001:000789f0       ?create@Create_func_space@@UAEPAVItem@@PAVTHD@@PAV2@@Z 004799f0 f   item_create.obj
 0001:00078ad0       ?create@Create_func_sqrt@@UAEPAVItem@@PAVTHD@@PAV2@@Z 00479ad0 f   item_create.obj
 0001:00078b50       ?create@Create_func_srid@@UAEPAVItem@@PAVTHD@@PAV2@@Z 00479b50 f   item_create.obj
 0001:00078b90       ?create@Create_func_startpoint@@UAEPAVItem@@PAVTHD@@PAV2@@Z 00479b90 f   item_create.obj
 0001:00078bd0       ?create@Create_func_str_to_date@@UAEPAVItem@@PAVTHD@@PAV2@1@Z 00479bd0 f   item_create.obj
 0001:00078c30       ?create@Create_func_strcmp@@UAEPAVItem@@PAVTHD@@PAV2@1@Z 00479c30 f   item_create.obj
 0001:00078c80       ?create@Create_func_substr_index@@UAEPAVItem@@PAVTHD@@PAV2@11@Z 00479c80 f   item_create.obj
 0001:00078cd0       ?create@Create_func_subtime@@UAEPAVItem@@PAVTHD@@PAV2@1@Z 00479cd0 f   item_create.obj
 0001:00078d40       ?create@Create_func_tan@@UAEPAVItem@@PAVTHD@@PAV2@@Z 00479d40 f   item_create.obj
 0001:00078dc0       ?create@Create_func_time_format@@UAEPAVItem@@PAVTHD@@PAV2@1@Z 00479dc0 f   item_create.obj
 0001:00078e10       ?create@Create_func_time_to_sec@@UAEPAVItem@@PAVTHD@@PAV2@@Z 00479e10 f   item_create.obj
 0001:00078e90       ?create@Create_func_timediff@@UAEPAVItem@@PAVTHD@@PAV2@1@Z 00479e90 f   item_create.obj
 0001:00078ef0       ?create@Create_func_to_days@@UAEPAVItem@@PAVTHD@@PAV2@@Z 00479ef0 f   item_create.obj
 0001:00078f70       ?create@Create_func_touches@@UAEPAVItem@@PAVTHD@@PAV2@1@Z 00479f70 f   item_create.obj
 0001:00078fd0       ?create@Create_func_ucase@@UAEPAVItem@@PAVTHD@@PAV2@@Z 00479fd0 f   item_create.obj
 0001:00079020       ?create@Create_func_uncompress@@UAEPAVItem@@PAVTHD@@PAV2@@Z 0047a020 f   item_create.obj
 0001:00079060       ?create@Create_func_uncompressed_length@@UAEPAVItem@@PAVTHD@@PAV2@@Z 0047a060 f   item_create.obj
 0001:000790a0       ?create@Create_func_unhex@@UAEPAVItem@@PAVTHD@@PAV2@@Z 0047a0a0 f   item_create.obj
 0001:000790e0       ?create_native@Create_func_unix_timestamp@@UAEPAVItem@@PAVTHD@@Ust_mysql_lex_string@@PAV?$List@VItem@@@@@Z 0047a0e0 f   item_create.obj
 0001:000791d0       ?create@Create_func_uuid@@UAEPAVItem@@PAVTHD@@@Z 0047a1d0 f   item_create.obj
 0001:00079250       ?create@Create_func_uuid_short@@UAEPAVItem@@PAVTHD@@@Z 0047a250 f   item_create.obj
 0001:000792d0       ?create@Create_func_version@@UAEPAVItem@@PAVTHD@@@Z 0047a2d0 f   item_create.obj
 0001:00079350       ?create@Create_func_weekday@@UAEPAVItem@@PAVTHD@@PAV2@@Z 0047a350 f   item_create.obj
 0001:000793d0       ?create@Create_func_within@@UAEPAVItem@@PAVTHD@@PAV2@1@Z 0047a3d0 f   item_create.obj
 0001:00079430       ?create@Create_func_x@@UAEPAVItem@@PAVTHD@@PAV2@@Z 0047a430 f   item_create.obj
 0001:00079470       ?create@Create_func_xml_extractvalue@@UAEPAVItem@@PAVTHD@@PAV2@1@Z 0047a470 f   item_create.obj
 0001:000794c0       ?create@Create_func_xml_update@@UAEPAVItem@@PAVTHD@@PAV2@11@Z 0047a4c0 f   item_create.obj
 0001:00079510       ?create@Create_func_y@@UAEPAVItem@@PAVTHD@@PAV2@@Z 0047a510 f   item_create.obj
 0001:00079550       ?create_func_cast@@YAPAVItem@@PAVTHD@@PAV1@W4Cast_target@@PBD3PAUcharset_info_st@@@Z 0047a550 f   item_create.obj
 0001:00079990       ??0Item_int@@QAE@HI@Z      0047a990 f i item_create.obj
 0001:000799d0       ??0Item_static_float_func@@QAE@PBDNII@Z 0047a9d0 f i item_create.obj
 0001:00079a20       ?print@Item_static_float_func@@UAEXPAVString@@W4enum_query_type@@@Z 0047aa20 f i item_create.obj
 0001:00079a40       ??1Item_static_float_func@@UAE@XZ 0047aa40 f i item_create.obj
 0001:00079a80       ??_EItem_static_float_func@@UAEPAXI@Z 0047aa80 f i item_create.obj
 0001:00079a80       ??_GItem_static_float_func@@UAEPAXI@Z 0047aa80 f i item_create.obj
 0001:00079ac0       ??_GItem_sum@@UAEPAXI@Z    0047aac0 f i item_create.obj
 0001:00079ac0       ??_EItem_sum@@UAEPAXI@Z    0047aac0 f i item_create.obj
 0001:00079b00       ??_EItem_udf_sum@@UAEPAXI@Z 0047ab00 f i item_create.obj
 0001:00079b00       ??_GItem_udf_sum@@UAEPAXI@Z 0047ab00 f i item_create.obj
 0001:00079b50       ??_GItem_sum_udf_float@@UAEPAXI@Z 0047ab50 f i item_create.obj
 0001:00079b50       ??_EItem_sum_udf_float@@UAEPAXI@Z 0047ab50 f i item_create.obj
 0001:00079ba0       ??_EItem_sum_udf_int@@UAEPAXI@Z 0047aba0 f i item_create.obj
 0001:00079ba0       ??_GItem_sum_udf_int@@UAEPAXI@Z 0047aba0 f i item_create.obj
 0001:00079bf0       ??_EItem_sum_udf_str@@UAEPAXI@Z 0047abf0 f i item_create.obj
 0001:00079bf0       ??_GItem_sum_udf_str@@UAEPAXI@Z 0047abf0 f i item_create.obj
 0001:00079c40       ??_GItem_sum_udf_decimal@@UAEPAXI@Z 0047ac40 f i item_create.obj
 0001:00079c40       ??_EItem_sum_udf_decimal@@UAEPAXI@Z 0047ac40 f i item_create.obj
 0001:00079c90       ??_EItem_real_func@@UAEPAXI@Z 0047ac90 f i item_create.obj
 0001:00079c90       ??_GItem_real_func@@UAEPAXI@Z 0047ac90 f i item_create.obj
 0001:00079cd0       ??_GItem_func_numhybrid@@UAEPAXI@Z 0047acd0 f i item_create.obj
 0001:00079cd0       ??_EItem_func_numhybrid@@UAEPAXI@Z 0047acd0 f i item_create.obj
 0001:00079d10       ??_GItem_func_num1@@UAEPAXI@Z 0047ad10 f i item_create.obj
 0001:00079d10       ??_EItem_func_num1@@UAEPAXI@Z 0047ad10 f i item_create.obj
 0001:00079d50       ??_EItem_num_op@@UAEPAXI@Z 0047ad50 f i item_create.obj
 0001:00079d50       ??_GItem_num_op@@UAEPAXI@Z 0047ad50 f i item_create.obj
 0001:00079d90       ??_GItem_func_connection_id@@UAEPAXI@Z 0047ad90 f i item_create.obj
 0001:00079d90       ??_EItem_func_connection_id@@UAEPAXI@Z 0047ad90 f i item_create.obj
 0001:00079dd0       ??_EItem_func_signed@@UAEPAXI@Z 0047add0 f i item_create.obj
 0001:00079dd0       ??_GItem_func_signed@@UAEPAXI@Z 0047add0 f i item_create.obj
 0001:00079e10       ??_EItem_func_unsigned@@UAEPAXI@Z 0047ae10 f i item_create.obj
 0001:00079e10       ??_GItem_func_unsigned@@UAEPAXI@Z 0047ae10 f i item_create.obj
 0001:00079e50       ??_GItem_decimal_typecast@@UAEPAXI@Z 0047ae50 f i item_create.obj
 0001:00079e50       ??_EItem_decimal_typecast@@UAEPAXI@Z 0047ae50 f i item_create.obj
 0001:00079e90       ??_EItem_func_additive_op@@UAEPAXI@Z 0047ae90 f i item_create.obj
 0001:00079e90       ??_GItem_func_additive_op@@UAEPAXI@Z 0047ae90 f i item_create.obj
 0001:00079ed0       ??_EItem_func_minus@@UAEPAXI@Z 0047aed0 f i item_create.obj
 0001:00079ed0       ??_GItem_func_minus@@UAEPAXI@Z 0047aed0 f i item_create.obj
 0001:00079f10       ??_EItem_func_div@@UAEPAXI@Z 0047af10 f i item_create.obj
 0001:00079f10       ??_GItem_func_div@@UAEPAXI@Z 0047af10 f i item_create.obj
 0001:00079f50       ??_EItem_func_abs@@UAEPAXI@Z 0047af50 f i item_create.obj
 0001:00079f50       ??_GItem_func_abs@@UAEPAXI@Z 0047af50 f i item_create.obj
 0001:00079f90       ??_EItem_dec_func@@UAEPAXI@Z 0047af90 f i item_create.obj
 0001:00079f90       ??_GItem_dec_func@@UAEPAXI@Z 0047af90 f i item_create.obj
 0001:00079fd0       ??_GItem_func_exp@@UAEPAXI@Z 0047afd0 f i item_create.obj
 0001:00079fd0       ??_EItem_func_exp@@UAEPAXI@Z 0047afd0 f i item_create.obj
 0001:0007a010       ??_GItem_func_ln@@UAEPAXI@Z 0047b010 f i item_create.obj
 0001:0007a010       ??_EItem_func_ln@@UAEPAXI@Z 0047b010 f i item_create.obj
 0001:0007a050       ??_EItem_func_log@@UAEPAXI@Z 0047b050 f i item_create.obj
 0001:0007a050       ??_GItem_func_log@@UAEPAXI@Z 0047b050 f i item_create.obj
 0001:0007a090       ??_EItem_func_log2@@UAEPAXI@Z 0047b090 f i item_create.obj
 0001:0007a090       ??_GItem_func_log2@@UAEPAXI@Z 0047b090 f i item_create.obj
 0001:0007a0d0       ??_EItem_func_log10@@UAEPAXI@Z 0047b0d0 f i item_create.obj
 0001:0007a0d0       ??_GItem_func_log10@@UAEPAXI@Z 0047b0d0 f i item_create.obj
 0001:0007a110       ??_GItem_func_sqrt@@UAEPAXI@Z 0047b110 f i item_create.obj
 0001:0007a110       ??_EItem_func_sqrt@@UAEPAXI@Z 0047b110 f i item_create.obj
 0001:0007a150       ??_GItem_func_pow@@UAEPAXI@Z 0047b150 f i item_create.obj
 0001:0007a150       ??_EItem_func_pow@@UAEPAXI@Z 0047b150 f i item_create.obj
 0001:0007a190       ??_GItem_func_acos@@UAEPAXI@Z 0047b190 f i item_create.obj
 0001:0007a190       ??_EItem_func_acos@@UAEPAXI@Z 0047b190 f i item_create.obj
 0001:0007a1d0       ??_EItem_func_asin@@UAEPAXI@Z 0047b1d0 f i item_create.obj
 0001:0007a1d0       ??_GItem_func_asin@@UAEPAXI@Z 0047b1d0 f i item_create.obj
 0001:0007a210       ??_EItem_func_atan@@UAEPAXI@Z 0047b210 f i item_create.obj
 0001:0007a210       ??_GItem_func_atan@@UAEPAXI@Z 0047b210 f i item_create.obj
 0001:0007a250       ??_GItem_func_cos@@UAEPAXI@Z 0047b250 f i item_create.obj
 0001:0007a250       ??_EItem_func_cos@@UAEPAXI@Z 0047b250 f i item_create.obj
 0001:0007a290       ??_GItem_func_sin@@UAEPAXI@Z 0047b290 f i item_create.obj
 0001:0007a290       ??_EItem_func_sin@@UAEPAXI@Z 0047b290 f i item_create.obj
 0001:0007a2d0       ??_GItem_func_tan@@UAEPAXI@Z 0047b2d0 f i item_create.obj
 0001:0007a2d0       ??_EItem_func_tan@@UAEPAXI@Z 0047b2d0 f i item_create.obj
 0001:0007a310       ??_GItem_func_int_val@@UAEPAXI@Z 0047b310 f i item_create.obj
 0001:0007a310       ??_EItem_func_int_val@@UAEPAXI@Z 0047b310 f i item_create.obj
 0001:0007a350       ??_EItem_func_ceiling@@UAEPAXI@Z 0047b350 f i item_create.obj
 0001:0007a350       ??_GItem_func_ceiling@@UAEPAXI@Z 0047b350 f i item_create.obj
 0001:0007a390       ??_EItem_func_floor@@UAEPAXI@Z 0047b390 f i item_create.obj
 0001:0007a390       ??_GItem_func_floor@@UAEPAXI@Z 0047b390 f i item_create.obj
 0001:0007a3d0       ??_EItem_func_round@@UAEPAXI@Z 0047b3d0 f i item_create.obj
 0001:0007a3d0       ??_GItem_func_round@@UAEPAXI@Z 0047b3d0 f i item_create.obj
 0001:0007a410       ??_EItem_func_rand@@UAEPAXI@Z 0047b410 f i item_create.obj
 0001:0007a410       ??_GItem_func_rand@@UAEPAXI@Z 0047b410 f i item_create.obj
 0001:0007a450       ??_EItem_func_sign@@UAEPAXI@Z 0047b450 f i item_create.obj
 0001:0007a450       ??_GItem_func_sign@@UAEPAXI@Z 0047b450 f i item_create.obj
 0001:0007a490       ??_EItem_func_units@@UAEPAXI@Z 0047b490 f i item_create.obj
 0001:0007a490       ??_GItem_func_units@@UAEPAXI@Z 0047b490 f i item_create.obj
 0001:0007a4d0       ??_EItem_func_min_max@@UAEPAXI@Z 0047b4d0 f i item_create.obj
 0001:0007a4d0       ??_GItem_func_min_max@@UAEPAXI@Z 0047b4d0 f i item_create.obj
 0001:0007a4f0       ??_GItem_func_min@@UAEPAXI@Z 0047b4f0 f i item_create.obj
 0001:0007a4f0       ??_EItem_func_min@@UAEPAXI@Z 0047b4f0 f i item_create.obj
 0001:0007a510       ??_EItem_func_max@@UAEPAXI@Z 0047b510 f i item_create.obj
 0001:0007a510       ??_GItem_func_max@@UAEPAXI@Z 0047b510 f i item_create.obj
 0001:0007a530       ??_EItem_func_length@@UAEPAXI@Z 0047b530 f i item_create.obj
 0001:0007a530       ??_GItem_func_length@@UAEPAXI@Z 0047b530 f i item_create.obj
 0001:0007a550       ??_GItem_func_bit_length@@UAEPAXI@Z 0047b550 f i item_create.obj
 0001:0007a550       ??_EItem_func_bit_length@@UAEPAXI@Z 0047b550 f i item_create.obj
 0001:0007a570       ??_GItem_func_char_length@@UAEPAXI@Z 0047b570 f i item_create.obj
 0001:0007a570       ??_EItem_func_char_length@@UAEPAXI@Z 0047b570 f i item_create.obj
 0001:0007a590       ??_GItem_func_coercibility@@UAEPAXI@Z 0047b590 f i item_create.obj
 0001:0007a590       ??_EItem_func_coercibility@@UAEPAXI@Z 0047b590 f i item_create.obj
 0001:0007a5d0       ??_GItem_func_locate@@UAEPAXI@Z 0047b5d0 f i item_create.obj
 0001:0007a5d0       ??_EItem_func_locate@@UAEPAXI@Z 0047b5d0 f i item_create.obj
 0001:0007a5f0       ??_GItem_func_field@@UAEPAXI@Z 0047b5f0 f i item_create.obj
 0001:0007a5f0       ??_EItem_func_field@@UAEPAXI@Z 0047b5f0 f i item_create.obj
 0001:0007a610       ??_GItem_func_ord@@UAEPAXI@Z 0047b610 f i item_create.obj
 0001:0007a610       ??_EItem_func_ord@@UAEPAXI@Z 0047b610 f i item_create.obj
 0001:0007a630       ??_GItem_func_find_in_set@@UAEPAXI@Z 0047b630 f i item_create.obj
 0001:0007a630       ??_EItem_func_find_in_set@@UAEPAXI@Z 0047b630 f i item_create.obj
 0001:0007a650       ??_EItem_func_bit_count@@UAEPAXI@Z 0047b650 f i item_create.obj
 0001:0007a650       ??_GItem_func_bit_count@@UAEPAXI@Z 0047b650 f i item_create.obj
 0001:0007a690       ??_EItem_func_last_insert_id@@UAEPAXI@Z 0047b690 f i item_create.obj
 0001:0007a690       ??_GItem_func_last_insert_id@@UAEPAXI@Z 0047b690 f i item_create.obj
 0001:0007a6d0       ??_GItem_func_benchmark@@UAEPAXI@Z 0047b6d0 f i item_create.obj
 0001:0007a6d0       ??_EItem_func_benchmark@@UAEPAXI@Z 0047b6d0 f i item_create.obj
 0001:0007a710       ??_GItem_func_sleep@@UAEPAXI@Z 0047b710 f i item_create.obj
 0001:0007a710       ??_EItem_func_sleep@@UAEPAXI@Z 0047b710 f i item_create.obj
 0001:0007a750       ??_GItem_udf_func@@UAEPAXI@Z 0047b750 f i item_create.obj
 0001:0007a750       ??_EItem_udf_func@@UAEPAXI@Z 0047b750 f i item_create.obj
 0001:0007a7a0       ??_EItem_func_udf_float@@UAEPAXI@Z 0047b7a0 f i item_create.obj
 0001:0007a7a0       ??_GItem_func_udf_float@@UAEPAXI@Z 0047b7a0 f i item_create.obj
 0001:0007a7f0       ??_EItem_func_udf_int@@UAEPAXI@Z 0047b7f0 f i item_create.obj
 0001:0007a7f0       ??_GItem_func_udf_int@@UAEPAXI@Z 0047b7f0 f i item_create.obj
 0001:0007a840       ??_GItem_func_udf_decimal@@UAEPAXI@Z 0047b840 f i item_create.obj
 0001:0007a840       ??_EItem_func_udf_decimal@@UAEPAXI@Z 0047b840 f i item_create.obj
 0001:0007a890       ??_GItem_func_udf_str@@UAEPAXI@Z 0047b890 f i item_create.obj
 0001:0007a890       ??_EItem_func_udf_str@@UAEPAXI@Z 0047b890 f i item_create.obj
 0001:0007a8e0       ??_EItem_func_get_lock@@UAEPAXI@Z 0047b8e0 f i item_create.obj
 0001:0007a8e0       ??_GItem_func_get_lock@@UAEPAXI@Z 0047b8e0 f i item_create.obj
 0001:0007a900       ??_GItem_func_release_lock@@UAEPAXI@Z 0047b900 f i item_create.obj
 0001:0007a900       ??_EItem_func_release_lock@@UAEPAXI@Z 0047b900 f i item_create.obj
 0001:0007a920       ??_EItem_master_pos_wait@@UAEPAXI@Z 0047b920 f i item_create.obj
 0001:0007a920       ??_GItem_master_pos_wait@@UAEPAXI@Z 0047b920 f i item_create.obj
 0001:0007a940       ??_EItem_func_inet_aton@@UAEPAXI@Z 0047b940 f i item_create.obj
 0001:0007a940       ??_GItem_func_inet_aton@@UAEPAXI@Z 0047b940 f i item_create.obj
 0001:0007a980       ??_EItem_func_is_free_lock@@UAEPAXI@Z 0047b980 f i item_create.obj
 0001:0007a980       ??_GItem_func_is_free_lock@@UAEPAXI@Z 0047b980 f i item_create.obj
 0001:0007a9a0       ??_EItem_func_is_used_lock@@UAEPAXI@Z 0047b9a0 f i item_create.obj
 0001:0007a9a0       ??_GItem_func_is_used_lock@@UAEPAXI@Z 0047b9a0 f i item_create.obj
 0001:0007a9c0       ??_EItem_func_row_count@@UAEPAXI@Z 0047b9c0 f i item_create.obj
 0001:0007a9c0       ??_GItem_func_row_count@@UAEPAXI@Z 0047b9c0 f i item_create.obj
 0001:0007aa00       ??_GItem_func_found_rows@@UAEPAXI@Z 0047ba00 f i item_create.obj
 0001:0007aa00       ??_EItem_func_found_rows@@UAEPAXI@Z 0047ba00 f i item_create.obj
 0001:0007aa40       ??_GItem_func_uuid_short@@UAEPAXI@Z 0047ba40 f i item_create.obj
 0001:0007aa40       ??_EItem_func_uuid_short@@UAEPAXI@Z 0047ba40 f i item_create.obj
 0001:0007aa80       ??_EItem_func_strcmp@@UAEPAXI@Z 0047ba80 f i item_create.obj
 0001:0007aa80       ??_GItem_func_strcmp@@UAEPAXI@Z 0047ba80 f i item_create.obj
 0001:0007aaa0       ??_GItem_func_coalesce@@UAEPAXI@Z 0047baa0 f i item_create.obj
 0001:0007aaa0       ??_EItem_func_coalesce@@UAEPAXI@Z 0047baa0 f i item_create.obj
 0001:0007aae0       ??_GItem_func_ifnull@@UAEPAXI@Z 0047bae0 f i item_create.obj
 0001:0007aae0       ??_EItem_func_ifnull@@UAEPAXI@Z 0047bae0 f i item_create.obj
 0001:0007ab20       ??_EItem_func_nullif@@UAEPAXI@Z 0047bb20 f i item_create.obj
 0001:0007ab20       ??_GItem_func_nullif@@UAEPAXI@Z 0047bb20 f i item_create.obj
 0001:0007ab40       ??_EItem_func_md5@@UAEPAXI@Z 0047bb40 f i item_create.obj
 0001:0007ab40       ??_GItem_func_md5@@UAEPAXI@Z 0047bb40 f i item_create.obj
 0001:0007ab60       ??_GItem_func_sha@@UAEPAXI@Z 0047bb60 f i item_create.obj
 0001:0007ab60       ??_EItem_func_sha@@UAEPAXI@Z 0047bb60 f i item_create.obj
 0001:0007aba0       ??_GItem_func_aes_encrypt@@UAEPAXI@Z 0047bba0 f i item_create.obj
 0001:0007aba0       ??_EItem_func_aes_encrypt@@UAEPAXI@Z 0047bba0 f i item_create.obj
 0001:0007abe0       ??_GItem_func_aes_decrypt@@UAEPAXI@Z 0047bbe0 f i item_create.obj
 0001:0007abe0       ??_EItem_func_aes_decrypt@@UAEPAXI@Z 0047bbe0 f i item_create.obj
 0001:0007ac20       ??_GItem_func_concat@@UAEPAXI@Z 0047bc20 f i item_create.obj
 0001:0007ac20       ??_EItem_func_concat@@UAEPAXI@Z 0047bc20 f i item_create.obj
 0001:0007ac40       ??_EItem_func_concat_ws@@UAEPAXI@Z 0047bc40 f i item_create.obj
 0001:0007ac40       ??_GItem_func_concat_ws@@UAEPAXI@Z 0047bc40 f i item_create.obj
 0001:0007ac60       ??_GItem_func_reverse@@UAEPAXI@Z 0047bc60 f i item_create.obj
 0001:0007ac60       ??_EItem_func_reverse@@UAEPAXI@Z 0047bc60 f i item_create.obj
 0001:0007ac80       ??_GItem_str_conv@@UAEPAXI@Z 0047bc80 f i item_create.obj
 0001:0007ac80       ??_EItem_str_conv@@UAEPAXI@Z 0047bc80 f i item_create.obj
 0001:0007aca0       ??_GItem_func_lcase@@UAEPAXI@Z 0047bca0 f i item_create.obj
 0001:0007aca0       ??_EItem_func_lcase@@UAEPAXI@Z 0047bca0 f i item_create.obj
 0001:0007acc0       ??_GItem_func_ucase@@UAEPAXI@Z 0047bcc0 f i item_create.obj
 0001:0007acc0       ??_EItem_func_ucase@@UAEPAXI@Z 0047bcc0 f i item_create.obj
 0001:0007ace0       ??_EItem_func_substr_index@@UAEPAXI@Z 0047bce0 f i item_create.obj
 0001:0007ace0       ??_GItem_func_substr_index@@UAEPAXI@Z 0047bce0 f i item_create.obj
 0001:0007ad00       ??_EItem_func_trim@@UAEPAXI@Z 0047bd00 f i item_create.obj
 0001:0007ad00       ??_GItem_func_trim@@UAEPAXI@Z 0047bd00 f i item_create.obj
 0001:0007ad20       ??_EItem_func_ltrim@@UAEPAXI@Z 0047bd20 f i item_create.obj
 0001:0007ad20       ??_GItem_func_ltrim@@UAEPAXI@Z 0047bd20 f i item_create.obj
 0001:0007ad40       ??_EItem_func_rtrim@@UAEPAXI@Z 0047bd40 f i item_create.obj
 0001:0007ad40       ??_GItem_func_rtrim@@UAEPAXI@Z 0047bd40 f i item_create.obj
 0001:0007ad60       ??_EItem_func_des_encrypt@@UAEPAXI@Z 0047bd60 f i item_create.obj
 0001:0007ad60       ??_GItem_func_des_encrypt@@UAEPAXI@Z 0047bd60 f i item_create.obj
 0001:0007ad80       ??_GItem_func_des_decrypt@@UAEPAXI@Z 0047bd80 f i item_create.obj
 0001:0007ad80       ??_EItem_func_des_decrypt@@UAEPAXI@Z 0047bd80 f i item_create.obj
 0001:0007ada0       ??_EItem_func_encrypt@@UAEPAXI@Z 0047bda0 f i item_create.obj
 0001:0007ada0       ??_GItem_func_encrypt@@UAEPAXI@Z 0047bda0 f i item_create.obj
 0001:0007adc0       ??_EItem_func_encode@@UAEPAXI@Z 0047bdc0 f i item_create.obj
 0001:0007adc0       ??_GItem_func_encode@@UAEPAXI@Z 0047bdc0 f i item_create.obj
 0001:0007ae00       ??_GItem_func_decode@@UAEPAXI@Z 0047be00 f i item_create.obj
 0001:0007ae00       ??_EItem_func_decode@@UAEPAXI@Z 0047be00 f i item_create.obj
 0001:0007ae40       ??_GItem_func_soundex@@UAEPAXI@Z 0047be40 f i item_create.obj
 0001:0007ae40       ??_EItem_func_soundex@@UAEPAXI@Z 0047be40 f i item_create.obj
 0001:0007ae60       ??_EItem_func_elt@@UAEPAXI@Z 0047be60 f i item_create.obj
 0001:0007ae60       ??_GItem_func_elt@@UAEPAXI@Z 0047be60 f i item_create.obj
 0001:0007aea0       ??_GItem_func_make_set@@UAEPAXI@Z 0047bea0 f i item_create.obj
 0001:0007aea0       ??_EItem_func_make_set@@UAEPAXI@Z 0047bea0 f i item_create.obj
 0001:0007aec0       ??_EItem_func_repeat@@UAEPAXI@Z 0047bec0 f i item_create.obj
 0001:0007aec0       ??_GItem_func_repeat@@UAEPAXI@Z 0047bec0 f i item_create.obj
 0001:0007aee0       ??_GItem_func_rpad@@UAEPAXI@Z 0047bee0 f i item_create.obj
 0001:0007aee0       ??_EItem_func_rpad@@UAEPAXI@Z 0047bee0 f i item_create.obj
 0001:0007af00       ??_EItem_func_lpad@@UAEPAXI@Z 0047bf00 f i item_create.obj
 0001:0007af00       ??_GItem_func_lpad@@UAEPAXI@Z 0047bf00 f i item_create.obj
 0001:0007af20       ??_EItem_func_conv@@UAEPAXI@Z 0047bf20 f i item_create.obj
 0001:0007af20       ??_GItem_func_conv@@UAEPAXI@Z 0047bf20 f i item_create.obj
 0001:0007af60       ??_EItem_func_hex@@UAEPAXI@Z 0047bf60 f i item_create.obj
 0001:0007af60       ??_GItem_func_hex@@UAEPAXI@Z 0047bf60 f i item_create.obj
 0001:0007af80       ??_EItem_func_unhex@@UAEPAXI@Z 0047bf80 f i item_create.obj
 0001:0007af80       ??_GItem_func_unhex@@UAEPAXI@Z 0047bf80 f i item_create.obj
 0001:0007afa0       ??_EItem_func_binary@@UAEPAXI@Z 0047bfa0 f i item_create.obj
 0001:0007afa0       ??_GItem_func_binary@@UAEPAXI@Z 0047bfa0 f i item_create.obj
 0001:0007afe0       ??_EItem_load_file@@UAEPAXI@Z 0047bfe0 f i item_create.obj
 0001:0007afe0       ??_GItem_load_file@@UAEPAXI@Z 0047bfe0 f i item_create.obj
 0001:0007b000       ??_GItem_func_export_set@@UAEPAXI@Z 0047c000 f i item_create.obj
 0001:0007b000       ??_EItem_func_export_set@@UAEPAXI@Z 0047c000 f i item_create.obj
 0001:0007b040       ??_GItem_func_inet_ntoa@@UAEPAXI@Z 0047c040 f i item_create.obj
 0001:0007b040       ??_EItem_func_inet_ntoa@@UAEPAXI@Z 0047c040 f i item_create.obj
 0001:0007b080       ??_EItem_func_quote@@UAEPAXI@Z 0047c080 f i item_create.obj
 0001:0007b080       ??_GItem_func_quote@@UAEPAXI@Z 0047c080 f i item_create.obj
 0001:0007b0a0       ??_GItem_func_crc32@@UAEPAXI@Z 0047c0a0 f i item_create.obj
 0001:0007b0a0       ??_EItem_func_crc32@@UAEPAXI@Z 0047c0a0 f i item_create.obj
 0001:0007b0c0       ??_EItem_func_uncompressed_length@@UAEPAXI@Z 0047c0c0 f i item_create.obj
 0001:0007b0c0       ??_GItem_func_uncompressed_length@@UAEPAXI@Z 0047c0c0 f i item_create.obj
 0001:0007b0e0       ??_EItem_func_compress@@UAEPAXI@Z 0047c0e0 f i item_create.obj
 0001:0007b0e0       ??_GItem_func_compress@@UAEPAXI@Z 0047c0e0 f i item_create.obj
 0001:0007b100       ??_EItem_func_uncompress@@UAEPAXI@Z 0047c100 f i item_create.obj
 0001:0007b100       ??_GItem_func_uncompress@@UAEPAXI@Z 0047c100 f i item_create.obj
 0001:0007b120       ??_EItem_func_uuid@@UAEPAXI@Z 0047c120 f i item_create.obj
 0001:0007b120       ??_GItem_func_uuid@@UAEPAXI@Z 0047c120 f i item_create.obj
 0001:0007b160       ??_GItem_geometry_func@@UAEPAXI@Z 0047c160 f i item_create.obj
 0001:0007b160       ??_EItem_geometry_func@@UAEPAXI@Z 0047c160 f i item_create.obj
 0001:0007b1a0       ??_EItem_func_geometry_from_text@@UAEPAXI@Z 0047c1a0 f i item_create.obj
 0001:0007b1a0       ??_GItem_func_geometry_from_text@@UAEPAXI@Z 0047c1a0 f i item_create.obj
 0001:0007b1e0       ??_EItem_func_geometry_from_wkb@@UAEPAXI@Z 0047c1e0 f i item_create.obj
 0001:0007b1e0       ??_GItem_func_geometry_from_wkb@@UAEPAXI@Z 0047c1e0 f i item_create.obj
 0001:0007b220       ??_GItem_func_as_wkt@@UAEPAXI@Z 0047c220 f i item_create.obj
 0001:0007b220       ??_EItem_func_as_wkt@@UAEPAXI@Z 0047c220 f i item_create.obj
 0001:0007b260       ??_GItem_func_as_wkb@@UAEPAXI@Z 0047c260 f i item_create.obj
 0001:0007b260       ??_EItem_func_as_wkb@@UAEPAXI@Z 0047c260 f i item_create.obj
 0001:0007b2a0       ??_EItem_func_geometry_type@@UAEPAXI@Z 0047c2a0 f i item_create.obj
 0001:0007b2a0       ??_GItem_func_geometry_type@@UAEPAXI@Z 0047c2a0 f i item_create.obj
 0001:0007b2e0       ??_EItem_func_centroid@@UAEPAXI@Z 0047c2e0 f i item_create.obj
 0001:0007b2e0       ??_GItem_func_centroid@@UAEPAXI@Z 0047c2e0 f i item_create.obj
 0001:0007b320       ??_GItem_func_envelope@@UAEPAXI@Z 0047c320 f i item_create.obj
 0001:0007b320       ??_EItem_func_envelope@@UAEPAXI@Z 0047c320 f i item_create.obj
 0001:0007b360       ??_EItem_func_spatial_decomp@@UAEPAXI@Z 0047c360 f i item_create.obj
 0001:0007b360       ??_GItem_func_spatial_decomp@@UAEPAXI@Z 0047c360 f i item_create.obj
 0001:0007b3a0       ??_EItem_func_spatial_decomp_n@@UAEPAXI@Z 0047c3a0 f i item_create.obj
 0001:0007b3a0       ??_GItem_func_spatial_decomp_n@@UAEPAXI@Z 0047c3a0 f i item_create.obj
 0001:0007b3e0       ??_EItem_func_spatial_rel@@UAEPAXI@Z 0047c3e0 f i item_create.obj
 0001:0007b3e0       ??_GItem_func_spatial_rel@@UAEPAXI@Z 0047c3e0 f i item_create.obj
 0001:0007b400       ??_GItem_func_isempty@@UAEPAXI@Z 0047c400 f i item_create.obj
 0001:0007b400       ??_EItem_func_isempty@@UAEPAXI@Z 0047c400 f i item_create.obj
 0001:0007b440       ??_GItem_func_issimple@@UAEPAXI@Z 0047c440 f i item_create.obj
 0001:0007b440       ??_EItem_func_issimple@@UAEPAXI@Z 0047c440 f i item_create.obj
 0001:0007b480       ??_EItem_func_isclosed@@UAEPAXI@Z 0047c480 f i item_create.obj
 0001:0007b480       ??_GItem_func_isclosed@@UAEPAXI@Z 0047c480 f i item_create.obj
 0001:0007b4c0       ??_EItem_func_dimension@@UAEPAXI@Z 0047c4c0 f i item_create.obj
 0001:0007b4c0       ??_GItem_func_dimension@@UAEPAXI@Z 0047c4c0 f i item_create.obj
 0001:0007b4e0       ??_EItem_func_x@@UAEPAXI@Z 0047c4e0 f i item_create.obj
 0001:0007b4e0       ??_GItem_func_x@@UAEPAXI@Z 0047c4e0 f i item_create.obj
 0001:0007b500       ??_GItem_func_y@@UAEPAXI@Z 0047c500 f i item_create.obj
 0001:0007b500       ??_EItem_func_y@@UAEPAXI@Z 0047c500 f i item_create.obj
 0001:0007b520       ??_GItem_func_numgeometries@@UAEPAXI@Z 0047c520 f i item_create.obj
 0001:0007b520       ??_EItem_func_numgeometries@@UAEPAXI@Z 0047c520 f i item_create.obj
 0001:0007b540       ??_EItem_func_numinteriorring@@UAEPAXI@Z 0047c540 f i item_create.obj
 0001:0007b540       ??_GItem_func_numinteriorring@@UAEPAXI@Z 0047c540 f i item_create.obj
 0001:0007b560       ??_GItem_func_numpoints@@UAEPAXI@Z 0047c560 f i item_create.obj
 0001:0007b560       ??_EItem_func_numpoints@@UAEPAXI@Z 0047c560 f i item_create.obj
 0001:0007b580       ??_EItem_func_area@@UAEPAXI@Z 0047c580 f i item_create.obj
 0001:0007b580       ??_GItem_func_area@@UAEPAXI@Z 0047c580 f i item_create.obj
 0001:0007b5a0       ??_GItem_func_glength@@UAEPAXI@Z 0047c5a0 f i item_create.obj
 0001:0007b5a0       ??_EItem_func_glength@@UAEPAXI@Z 0047c5a0 f i item_create.obj
 0001:0007b5c0       ??_GItem_func_srid@@UAEPAXI@Z 0047c5c0 f i item_create.obj
 0001:0007b5c0       ??_EItem_func_srid@@UAEPAXI@Z 0047c5c0 f i item_create.obj
 0001:0007b5e0       ??_EItem_func_period_add@@UAEPAXI@Z 0047c5e0 f i item_create.obj
 0001:0007b5e0       ??_GItem_func_period_add@@UAEPAXI@Z 0047c5e0 f i item_create.obj
 0001:0007b620       ??_GItem_func_period_diff@@UAEPAXI@Z 0047c620 f i item_create.obj
 0001:0007b620       ??_EItem_func_period_diff@@UAEPAXI@Z 0047c620 f i item_create.obj
 0001:0007b660       ??_GItem_func_to_days@@UAEPAXI@Z 0047c660 f i item_create.obj
 0001:0007b660       ??_EItem_func_to_days@@UAEPAXI@Z 0047c660 f i item_create.obj
 0001:0007b6a0       ??_GItem_func_dayofmonth@@UAEPAXI@Z 0047c6a0 f i item_create.obj
 0001:0007b6a0       ??_EItem_func_dayofmonth@@UAEPAXI@Z 0047c6a0 f i item_create.obj
 0001:0007b6e0       ??_EItem_func_month@@UAEPAXI@Z 0047c6e0 f i item_create.obj
 0001:0007b6e0       ??_GItem_func_month@@UAEPAXI@Z 0047c6e0 f i item_create.obj
 0001:0007b720       ??_GItem_func_monthname@@UAEPAXI@Z 0047c720 f i item_create.obj
 0001:0007b720       ??_EItem_func_monthname@@UAEPAXI@Z 0047c720 f i item_create.obj
 0001:0007b760       ??_EItem_func_dayofyear@@UAEPAXI@Z 0047c760 f i item_create.obj
 0001:0007b760       ??_GItem_func_dayofyear@@UAEPAXI@Z 0047c760 f i item_create.obj
 0001:0007b7a0       ??_EItem_func_week@@UAEPAXI@Z 0047c7a0 f i item_create.obj
 0001:0007b7a0       ??_GItem_func_week@@UAEPAXI@Z 0047c7a0 f i item_create.obj
 0001:0007b7e0       ??_EItem_func_yearweek@@UAEPAXI@Z 0047c7e0 f i item_create.obj
 0001:0007b7e0       ??_GItem_func_yearweek@@UAEPAXI@Z 0047c7e0 f i item_create.obj
 0001:0007b820       ??_EItem_func_weekday@@UAEPAXI@Z 0047c820 f i item_create.obj
 0001:0007b820       ??_GItem_func_weekday@@UAEPAXI@Z 0047c820 f i item_create.obj
 0001:0007b860       ??_EItem_func_dayname@@UAEPAXI@Z 0047c860 f i item_create.obj
 0001:0007b860       ??_GItem_func_dayname@@UAEPAXI@Z 0047c860 f i item_create.obj
 0001:0007b8a0       ??_GItem_func_unix_timestamp@@UAEPAXI@Z 0047c8a0 f i item_create.obj
 0001:0007b8a0       ??_EItem_func_unix_timestamp@@UAEPAXI@Z 0047c8a0 f i item_create.obj
 0001:0007b8c0       ??_EItem_func_time_to_sec@@UAEPAXI@Z 0047c8c0 f i item_create.obj
 0001:0007b8c0       ??_GItem_func_time_to_sec@@UAEPAXI@Z 0047c8c0 f i item_create.obj
 0001:0007b900       ??_EItem_date@@UAEPAXI@Z   0047c900 f i item_create.obj
 0001:0007b900       ??_GItem_date@@UAEPAXI@Z   0047c900 f i item_create.obj
 0001:0007b940       ??_EItem_date_func@@UAEPAXI@Z 0047c940 f i item_create.obj
 0001:0007b940       ??_GItem_date_func@@UAEPAXI@Z 0047c940 f i item_create.obj
 0001:0007b980       ??_GItem_str_timefunc@@UAEPAXI@Z 0047c980 f i item_create.obj
 0001:0007b980       ??_EItem_str_timefunc@@UAEPAXI@Z 0047c980 f i item_create.obj
 0001:0007b9c0       ??_GItem_func_from_days@@UAEPAXI@Z 0047c9c0 f i item_create.obj
 0001:0007b9c0       ??_EItem_func_from_days@@UAEPAXI@Z 0047c9c0 f i item_create.obj
 0001:0007ba00       ??_GItem_func_date_format@@UAEPAXI@Z 0047ca00 f i item_create.obj
 0001:0007ba00       ??_EItem_func_date_format@@UAEPAXI@Z 0047ca00 f i item_create.obj
 0001:0007ba20       ??_EItem_func_from_unixtime@@UAEPAXI@Z 0047ca20 f i item_create.obj
 0001:0007ba20       ??_GItem_func_from_unixtime@@UAEPAXI@Z 0047ca20 f i item_create.obj
 0001:0007ba60       ??_GItem_func_convert_tz@@UAEPAXI@Z 0047ca60 f i item_create.obj
 0001:0007ba60       ??_EItem_func_convert_tz@@UAEPAXI@Z 0047ca60 f i item_create.obj
 0001:0007baa0       ??_GItem_func_sec_to_time@@UAEPAXI@Z 0047caa0 f i item_create.obj
 0001:0007baa0       ??_EItem_func_sec_to_time@@UAEPAXI@Z 0047caa0 f i item_create.obj
 0001:0007bae0       ??_EItem_typecast@@UAEPAXI@Z 0047cae0 f i item_create.obj
 0001:0007bae0       ??_GItem_typecast@@UAEPAXI@Z 0047cae0 f i item_create.obj
 0001:0007bb20       ??_EItem_typecast_maybe_null@@UAEPAXI@Z 0047cb20 f i item_create.obj
 0001:0007bb20       ??_GItem_typecast_maybe_null@@UAEPAXI@Z 0047cb20 f i item_create.obj
 0001:0007bb60       ??_EItem_char_typecast@@UAEPAXI@Z 0047cb60 f i item_create.obj
 0001:0007bb60       ??_GItem_char_typecast@@UAEPAXI@Z 0047cb60 f i item_create.obj
 0001:0007bb80       ??_EItem_date_typecast@@UAEPAXI@Z 0047cb80 f i item_create.obj
 0001:0007bb80       ??_GItem_date_typecast@@UAEPAXI@Z 0047cb80 f i item_create.obj
 0001:0007bbc0       ??_EItem_time_typecast@@UAEPAXI@Z 0047cbc0 f i item_create.obj
 0001:0007bbc0       ??_GItem_time_typecast@@UAEPAXI@Z 0047cbc0 f i item_create.obj
 0001:0007bc00       ??_GItem_datetime_typecast@@UAEPAXI@Z 0047cc00 f i item_create.obj
 0001:0007bc00       ??_EItem_datetime_typecast@@UAEPAXI@Z 0047cc00 f i item_create.obj
 0001:0007bc40       ??_EItem_func_makedate@@UAEPAXI@Z 0047cc40 f i item_create.obj
 0001:0007bc40       ??_GItem_func_makedate@@UAEPAXI@Z 0047cc40 f i item_create.obj
 0001:0007bc80       ??_EItem_func_add_time@@UAEPAXI@Z 0047cc80 f i item_create.obj
 0001:0007bc80       ??_GItem_func_add_time@@UAEPAXI@Z 0047cc80 f i item_create.obj
 0001:0007bcc0       ??_GItem_func_timediff@@UAEPAXI@Z 0047ccc0 f i item_create.obj
 0001:0007bcc0       ??_EItem_func_timediff@@UAEPAXI@Z 0047ccc0 f i item_create.obj
 0001:0007bd00       ??_EItem_func_maketime@@UAEPAXI@Z 0047cd00 f i item_create.obj
 0001:0007bd00       ??_GItem_func_maketime@@UAEPAXI@Z 0047cd00 f i item_create.obj
 0001:0007bd40       ??_EItem_func_str_to_date@@UAEPAXI@Z 0047cd40 f i item_create.obj
 0001:0007bd40       ??_GItem_func_str_to_date@@UAEPAXI@Z 0047cd40 f i item_create.obj
 0001:0007bd80       ??_EItem_func_last_day@@UAEPAXI@Z 0047cd80 f i item_create.obj
 0001:0007bd80       ??_GItem_func_last_day@@UAEPAXI@Z 0047cd80 f i item_create.obj
 0001:0007bdc0       ??_EItem_xml_str_func@@UAEPAXI@Z 0047cdc0 f i item_create.obj
 0001:0007bdc0       ??_GItem_xml_str_func@@UAEPAXI@Z 0047cdc0 f i item_create.obj
 0001:0007bde0       ??_GItem_func_xml_extractvalue@@UAEPAXI@Z 0047cde0 f i item_create.obj
 0001:0007bde0       ??_EItem_func_xml_extractvalue@@UAEPAXI@Z 0047cde0 f i item_create.obj
 0001:0007be00       ??_GItem_func_xml_update@@UAEPAXI@Z 0047ce00 f i item_create.obj
 0001:0007be00       ??_EItem_func_xml_update@@UAEPAXI@Z 0047ce00 f i item_create.obj
 0001:0007be50       ?create@Create_udf_func@@UAEPAVItem@@PAVTHD@@Ust_mysql_lex_string@@PAV?$List@VItem@@@@@Z 0047ce50 f   item_create.obj
 0001:0007be90       ?create@Create_sp_func@@UAEPAVItem@@PAVTHD@@Ust_mysql_lex_string@@1_NPAV?$List@VItem@@@@@Z 0047ce90 f   item_create.obj
 0001:0007bfe0       ?create@Create_native_func@@UAEPAVItem@@PAVTHD@@Ust_mysql_lex_string@@PAV?$List@VItem@@@@@Z 0047cfe0 f   item_create.obj
 0001:0007c040       ?create@Create_func_bin@@UAEPAVItem@@PAVTHD@@PAV2@@Z 0047d040 f   item_create.obj
 0001:0007c130       ?create@Create_func_cot@@UAEPAVItem@@PAVTHD@@PAV2@@Z 0047d130 f   item_create.obj
 0001:0007c250       ?create@Create_func_oct@@UAEPAVItem@@PAVTHD@@PAV2@@Z 0047d250 f   item_create.obj
 0001:0007c340       ?create@Create_func_pi@@UAEPAVItem@@PAVTHD@@@Z 0047d340 f   item_create.obj
 0001:0007c3c0       ?create_native@Create_func_round@@UAEPAVItem@@PAVTHD@@Ust_mysql_lex_string@@PAV?$List@VItem@@@@@Z 0047d3c0 f   item_create.obj
 0001:0007c590       ?create@Create_func_weekofyear@@UAEPAVItem@@PAVTHD@@PAV2@@Z 0047d590 f   item_create.obj
 0001:0007c640       ?create_native@Create_func_year_week@@UAEPAVItem@@PAVTHD@@Ust_mysql_lex_string@@PAV?$List@VItem@@@@@Z 0047d640 f   item_create.obj
 0001:0007c7f0       ?is_set@?$Bitmap@$0EA@@@QBEDI@Z 0047d7f0 f i item_func.obj
 0001:0007c830       ??0Discrete_intervals_list@@QAE@XZ 0047d830 f i item_func.obj
 0001:0007c840       ??1Discrete_intervals_list@@QAE@XZ 0047d840 f i item_func.obj
 0001:0007c850       ??3String@@SAXPAXI@Z       0047d850 f i item_func.obj
 0001:0007c860       ??AString@@QBEAADI@Z       0047d860 f i item_func.obj
 0001:0007c870       ?my_decimal_floor@@YAHIPBVmy_decimal@@PAV1@@Z 0047d870 f i item_func.obj
 0001:0007c8b0       ?my_decimal_ceiling@@YAHIPBVmy_decimal@@PAV1@@Z 0047d8b0 f i item_func.obj
 0001:0007c8f0       ?my_decimal_sub@@YAHIPAVmy_decimal@@PBV1@1@Z 0047d8f0 f i item_func.obj
 0001:0007c960       ?my_decimal_mul@@YAHIPAVmy_decimal@@PBV1@1@Z 0047d960 f i item_func.obj
 0001:0007c9d0       ?my_decimal_mod@@YAHIPAVmy_decimal@@PBV1@1@Z 0047d9d0 f i item_func.obj
 0001:0007ca40       ?my_decimal_intg@@YAHPBVmy_decimal@@@Z 0047da40 f i item_func.obj
 0001:0007ca50       ?move_field@Field@@QAEXPAE@Z 0047da50 f i item_func.obj
 0001:0007ca60       ??0Field_long@@QAE@I_NPBD0@Z 0047da60 f i item_func.obj
 0001:0007cab0       ??0Field_longlong@@QAE@I_NPBD0@Z 0047dab0 f i item_func.obj
 0001:0007cb00       ?agg_arg_collations_for_comparison@Item_func@@QAE_NAAVDTCollation@@PAPAVItem@@II@Z 0047db00 f i item_func.obj
 0001:0007cb40       ?fix_result@Item_func@@QAENN@Z 0047db40 f i item_func.obj
 0001:0007cb80       ?get_name@Item_func_get_user_var@@QAE?AUst_mysql_lex_string@@XZ 0047db80 f i item_func.obj
 0001:0007cba0       ??1?$List@VKey_part_spec@@@@QAE@XZ 0047dba0 f i item_func.obj
 0001:0007cbb0       ?is_written_to_binlog@sys_var@@QAE_NW4enum_var_type@@@Z 0047dbb0 f i item_func.obj
 0001:0007cbe0       ??0set_var_base@@QAE@XZ    0047dbe0 f i item_func.obj
 0001:0007cbf0       ??1set_var_base@@UAE@XZ    0047dbf0 f i item_func.obj
 0001:0007cc00       ?light_check@set_var_base@@UAEHPAVTHD@@@Z 0047dc00 f i item_func.obj
 0001:0007cc10       ?no_support_one_shot@set_var_base@@UAE_NXZ 0047dc10 f i item_func.obj
 0001:0007cc20       ??_Gset_var_base@@UAEPAXI@Z 0047dc20 f i item_func.obj
 0001:0007cc20       ??_Eset_var_base@@UAEPAXI@Z 0047dc20 f i item_func.obj
 0001:0007cc30       ??0set_var_user@@QAE@PAVItem_func_set_user_var@@@Z 0047dc30 f i item_func.obj
 0001:0007cc50       ??1set_var_user@@UAE@XZ    0047dc50 f i item_func.obj
 0001:0007cc60       ??1st_select_lex_node@@UAE@XZ 0047dc60 f i item_func.obj
 0001:0007cc70       ??3st_select_lex_node@@SAXPAXI@Z 0047dc70 f i item_func.obj
 0001:0007cc80       ?set_lock_for_tables@st_select_lex_node@@UAEXW4thr_lock_type@@@Z 0047dc80 f i item_func.obj
 0001:0007cc90       ??_Est_select_lex_node@@UAEPAXI@Z 0047dc90 f i item_func.obj
 0001:0007cc90       ??_Gst_select_lex_node@@UAEPAXI@Z 0047dc90 f i item_func.obj
 0001:0007cca0       ??1Name_resolution_context@@QAE@XZ 0047dca0 f i item_func.obj
 0001:0007ccb0       ??1?$List@VItem_func_match@@@@QAE@XZ 0047dcb0 f i item_func.obj
 0001:0007ccc0       ??1?$List@UTABLE_LIST@@@@QAE@XZ 0047dcc0 f i item_func.obj
 0001:0007ccd0       ??1?$List@VItem_outer_ref@@@@QAE@XZ 0047dcd0 f i item_func.obj
 0001:0007cce0       ??1?$List@Ust_udf_func@@@@QAE@XZ 0047dce0 f i item_func.obj
 0001:0007ccf0       ??1?$List@VAlter_drop@@@@QAE@XZ 0047dcf0 f i item_func.obj
 0001:0007cd00       ??1?$List@VAlter_column@@@@QAE@XZ 0047dd00 f i item_func.obj
 0001:0007cd10       ??1?$List@VKey@@@@QAE@XZ   0047dd10 f i item_func.obj
 0001:0007cd20       ??1?$List@VCreate_field@@@@QAE@XZ 0047dd20 f i item_func.obj
 0001:0007cd30       ??1Query_tables_list@@QAE@XZ 0047dd30 f i item_func.obj
 0001:0007cd40       ??1st_select_lex_unit@@UAE@XZ 0047dd40 f i item_func.obj
 0001:0007cd50       ??1?$List@Ust_lex_user@@@@QAE@XZ 0047dd50 f i item_func.obj
 0001:0007cd60       ??1?$List@VLEX_COLUMN@@@@QAE@XZ 0047dd60 f i item_func.obj
 0001:0007cd70       ??1?$List@V?$List@VItem@@@@@@QAE@XZ 0047dd70 f i item_func.obj
 0001:0007cd80       ??1?$List@Vset_var_base@@@@QAE@XZ 0047dd80 f i item_func.obj
 0001:0007cd90       ??1?$List@VItem_func_set_user_var@@@@QAE@XZ 0047dd90 f i item_func.obj
 0001:0007cda0       ??1?$List@VItem_param@@@@QAE@XZ 0047dda0 f i item_func.obj
 0001:0007cdb0       ??1?$List@Ust_mysql_lex_string@@@@QAE@XZ 0047ddb0 f i item_func.obj
 0001:0007cdc0       ??1?$List@UName_resolution_context@@@@QAE@XZ 0047ddc0 f i item_func.obj
 0001:0007cdd0       ??1Alter_info@@QAE@XZ      0047ddd0 f i item_func.obj
 0001:0007cde0       ?read_first_successful_insert_id_in_prev_stmt@THD@@QAE_KXZ 0047dde0 f i item_func.obj
 0001:0007ce20       ?found_rows@THD@@QAE_KXZ   0047de20 f i item_func.obj
 0001:0007ce30       ?killed_errno@THD@@QBEHXZ  0047de30 f i item_func.obj
 0001:0007ce50       ?send_kill_message@THD@@QBEXXZ 0047de50 f i item_func.obj
 0001:0007cf40       ?check_reserved_words@@YA_NPAUst_mysql_lex_string@@@Z 0047df40 f   item_func.obj
 0001:0007cfc0       ?eval_const_cond@@YA_NPAVItem@@@Z 0047dfc0 f   item_func.obj
 0001:0007cfe0       ?fix_fields@Item_func@@UAE_NPAVTHD@@PAPAVItem@@@Z 0047dfe0 f   item_func.obj
 0001:0007d190       ?walk@Item_func@@UAE_NP8Item@@AE_NPAE@Z_N0@Z 0047e190 f   item_func.obj
 0001:0007d210       ?traverse_cond@Item_func@@UAEXP6AXPBVItem@@PAX@Z1W4traverse_order@2@@Z 0047e210 f   item_func.obj
 0001:0007d2f0       ?transform@Item_func@@UAEPAVItem@@P82@AEPAV2@PAE@Z0@Z 0047e2f0 f   item_func.obj
 0001:0007d3b0       ?compile@Item_func@@UAEPAVItem@@P82@AE_NPAPAE@Z0P82@AEPAV2@PAE@Z2@Z 0047e3b0 f   item_func.obj
 0001:0007d4a0       ?split_sum_func@Item_func@@UAEXPAVTHD@@PAPAVItem@@AAV?$List@VItem@@@@@Z 0047e4a0 f   item_func.obj
 0001:0007d4f0       ?update_used_tables@Item_func@@UAEXXZ 0047e4f0 f   item_func.obj
 0001:0007d560       ?used_tables@Item_func@@UBE_KXZ 0047e560 f   item_func.obj
 0001:0007d570       ?not_null_tables@Item_func@@UBE_KXZ 0047e570 f   item_func.obj
 0001:0007d580       ?print_args@Item_func@@QAEXPAVString@@IW4enum_query_type@@@Z 0047e580 f   item_func.obj
 0001:0007d620       ?print_op@Item_func@@QAEXPAVString@@W4enum_query_type@@@Z 0047e620 f   item_func.obj
 0001:0007d7a0       ?eq@Item_func@@UBE_NPBVItem@@_N@Z 0047e7a0 f   item_func.obj
 0001:0007d8d0       ?is_expensive_processor@Item_func@@UAE_NPAE@Z 0047e8d0 f   item_func.obj
 0001:0007d8e0       ?val_decimal@Item_func@@UAEPAVmy_decimal@@PAV2@@Z 0047e8e0 f   item_func.obj
 0001:0007d930       ?val_str@Item_real_func@@UAEPAVString@@PAV2@@Z 0047e930 f   item_func.obj
 0001:0007d980       ?val_decimal@Item_real_func@@UAEPAVmy_decimal@@PAV2@@Z 0047e980 f   item_func.obj
 0001:0007d9c0       ?fix_num_length_and_dec@Item_func@@UAEXXZ 0047e9c0 f   item_func.obj
 0001:0007da40       ?fix_num_length_and_dec@Item_func_numhybrid@@UAEXXZ 0047ea40 f   item_func.obj
 0001:0007da50       ?count_decimal_length@Item_func@@QAEXXZ 0047ea50 f   item_func.obj
 0001:0007db70       ?count_only_length@Item_func@@QAEXXZ 0047eb70 f   item_func.obj
 0001:0007dbc0       ?count_real_length@Item_func@@QAEXXZ 0047ebc0 f   item_func.obj
 0001:0007dc70       ?signal_divide_by_null@Item_func@@QAEXXZ 0047ec70 f   item_func.obj
 0001:0007dcd0       ?get_tmp_table_item@Item_func@@UAEPAVItem@@PAVTHD@@@Z 0047ecd0 f   item_func.obj
 0001:0007dd50       ?val_real@Item_int_func@@UAENXZ 0047ed50 f   item_func.obj
 0001:0007ddb0       ?val_str@Item_int_func@@UAEPAVString@@PAV2@@Z 0047edb0 f   item_func.obj
 0001:0007de00       ?fix_length_and_dec@Item_func_connection_id@@UAEXXZ 0047ee00 f   item_func.obj
 0001:0007de10       ?fix_fields@Item_func_connection_id@@UAE_NPAVTHD@@PAPAVItem@@@Z 0047ee10 f   item_func.obj
 0001:0007de70       ?find_num_type@Item_num_op@@UAEXXZ 0047ee70 f   item_func.obj
 0001:0007df50       ?find_num_type@Item_func_num1@@UAEXXZ 0047ef50 f   item_func.obj
 0001:0007dfe0       ?fix_num_length_and_dec@Item_func_num1@@UAEXXZ 0047efe0 f   item_func.obj
 0001:0007e000       ?fix_length_and_dec@Item_func_numhybrid@@UAEXXZ 0047f000 f   item_func.obj
 0001:0007e020       ?val_str@Item_func_numhybrid@@UAEPAVString@@PAV2@@Z 0047f020 f   item_func.obj
 0001:0007e190       ?val_real@Item_func_numhybrid@@UAENXZ 0047f190 f   item_func.obj
 0001:0007e2f0       ?val_int@Item_func_numhybrid@@UAE_JXZ 0047f2f0 f   item_func.obj
 0001:0007e420       ?val_decimal@Item_func_numhybrid@@UAEPAVmy_decimal@@PAV2@@Z 0047f420 f   item_func.obj
 0001:0007e510       ?print@Item_func_signed@@UAEXPAVString@@W4enum_query_type@@@Z 0047f510 f   item_func.obj
 0001:0007e560       ?print@Item_func_unsigned@@UAEXPAVString@@W4enum_query_type@@@Z 0047f560 f   item_func.obj
 0001:0007e5b0       ?val_str@Item_decimal_typecast@@UAEPAVString@@PAV2@@Z 0047f5b0 f   item_func.obj
 0001:0007e620       ?val_real@Item_decimal_typecast@@UAENXZ 0047f620 f   item_func.obj
 0001:0007e680       ?val_int@Item_decimal_typecast@@UAE_JXZ 0047f680 f   item_func.obj
 0001:0007e6f0       ?val_decimal@Item_decimal_typecast@@UAEPAVmy_decimal@@PAV2@@Z 0047f6f0 f   item_func.obj
 0001:0007e860       ?print@Item_decimal_typecast@@UAEXPAVString@@W4enum_query_type@@@Z 0047f860 f   item_func.obj
 0001:0007ea00       ?real_op@Item_func_plus@@UAENXZ 0047fa00 f   item_func.obj
 0001:0007eaa0       ?int_op@Item_func_plus@@UAE_JXZ 0047faa0 f   item_func.obj
 0001:0007eb20       ?decimal_op@Item_func_plus@@UAEPAVmy_decimal@@PAV2@@Z 0047fb20 f   item_func.obj
 0001:0007ec00       ?result_precision@Item_func_additive_op@@UAEXXZ 0047fc00 f   item_func.obj
 0001:0007ed10       ?fix_length_and_dec@Item_func_minus@@UAEXXZ 0047fd10 f   item_func.obj
 0001:0007ed50       ?real_op@Item_func_minus@@UAENXZ 0047fd50 f   item_func.obj
 0001:0007edf0       ?int_op@Item_func_minus@@UAE_JXZ 0047fdf0 f   item_func.obj
 0001:0007ee60       ?decimal_op@Item_func_minus@@UAEPAVmy_decimal@@PAV2@@Z 0047fe60 f   item_func.obj
 0001:0007ef40       ?real_op@Item_func_mul@@UAENXZ 0047ff40 f   item_func.obj
 0001:0007efe0       ?int_op@Item_func_mul@@UAE_JXZ 0047ffe0 f   item_func.obj
 0001:0007f050       ?decimal_op@Item_func_mul@@UAEPAVmy_decimal@@PAV2@@Z 00480050 f   item_func.obj
 0001:0007f130       ?result_precision@Item_func_mul@@UAEXXZ 00480130 f   item_func.obj
 0001:0007f240       ?real_op@Item_func_div@@UAENXZ 00480240 f   item_func.obj
 0001:0007f300       ?decimal_op@Item_func_div@@UAEPAVmy_decimal@@PAV2@@Z 00480300 f   item_func.obj
 0001:0007f3e0       ?result_precision@Item_func_div@@UAEXXZ 004803e0 f   item_func.obj
 0001:0007f500       ?fix_length_and_dec@Item_func_div@@UAEXXZ 00480500 f   item_func.obj
 0001:0007f610       ?val_int@Item_func_int_div@@UAE_JXZ 00480610 f   item_func.obj
 0001:0007f6b0       ?fix_length_and_dec@Item_func_int_div@@UAEXXZ 004806b0 f   item_func.obj
 0001:0007f710       ?int_op@Item_func_mod@@UAE_JXZ 00480710 f   item_func.obj
 0001:0007f7c0       ?real_op@Item_func_mod@@UAENXZ 004807c0 f   item_func.obj
 0001:0007f860       ?decimal_op@Item_func_mod@@UAEPAVmy_decimal@@PAV2@@Z 00480860 f   item_func.obj
 0001:0007f930       ?result_precision@Item_func_mod@@UAEXXZ 00480930 f   item_func.obj
 0001:0007f980       ?fix_length_and_dec@Item_func_mod@@UAEXXZ 00480980 f   item_func.obj
 0001:0007f9a0       ?real_op@Item_func_neg@@UAENXZ 004809a0 f   item_func.obj
 0001:0007f9d0       ?int_op@Item_func_neg@@UAE_JXZ 004809d0 f   item_func.obj
 0001:0007fa00       ?decimal_op@Item_func_neg@@UAEPAVmy_decimal@@PAV2@@Z 00480a00 f   item_func.obj
 0001:0007fab0       ?fix_num_length_and_dec@Item_func_neg@@UAEXXZ 00480ab0 f   item_func.obj
 0001:0007fad0       ?fix_length_and_dec@Item_func_neg@@UAEXXZ 00480ad0 f   item_func.obj
 0001:0007fb60       ?real_op@Item_func_abs@@UAENXZ 00480b60 f   item_func.obj
 0001:0007fb90       ?int_op@Item_func_abs@@UAE_JXZ 00480b90 f   item_func.obj
 0001:0007fbe0       ?decimal_op@Item_func_abs@@UAEPAVmy_decimal@@PAV2@@Z 00480be0 f   item_func.obj
 0001:0007fc90       ?fix_length_and_dec@Item_func_abs@@UAEXXZ 00480c90 f   item_func.obj
 0001:0007fcb0       ?val_real@Item_func_ln@@UAENXZ 00480cb0 f   item_func.obj
 0001:0007fd10       ?val_real@Item_func_log@@UAENXZ 00480d10 f   item_func.obj
 0001:0007fde0       ?val_real@Item_func_log2@@UAENXZ 00480de0 f   item_func.obj
 0001:0007fe40       ?val_real@Item_func_log10@@UAENXZ 00480e40 f   item_func.obj
 0001:0007fea0       ?val_real@Item_func_exp@@UAENXZ 00480ea0 f   item_func.obj
 0001:0007ff10       ?val_real@Item_func_sqrt@@UAENXZ 00480f10 f   item_func.obj
 0001:0007ff60       ?val_real@Item_func_pow@@UAENXZ 00480f60 f   item_func.obj
 0001:00080010       ?val_real@Item_func_acos@@UAENXZ 00481010 f   item_func.obj
 0001:00080090       ?val_real@Item_func_asin@@UAENXZ 00481090 f   item_func.obj
 0001:00080110       ?val_real@Item_func_atan@@UAENXZ 00481110 f   item_func.obj
 0001:000801b0       ?val_real@Item_func_cos@@UAENXZ 004811b0 f   item_func.obj
 0001:000801f0       ?val_real@Item_func_sin@@UAENXZ 004811f0 f   item_func.obj
 0001:00080230       ?val_real@Item_func_tan@@UAENXZ 00481230 f   item_func.obj
 0001:000802a0       ?val_int@Item_func_shift_left@@UAE_JXZ 004812a0 f   item_func.obj
 0001:00080310       ?val_int@Item_func_shift_right@@UAE_JXZ 00481310 f   item_func.obj
 0001:00080380       ?val_int@Item_func_bit_neg@@UAE_JXZ 00481380 f   item_func.obj
 0001:000803c0       ?fix_length_and_dec@Item_func_integer@@UAEXXZ 004813c0 f   item_func.obj
 0001:00080410       ?fix_num_length_and_dec@Item_func_int_val@@UAEXXZ 00481410 f   item_func.obj
 0001:00080470       ?find_num_type@Item_func_int_val@@UAEXXZ 00481470 f   item_func.obj
 0001:00080530       ?real_op@Item_func_ceiling@@UAENXZ 00481530 f   item_func.obj
 0001:00080580       ?decimal_op@Item_func_ceiling@@UAEPAVmy_decimal@@PAV2@@Z 00481580 f   item_func.obj
 0001:00080630       ?real_op@Item_func_floor@@UAENXZ 00481630 f   item_func.obj
 0001:00080680       ?decimal_op@Item_func_floor@@UAEPAVmy_decimal@@PAV2@@Z 00481680 f   item_func.obj
 0001:00080730       ?fix_length_and_dec@Item_func_round@@UAEXXZ 00481730 f   item_func.obj
 0001:000809c0       ?my_double_round@@YANN_J_N1@Z 004819c0 f   item_func.obj
 0001:00080c70       ?real_op@Item_func_round@@UAENXZ 00481c70 f   item_func.obj
 0001:00080d60       ?int_op@Item_func_round@@UAE_JXZ 00481d60 f   item_func.obj
 0001:00080ef0       ?decimal_op@Item_func_round@@UAEPAVmy_decimal@@PAV2@@Z 00481ef0 f   item_func.obj
 0001:00081030       ?seed_random@Item_func_rand@@AAEXPAVItem@@@Z 00482030 f   item_func.obj
 0001:00081080       ?fix_fields@Item_func_rand@@UAE_NPAVTHD@@PAPAVItem@@@Z 00482080 f   item_func.obj
 0001:00081170       ?update_used_tables@Item_func_rand@@UAEXXZ 00482170 f   item_func.obj
 0001:00081190       ?val_real@Item_func_rand@@UAENXZ 00482190 f   item_func.obj
 0001:000811e0       ?val_int@Item_func_sign@@UAE_JXZ 004821e0 f   item_func.obj
 0001:00081240       ?val_real@Item_func_units@@UAENXZ 00482240 f   item_func.obj
 0001:00081280       ?fix_length_and_dec@Item_func_min_max@@UAEXXZ 00482280 f   item_func.obj
 0001:000814d0       ?cmp_datetimes@Item_func_min_max@@QAEIPA_K@Z 004824d0 f   item_func.obj
 0001:00081600       ?val_str@Item_func_min_max@@UAEPAVString@@PAV2@@Z 00482600 f   item_func.obj
 0001:00081830       ?val_real@Item_func_min_max@@UAENXZ 00482830 f   item_func.obj
 0001:00081960       ?val_int@Item_func_min_max@@UAE_JXZ 00482960 f   item_func.obj
 0001:00081a40       ?val_decimal@Item_func_min_max@@UAEPAVmy_decimal@@PAV2@@Z 00482a40 f   item_func.obj
 0001:00081b90       ?val_int@Item_func_length@@UAE_JXZ 00482b90 f   item_func.obj
 0001:00081bd0       ?val_int@Item_func_char_length@@UAE_JXZ 00482bd0 f   item_func.obj
 0001:00081c10       ?val_int@Item_func_coercibility@@UAE_JXZ 00482c10 f   item_func.obj
 0001:00081c30       ?fix_length_and_dec@Item_func_locate@@UAEXXZ 00482c30 f   item_func.obj
 0001:00081c70       ?val_int@Item_func_locate@@UAE_JXZ 00482c70 f   item_func.obj
 0001:00081df0       ?print@Item_func_locate@@UAEXPAVString@@W4enum_query_type@@@Z 00482df0 f   item_func.obj
 0001:00081f20       ?val_int@Item_func_field@@UAE_JXZ 00482f20 f   item_func.obj
 0001:000821a0       ?fix_length_and_dec@Item_func_field@@UAEXXZ 004831a0 f   item_func.obj
 0001:00082260       ?val_int@Item_func_ascii@@UAE_JXZ 00483260 f   item_func.obj
 0001:000822b0       ?val_int@Item_func_ord@@UAE_JXZ 004832b0 f   item_func.obj
 0001:00082360       ?fix_length_and_dec@Item_func_find_in_set@@UAEXXZ 00483360 f   item_func.obj
 0001:00082480       ?val_int@Item_func_find_in_set@@UAE_JXZ 00483480 f   item_func.obj
 0001:00082690       ?val_int@Item_func_bit_count@@UAE_JXZ 00483690 f   item_func.obj
 0001:000826d0       ?fix_fields@udf_handler@@QAE_NPAVTHD@@PAVItem_result_field@@IPAPAVItem@@@Z 004836d0 f   item_func.obj
 0001:00082d10       ?get_arguments@udf_handler@@QAE_NXZ 00483d10 f   item_func.obj
 0001:00082e20       ?val_decimal@udf_handler@@QAEPAVmy_decimal@@PADPAV2@@Z 00483e20 f   item_func.obj
 0001:00082f20       ?print@Item_udf_func@@UAEXPAVString@@W4enum_query_type@@@Z 00483f20 f   item_func.obj
 0001:00083030       ?val_str@Item_func_udf_float@@UAEPAVString@@PAV2@@Z 00484030 f   item_func.obj
 0001:00083080       ?val_str@Item_func_udf_int@@UAEPAVString@@PAV2@@Z 00484080 f   item_func.obj
 0001:000830d0       ?val_int@Item_func_udf_decimal@@UAE_JXZ 004840d0 f   item_func.obj
 0001:00083150       ?val_real@Item_func_udf_decimal@@UAENXZ 00484150 f   item_func.obj
 0001:000831b0       ?val_decimal@Item_func_udf_decimal@@UAEPAVmy_decimal@@PAV2@@Z 004841b0 f   item_func.obj
 0001:000831d0       ?val_str@Item_func_udf_decimal@@UAEPAVString@@PAV2@@Z 004841d0 f   item_func.obj
 0001:00083280       ?fix_length_and_dec@Item_func_udf_decimal@@UAEXXZ 00484280 f   item_func.obj
 0001:00083290       ?fix_length_and_dec@Item_func_udf_str@@UAEXXZ 00484290 f   item_func.obj
 0001:000832d0       ??1udf_handler@@QAE@XZ     004842d0 f   item_func.obj
 0001:000832e0       ?set_thread@User_level_lock@@QAEXPAVTHD@@@Z 004842e0 f i item_func.obj
 0001:00083300       ??0User_level_lock@@QAE@PBEIK@Z 00484300 f i item_func.obj
 0001:00083380       ??1User_level_lock@@QAE@XZ 00484380 f i item_func.obj
 0001:000833c0       ?initialized@User_level_lock@@QAE_NXZ 004843c0 f i item_func.obj
 0001:000833d0       ?ull_get_key@@YAPAEPBVUser_level_lock@@PAID@Z 004843d0 f   item_func.obj
 0001:000833f0       ?item_user_lock_init@@YAXXZ 004843f0 f   item_func.obj
 0001:00083440       ?item_user_lock_free@@YAXXZ 00484440 f   item_func.obj
 0001:00083480       ??_GUser_level_lock@@QAEPAXI@Z 00484480 f i item_func.obj
 0001:000834d0       ?val_int@Item_master_pos_wait@@UAE_JXZ 004844d0 f   item_func.obj
 0001:000835a0       ?val_int@Item_func_last_insert_id@@UAE_JXZ 004845a0 f   item_func.obj
 0001:00083650       ?fix_fields@Item_func_last_insert_id@@UAE_NPAVTHD@@PAPAVItem@@@Z 00484650 f   item_func.obj
 0001:00083680       ?print@Item_func_benchmark@@UAEXPAVString@@W4enum_query_type@@@Z 00484680 f   item_func.obj
 0001:00083760       ?val_int@Item_func_sleep@@UAE_JXZ 00484760 f   item_func.obj
 0001:00083a70       ?cleanup@Item_func_set_user_var@@UAEXXZ 00484a70 f   item_func.obj
 0001:00083a90       ?set_entry@Item_func_set_user_var@@QAE_NPAVTHD@@_N@Z 00484a90 f   item_func.obj
 0001:00083b30       ?fix_fields@Item_func_set_user_var@@UAE_NPAVTHD@@PAPAVItem@@@Z 00484b30 f   item_func.obj
 0001:00083c20       ?fix_length_and_dec@Item_func_set_user_var@@UAEXXZ 00484c20 f   item_func.obj
 0001:00083c70       ?register_field_in_read_map@Item_func_set_user_var@@UAE_NPAE@Z 00484c70 f   item_func.obj
 0001:00083e10       ?update_hash@Item_func_set_user_var@@QAE_NPAXIW4Item_result@@PAUcharset_info_st@@W4Derivation@@_N@Z 00484e10 f   item_func.obj
 0001:00083ed0       ?val_real@user_var_entry@@QAENPAD@Z 00484ed0 f   item_func.obj
 0001:00083f80       ?val_int@user_var_entry@@QBE_JPAD@Z 00484f80 f   item_func.obj
 0001:00084050       ?val_str@user_var_entry@@QAEPAVString@@PADPAV2@I@Z 00485050 f   item_func.obj
 0001:00084170       ?val_decimal@user_var_entry@@QAEPAVmy_decimal@@PADPAV2@@Z 00485170 f   item_func.obj
 0001:00084260       ?check@Item_func_set_user_var@@QAE_N_N@Z 00485260 f   item_func.obj
 0001:000843f0       ?update@Item_func_set_user_var@@QAE_NXZ 004853f0 f   item_func.obj
 0001:000844f0       ?val_real@Item_func_set_user_var@@UAENXZ 004854f0 f   item_func.obj
 0001:00084520       ?val_int@Item_func_set_user_var@@UAE_JXZ 00485520 f   item_func.obj
 0001:00084550       ?val_str@Item_func_set_user_var@@UAEPAVString@@PAV2@@Z 00485550 f   item_func.obj
 0001:00084590       ?val_decimal@Item_func_set_user_var@@UAEPAVmy_decimal@@PAV2@@Z 00485590 f   item_func.obj
 0001:000845d0       ?val_result@Item_func_set_user_var@@UAENXZ 004855d0 f   item_func.obj
 0001:00084600       ?val_int_result@Item_func_set_user_var@@UAE_JXZ 00485600 f   item_func.obj
 0001:00084630       ?str_result@Item_func_set_user_var@@UAEPAVString@@PAV2@@Z 00485630 f   item_func.obj
 0001:00084670       ?val_decimal_result@Item_func_set_user_var@@UAEPAVmy_decimal@@PAV2@@Z 00485670 f   item_func.obj
 0001:000846b0       ?is_null_result@Item_func_set_user_var@@UAE_NXZ 004856b0 f   item_func.obj
 0001:000846e0       ?print@Item_func_set_user_var@@UAEXPAVString@@W4enum_query_type@@@Z 004856e0 f   item_func.obj
 0001:00084790       ?print_as_stmt@Item_func_set_user_var@@QAEXPAVString@@W4enum_query_type@@@Z 00485790 f   item_func.obj
 0001:00084840       ?send@Item_func_set_user_var@@UAE_NPAVProtocol@@PAVString@@@Z 00485840 f   item_func.obj
 0001:00084890       ?make_field@Item_func_set_user_var@@UAEXPAVSend_field@@@Z 00485890 f   item_func.obj
 0001:000848e0       ?save_in_field@Item_func_set_user_var@@QAEHPAVField@@_N1@Z 004858e0 f   item_func.obj
 0001:00084b90       ?val_str@Item_func_get_user_var@@UAEPAVString@@PAV2@@Z 00485b90 f   item_func.obj
 0001:00084bc0       ?val_real@Item_func_get_user_var@@UAENXZ 00485bc0 f   item_func.obj
 0001:00084be0       ?val_decimal@Item_func_get_user_var@@UAEPAVmy_decimal@@PAV2@@Z 00485be0 f   item_func.obj
 0001:00084c10       ?val_int@Item_func_get_user_var@@UAE_JXZ 00485c10 f   item_func.obj
 0001:00084c40       ?const_item@Item_func_get_user_var@@UBE_NXZ 00485c40 f   item_func.obj
 0001:00084c90       ?result_type@Item_func_get_user_var@@UBE?AW4Item_result@@XZ 00485c90 f   item_func.obj
 0001:00084ca0       ?print@Item_func_get_user_var@@UAEXPAVString@@W4enum_query_type@@@Z 00485ca0 f   item_func.obj
 0001:00084d20       ?eq@Item_func_get_user_var@@UBE_NPBVItem@@_N@Z 00485d20 f   item_func.obj
 0001:00084e70       ?fix_fields@Item_user_var_as_out_param@@UAE_NPAVTHD@@PAPAVItem@@@Z 00485e70 f   item_func.obj
 0001:00084f10       ?set_null_value@Item_user_var_as_out_param@@QAEXPAUcharset_info_st@@@Z 00485f10 f   item_func.obj
 0001:00084f70       ?set_value@Item_user_var_as_out_param@@QAEXPBDIPAUcharset_info_st@@@Z 00485f70 f   item_func.obj
 0001:00084fd0       ?val_real@Item_user_var_as_out_param@@UAENXZ 00485fd0 f   item_func.obj
 0001:00084fe0       ?val_int@Item_user_var_as_out_param@@UAE_JXZ 00485fe0 f   item_func.obj
 0001:00084ff0       ?val_str@Item_user_var_as_out_param@@UAEPAVString@@PAV2@@Z 00485ff0 f   item_func.obj
 0001:00085000       ?val_decimal@Item_user_var_as_out_param@@UAEPAVmy_decimal@@PAV2@@Z 00486000 f   item_func.obj
 0001:00085010       ?print@Item_user_var_as_out_param@@UAEXPAVString@@W4enum_query_type@@@Z 00486010 f   item_func.obj
 0001:00085070       ?is_written_to_binlog@Item_func_get_system_var@@QAE_NXZ 00486070 f   item_func.obj
 0001:000850a0       ?fix_length_and_dec@Item_func_get_system_var@@UAEXXZ 004860a0 f   item_func.obj
 0001:00085230       ?print@Item_func_get_system_var@@UAEXPAVString@@W4enum_query_type@@@Z 00486230 f   item_func.obj
 0001:00085250       ?result_type@Item_func_get_system_var@@UBE?AW4Item_result@@XZ 00486250 f   item_func.obj
 0001:000852f0       ?field_type@Item_func_get_system_var@@UBE?AW4enum_field_types@@XZ 004862f0 f   item_func.obj
 0001:00085390       ?val_int@Item_func_get_system_var@@UAE_JXZ 00486390 f   item_func.obj
 0001:00085880       ?val_str@Item_func_get_system_var@@UAEPAVString@@PAV2@@Z 00486880 f   item_func.obj
 0001:00085b60       ?val_real@Item_func_get_system_var@@UAENXZ 00486b60 f   item_func.obj
 0001:00085ef0       ?eq@Item_func_get_system_var@@UBE_NPBVItem@@_N@Z 00486ef0 f   item_func.obj
 0001:00085f90       ?cleanup@Item_func_get_system_var@@UAEXXZ 00486f90 f   item_func.obj
 0001:00086000       ?fix_fields@Item_func_match@@UAE_NPAVTHD@@PAPAVItem@@@Z 00487000 f   item_func.obj
 0001:000861d0       ?fix_index@Item_func_match@@QAE_NXZ 004871d0 f   item_func.obj
 0001:000864c0       ?eq@Item_func_match@@UBE_NPBVItem@@_N@Z 004874c0 f   item_func.obj
 0001:00086580       ?val_real@Item_func_match@@UAENXZ 00487580 f   item_func.obj
 0001:00086670       ?print@Item_func_match@@UAEXPAVString@@W4enum_query_type@@@Z 00487670 f   item_func.obj
 0001:00086710       ?val_int@Item_func_bit_xor@@UAE_JXZ 00487710 f   item_func.obj
 0001:00086780       ?val_int@Item_func_is_free_lock@@UAE_JXZ 00487780 f   item_func.obj
 0001:00086810       ?val_int@Item_func_is_used_lock@@UAE_JXZ 00487810 f   item_func.obj
 0001:000868a0       ?val_int@Item_func_row_count@@UAE_JXZ 004878a0 f   item_func.obj
 0001:000868d0       ?cleanup@Item_func_sp@@UAEXXZ 004878d0 f   item_func.obj
 0001:00086930       ?init_result_field@Item_func_sp@@AAE_NPAVTHD@@@Z 00487930 f   item_func.obj
 0001:00086ad0       ?fix_length_and_dec@Item_func_sp@@UAEXXZ 00487ad0 f   item_func.obj
 0001:00086b40       ??0Sub_statement_state@@QAE@XZ 00487b40 f i item_func.obj
 0001:00086b70       ??1Sub_statement_state@@QAE@XZ 00487b70 f i item_func.obj
 0001:00086b80       ?make_field@Item_func_sp@@UAEXPAVSend_field@@@Z 00487b80 f   item_func.obj
 0001:00086bc0       ?field_type@Item_func_sp@@UBE?AW4enum_field_types@@XZ 00487bc0 f   item_func.obj
 0001:00086be0       ?result_type@Item_func_sp@@UBE?AW4Item_result@@XZ 00487be0 f   item_func.obj
 0001:00086bf0       ?val_int@Item_func_found_rows@@UAE_JXZ 00487bf0 f   item_func.obj
 0001:00086c20       ?tmp_table_field@Item_func_sp@@UAEPAVField@@PAUst_table@@@Z 00487c20 f   item_func.obj
 0001:00086c30       ?sp_check_access@Item_func_sp@@QAE_NPAVTHD@@@Z 00487c30 f   item_func.obj
 0001:00086c70       ?fix_fields@Item_func_sp@@UAE_NPAVTHD@@PAPAVItem@@@Z 00487c70 f   item_func.obj
 0001:00086d40       ?update_used_tables@Item_func_sp@@UAEXXZ 00487d40 f   item_func.obj
 0001:00086d80       ?uuid_short_init@@YAXXZ    00487d80 f   item_func.obj
 0001:00086dd0       ?val_int@Item_func_uuid_short@@UAE_JXZ 00487dd0 f   item_func.obj
 0001:00086e20       ??0?$List@Vset_var_base@@@@QAE@XZ 00487e20 f i item_func.obj
 0001:00086e40       ?push_back@?$List@Vset_var_base@@@@QAE_NPAVset_var_base@@@Z 00487e40 f i item_func.obj
 0001:00086ea0       ??0Field_double@@QAE@I_NPBDE@Z 00487ea0 f i item_func.obj
 0001:00086f00       ?val@udf_handler@@QAENPAD@Z 00487f00 f i item_func.obj
 0001:00086f90       ?val_int@udf_handler@@QAE_JPAD@Z 00487f90 f i item_func.obj
 0001:00087010       ??0Item_result_field@@QAE@PAVTHD@@PAV0@@Z 00488010 f i item_func.obj
 0001:00087040       ??0Item_func_set_user_var@@QAE@Ust_mysql_lex_string@@PAVItem@@@Z 00488040 f i item_func.obj
 0001:00087110       ?functype@Item_func_set_user_var@@UBE?AW4Functype@Item_func@@XZ 00488110 f i item_func.obj
 0001:00087120       ?result_type@Item_func_set_user_var@@UBE?AW4Item_result@@XZ 00488120 f i item_func.obj
 0001:00087130       ?func_name@Item_func_set_user_var@@UBEPBDXZ 00488130 f i item_func.obj
 0001:00087140       ?save_in_field@Item_func_set_user_var@@UAEHPAVField@@_N@Z 00488140 f i item_func.obj
 0001:00087160       ?save_org_in_field@Item_func_set_user_var@@UAEXPAVField@@@Z 00488160 f i item_func.obj
 0001:00087180       ??1Item_func_set_user_var@@UAE@XZ 00488180 f i item_func.obj
 0001:00087200       ??_Eset_var_user@@UAEPAXI@Z 00488200 f i item_func.obj
 0001:00087200       ??_Gset_var_user@@UAEPAXI@Z 00488200 f i item_func.obj
 0001:00087210       ??1st_select_lex@@UAE@XZ   00488210 f i item_func.obj
 0001:00087220       ??1st_lex@@UAE@XZ          00488220 f i item_func.obj
 0001:00087280       ??_Est_lex@@UAEPAXI@Z      00488280 f i item_func.obj
 0001:00087280       ??_Gst_lex@@UAEPAXI@Z      00488280 f i item_func.obj
 0001:00087300       ??0Item_func@@QAE@PAVTHD@@PAV0@@Z 00488300 f   item_func.obj
 0001:000873d0       ?print@Item_func@@UAEXPAVString@@W4enum_query_type@@@Z 004883d0 f   item_func.obj
 0001:00087490       ?tmp_table_field@Item_func@@UAEPAVField@@PAUst_table@@@Z 00488490 f   item_func.obj
 0001:00087620       ?val_int_from_str@Item_func_signed@@QAE_JPAH@Z 00488620 f   item_func.obj
 0001:00087830       ?val_int@Item_func_signed@@UAE_JXZ 00488830 f   item_func.obj
 0001:000878f0       ?val_int@Item_func_unsigned@@UAE_JXZ 004888f0 f   item_func.obj
 0001:00087a90       ?int_op@Item_func_ceiling@@UAE_JXZ 00488a90 f   item_func.obj
 0001:00087b60       ?int_op@Item_func_floor@@UAE_JXZ 00488b60 f   item_func.obj
 0001:00087c30       ??_EString@@QAEPAXI@Z      00488c30 f i item_func.obj
 0001:00087cd0       ?val_str@udf_handler@@QAEPAVString@@PAV2@0@Z 00488cd0 f   item_func.obj
 0001:00087dd0       ?val_real@Item_func_udf_float@@UAENXZ 00488dd0 f   item_func.obj
 0001:00087df0       ?val_int@Item_func_udf_int@@UAE_JXZ 00488df0 f   item_func.obj
 0001:00087e10       ?val_str@Item_func_udf_str@@UAEPAVString@@PAV2@@Z 00488e10 f   item_func.obj
 0001:00087e40       ?item_user_lock_release@@YAXPAVUser_level_lock@@@Z 00488e40 f   item_func.obj
 0001:00087eb0       ?val_int@Item_func_get_lock@@UAE_JXZ 00488eb0 f   item_func.obj
 0001:000881f0       ?val_int@Item_func_release_lock@@UAE_JXZ 004891f0 f   item_func.obj
 0001:00088300       ?val_int@Item_func_benchmark@@UAE_JXZ 00489300 f   item_func.obj
 0001:00088570       ?get_var_with_binlog@@YAHPAVTHD@@W4enum_sql_command@@AAUst_mysql_lex_string@@PAPAVuser_var_entry@@@Z 00489570 f   item_func.obj
 0001:00088890       ?fix_length_and_dec@Item_func_get_user_var@@UAEXXZ 00489890 f   item_func.obj
 0001:000889e0       ?set_value@Item_func_get_user_var@@EAE_NPAVTHD@@PAVsp_rcontext@@PAPAVItem@@@Z 004899e0 f   item_func.obj
 0001:00088a70       ??0Item_func_get_system_var@@QAE@PAVsys_var@@W4enum_var_type@@PAUst_mysql_lex_string@@PBDI@Z 00489a70 f   item_func.obj
 0001:00088b30       ?functype@Item_func_get_system_var@@UBE?AW4Functype@Item_func@@XZ 00489b30 f i item_func.obj
 0001:00088b40       ?const_item@Item_func_get_system_var@@UBE_NXZ 00489b40 f i item_func.obj
 0001:00088b50       ?used_tables@Item_func_get_system_var@@UBE_KXZ 00489b50 f i item_func.obj
 0001:00088b60       ?func_name@Item_func_get_system_var@@UBEPBDXZ 00489b60 f i item_func.obj
 0001:00088b70       ??1Item_func_get_system_var@@UAE@XZ 00489b70 f i item_func.obj
 0001:00088bf0       ?val_int@Item_func_inet_aton@@UAE_JXZ 00489bf0 f   item_func.obj
 0001:00088da0       ?get_system_var@@YAPAVItem@@PAVTHD@@W4enum_var_type@@Ust_mysql_lex_string@@2@Z 00489da0 f   item_func.obj
 0001:00088e70       ??0Item_func_sp@@QAE@PAUName_resolution_context@@PAVsp_name@@@Z 00489e70 f   item_func.obj
 0001:00088f10       ?change_context_processor@Item_func_sp@@UAE_NPAE@Z 00489f10 f i item_func.obj
 0001:00088f30       ?functype@Item_func_sp@@UBE?AW4Functype@Item_func@@XZ 00489f30 f i item_func.obj
 0001:00088f40       ?is_expensive@Item_func_sp@@UAE_NXZ 00489f40 f i item_func.obj
 0001:00088f50       ??1Item_func_sp@@UAE@XZ    00489f50 f i item_func.obj
 0001:00088f90       ??_EItem_func_sp@@UAEPAXI@Z 00489f90 f i item_func.obj
 0001:00088f90       ??_GItem_func_sp@@UAEPAXI@Z 00489f90 f i item_func.obj
 0001:00088fd0       ?func_name@Item_func_sp@@UBEPBDXZ 00489fd0 f   item_func.obj
 0001:00089120       ?execute_impl@Item_func_sp@@AAE_NPAVTHD@@@Z 0048a120 f   item_func.obj
 0001:00089260       ??_GItem_func_set_user_var@@UAEPAXI@Z 0048a260 f i item_func.obj
 0001:00089260       ??_EItem_func_set_user_var@@UAEPAXI@Z 0048a260 f i item_func.obj
 0001:00089280       ?set_arguments@Item_func@@QAEXAAV?$List@VItem@@@@@Z 0048a280 f   item_func.obj
 0001:00089310       ??0Item_func@@QAE@AAV?$List@VItem@@@@@Z 0048a310 f   item_func.obj
 0001:00089350       ?cleanup@udf_handler@@QAEXXZ 0048a350 f   item_func.obj
 0001:000893b0       ?cleanup@Item_udf_func@@UAEXXZ 0048a3b0 f   item_func.obj
 0001:000893d0       ??_EItem_func_get_system_var@@UAEPAXI@Z 0048a3d0 f i item_func.obj
 0001:000893d0       ??_GItem_func_get_system_var@@UAEPAXI@Z 0048a3d0 f i item_func.obj
 0001:000893f0       ??0Item_func_sp@@QAE@PAUName_resolution_context@@PAVsp_name@@AAV?$List@VItem@@@@@Z 0048a3f0 f   item_func.obj
 0001:00089490       ?execute@Item_func_sp@@AAE_NXZ 0048a490 f   item_func.obj
 0001:00089580       ?val_int@Item_func_sp@@UAE_JXZ 0048a580 f i item_func.obj
 0001:000895b0       ?val_real@Item_func_sp@@UAENXZ 0048a5b0 f i item_func.obj
 0001:000895e0       ?val_decimal@Item_func_sp@@UAEPAVmy_decimal@@PAV2@@Z 0048a5e0 f i item_func.obj
 0001:00089610       ?val_str@Item_func_sp@@UAEPAVString@@PAV2@@Z 0048a610 f i item_func.obj
 0001:00089710       ?init_search@Item_func_match@@QAEX_N@Z 0048a710 f   item_func.obj
 0001:00089a10       ?q_append@String@@QAEXD@Z  0048aa10 f i item_geofunc.obj
 0001:00089a30       ?q_append@String@@QAEXI@Z  0048aa30 f i item_geofunc.obj
 0001:00089a50       ?q_append@String@@QAEXN@Z  0048aa50 f i item_geofunc.obj
 0001:00089a80       ?qs_append@String@@QAEXD@Z 0048aa80 f i item_geofunc.obj
 0001:00089aa0       ?append@String@@QAE_NPBDII@Z 0048aaa0 f i item_geofunc.obj
 0001:00089b00       ??0Gis_read_stream@@QAE@PAUcharset_info_st@@PBDH@Z 0048ab00 f i item_geofunc.obj
 0001:00089b30       ??1Gis_read_stream@@QAE@XZ 0048ab30 f i item_geofunc.obj
 0001:00089b40       ??0MBR@@QAE@NNNN@Z         0048ab40 f i item_geofunc.obj
 0001:00089b70       ?equals@MBR@@QAEHPBU1@@Z   0048ab70 f i item_geofunc.obj
 0001:00089bd0       ?disjoint@MBR@@QAEHPBU1@@Z 0048abd0 f i item_geofunc.obj
 0001:00089c30       ?intersects@MBR@@QAEHPBU1@@Z 0048ac30 f i item_geofunc.obj
 0001:00089ca0       ?touches@MBR@@QAEHPBU1@@Z  0048aca0 f i item_geofunc.obj
 0001:00089d70       ?within@MBR@@QAEHPBU1@@Z   0048ad70 f i item_geofunc.obj
 0001:00089dd0       ?contains@MBR@@QAEHPBU1@@Z 0048add0 f i item_geofunc.obj
 0001:00089e30       ?dimension@MBR@@QBEHXZ     0048ae30 f i item_geofunc.obj
 0001:00089e90       ?overlaps@MBR@@QAEHPBU1@@Z 0048ae90 f i item_geofunc.obj
 0001:0008a040       ?as_wkt@Geometry@@QAEHPAVString@@PAPBD@Z 0048b040 f i item_geofunc.obj
 0001:0008a0f0       ?fix_length_and_dec@Item_geometry_func@@UAEXXZ 0048b0f0 f   item_geofunc.obj
 0001:0008a130       ?fix_length_and_dec@Item_func_as_wkt@@UAEXXZ 0048b130 f   item_geofunc.obj
 0001:0008a140       ?val_str@Item_func_geometry_type@@UAEPAVString@@PAV2@@Z 0048b140 f   item_geofunc.obj
 0001:0008a1f0       ?get_geometry_type@Item_func_envelope@@UBE?AW4geometry_type@Field@@XZ 0048b1f0 f   item_geofunc.obj
 0001:0008a200       ?get_geometry_type@Item_func_centroid@@UBE?AW4geometry_type@Field@@XZ 0048b200 f   item_geofunc.obj
 0001:0008a210       ?get_geometry_type@Item_func_point@@UBE?AW4geometry_type@Field@@XZ 0048b210 f   item_geofunc.obj
 0001:0008a220       ?val_str@Item_func_point@@UAEPAVString@@PAV2@@Z 0048b220 f   item_geofunc.obj
 0001:0008a340       ?val_int@Item_func_spatial_rel@@UAE_JXZ 0048b340 f   item_geofunc.obj
 0001:0008a590       ?val_int@Item_func_dimension@@UAE_JXZ 0048b590 f   item_geofunc.obj
 0001:0008a630       ?val_int@Item_func_numinteriorring@@UAE_JXZ 0048b630 f   item_geofunc.obj
 0001:0008a6c0       ?val_int@Item_func_numgeometries@@UAE_JXZ 0048b6c0 f   item_geofunc.obj
 0001:0008a750       ?val_int@Item_func_numpoints@@UAE_JXZ 0048b750 f   item_geofunc.obj
 0001:0008a7f0       ?val_real@Item_func_x@@UAENXZ 0048b7f0 f   item_geofunc.obj
 0001:0008a880       ?val_real@Item_func_y@@UAENXZ 0048b880 f   item_geofunc.obj
 0001:0008a910       ?val_real@Item_func_area@@UAENXZ 0048b910 f   item_geofunc.obj
 0001:0008a9a0       ?val_real@Item_func_glength@@UAENXZ 0048b9a0 f   item_geofunc.obj
 0001:0008aa30       ?val_int@Item_func_srid@@UAE_JXZ 0048ba30 f   item_geofunc.obj
 0001:0008aab0       ?tmp_table_field@Item_geometry_func@@UAEPAVField@@PAUst_table@@@Z 0048bab0 f   item_geofunc.obj
 0001:0008ab40       ?val_str@Item_func_geometry_from_text@@UAEPAVString@@PAV2@@Z 0048bb40 f   item_geofunc.obj
 0001:0008ad00       ?val_str@Item_func_geometry_from_wkb@@UAEPAVString@@PAV2@@Z 0048bd00 f   item_geofunc.obj
 0001:0008ae70       ?val_str@Item_func_as_wkt@@UAEPAVString@@PAV2@@Z 0048be70 f   item_geofunc.obj
 0001:0008afa0       ?val_str@Item_func_as_wkb@@UAEPAVString@@PAV2@@Z 0048bfa0 f   item_geofunc.obj
 0001:0008b0a0       ?val_str@Item_func_envelope@@UAEPAVString@@PAV2@@Z 0048c0a0 f   item_geofunc.obj
 0001:0008b1f0       ?val_str@Item_func_centroid@@UAEPAVString@@PAV2@@Z 0048c1f0 f   item_geofunc.obj
 0001:0008b380       ?val_str@Item_func_spatial_decomp@@UAEPAVString@@PAV2@@Z 0048c380 f   item_geofunc.obj
 0001:0008b520       ?val_str@Item_func_spatial_decomp_n@@UAEPAVString@@PAV2@@Z 0048c520 f   item_geofunc.obj
 0001:0008b700       ?val_str@Item_func_spatial_collection@@UAEPAVString@@PAV2@@Z 0048c700 f   item_geofunc.obj
 0001:0008ba20       ?val_int@Item_func_isempty@@UAE_JXZ 0048ca20 f   item_geofunc.obj
 0001:0008bae0       ?val_int@Item_func_issimple@@UAE_JXZ 0048cae0 f   item_geofunc.obj
 0001:0008bb90       ?val_int@Item_func_isclosed@@UAE_JXZ 0048cb90 f   item_geofunc.obj
 0001:0008bc60       ?illegal_method_call@Item_row@@QAEXPBD@Z 0048cc60 f   item_row.obj
 0001:0008bc80       ?fix_fields@Item_row@@UAE_NPAVTHD@@PAPAVItem@@@Z 0048cc80 f   item_row.obj
 0001:0008bda0       ?cleanup@Item_row@@UAEXXZ  0048cda0 f   item_row.obj
 0001:0008bdc0       ?split_sum_func@Item_row@@UAEXPAVTHD@@PAPAVItem@@AAV?$List@VItem@@@@@Z 0048cdc0 f   item_row.obj
 0001:0008be10       ?update_used_tables@Item_row@@UAEXXZ 0048ce10 f   item_row.obj
 0001:0008be80       ?check_cols@Item_row@@UAE_NI@Z 0048ce80 f   item_row.obj
 0001:0008beb0       ?print@Item_row@@UAEXPAVString@@W4enum_query_type@@@Z 0048ceb0 f   item_row.obj
 0001:0008bfb0       ?walk@Item_row@@UAE_NP8Item@@AE_NPAE@Z_N0@Z 0048cfb0 f   item_row.obj
 0001:0008c010       ?transform@Item_row@@UAEPAVItem@@P82@AEPAV2@PAE@Z0@Z 0048d010 f   item_row.obj
 0001:0008c0d0       ?bring_value@Item_row@@UAEXXZ 0048d0d0 f   item_row.obj
 0001:0008c110       ??0Item_row@@QAE@AAV?$List@VItem@@@@@Z 0048d110 f   item_row.obj
 0001:0008c1a0       ?type@Item_row@@UBE?AW4Type@Item@@XZ 0048d1a0 f i item_row.obj
 0001:0008c1b0       ?is_null@Item_row@@UAE_NXZ 0048d1b0 f i item_row.obj
 0001:0008c1c0       ?used_tables@Item_row@@UBE_KXZ 0048d1c0 f i item_row.obj
 0001:0008c1d0       ?const_item@Item_row@@UBE_NXZ 0048d1d0 f i item_row.obj
 0001:0008c1e0       ?result_type@Item_row@@UBE?AW4Item_result@@XZ 0048d1e0 f i item_row.obj
 0001:0008c1f0       ?cols@Item_row@@UAEIXZ     0048d1f0 f i item_row.obj
 0001:0008c200       ?element_index@Item_row@@UAEPAVItem@@I@Z 0048d200 f i item_row.obj
 0001:0008c210       ?addr@Item_row@@UAEPAPAVItem@@I@Z 0048d210 f i item_row.obj
 0001:0008c220       ?null_inside@Item_row@@UAE_NXZ 0048d220 f i item_row.obj
 0001:0008c230       ?make_field@Item_row@@UAEXPAVSend_field@@@Z 0048d230 f i item_row.obj
 0001:0008c240       ?val_real@Item_row@@UAENXZ 0048d240 f i item_row.obj
 0001:0008c250       ?val_int@Item_row@@UAE_JXZ 0048d250 f i item_row.obj
 0001:0008c270       ?val_str@Item_row@@UAEPAVString@@PAV2@@Z 0048d270 f i item_row.obj
 0001:0008c290       ?val_decimal@Item_row@@UAEPAVmy_decimal@@PAV2@@Z 0048d290 f i item_row.obj
 0001:0008c2b0       ??1Item_row@@UAE@XZ        0048d2b0 f i item_row.obj
 0001:0008c2f0       ??_GItem_row@@UAEPAXI@Z    0048d2f0 f i item_row.obj
 0001:0008c2f0       ??_EItem_row@@UAEPAXI@Z    0048d2f0 f i item_row.obj
 0001:0008c330       ??0String@@QAE@PBDPAUcharset_info_st@@@Z 0048d330 f i item_strfunc.obj
 0001:0008c370       ??1SQL_CRYPT@@QAE@XZ       0048d370 f i item_strfunc.obj
 0001:0008c380       ?init@SQL_CRYPT@@QAEXXZ    0048d380 f i item_strfunc.obj
 0001:0008c3c0       ?sql_rnd_with_mutex@@YAKXZ 0048d3c0 f i item_strfunc.obj
 0001:0008c430       ?hexchar_to_int@@YAHD@Z    0048d430 f i item_strfunc.obj
 0001:0008c470       ?fix_fields@Item_str_func@@UAE_NPAVTHD@@PAPAVItem@@@Z 0048d470 f   item_strfunc.obj
 0001:0008c4c0       ?val_str@Item_func_md5@@UAEPAVString@@PAV2@@Z 0048d4c0 f   item_strfunc.obj
 0001:0008c650       ?fix_length_and_dec@Item_func_md5@@UAEXXZ 0048d650 f   item_strfunc.obj
 0001:0008c6b0       ?val_str@Item_func_sha@@UAEPAVString@@PAV2@@Z 0048d6b0 f   item_strfunc.obj
 0001:0008c890       ?fix_length_and_dec@Item_func_sha@@UAEXXZ 0048d890 f   item_strfunc.obj
 0001:0008c8f0       ?fix_length_and_dec@Item_func_aes_encrypt@@UAEXXZ 0048d8f0 f   item_strfunc.obj
 0001:0008c910       ?fix_length_and_dec@Item_func_aes_decrypt@@UAEXXZ 0048d910 f   item_strfunc.obj
 0001:0008c930       ?val_str@Item_func_concat@@UAEPAVString@@PAV2@@Z 0048d930 f   item_strfunc.obj
 0001:0008ccd0       ?fix_length_and_dec@Item_func_concat@@UAEXXZ 0048dcd0 f   item_strfunc.obj
 0001:0008cdb0       ?val_str@Item_func_des_encrypt@@UAEPAVString@@PAV2@@Z 0048ddb0 f   item_strfunc.obj
 0001:0008d0f0       ?val_str@Item_func_des_decrypt@@UAEPAVString@@PAV2@@Z 0048e0f0 f   item_strfunc.obj
 0001:0008d400       ?fix_length_and_dec@Item_func_concat_ws@@UAEXXZ 0048e400 f   item_strfunc.obj
 0001:0008d4b0       ?val_str@Item_func_reverse@@UAEPAVString@@PAV2@@Z 0048e4b0 f   item_strfunc.obj
 0001:0008d600       ?fix_length_and_dec@Item_func_reverse@@UAEXXZ 0048e600 f   item_strfunc.obj
 0001:0008d630       ?val_str@Item_func_replace@@UAEPAVString@@PAV2@@Z 0048e630 f   item_strfunc.obj
 0001:0008d9f0       ?fix_length_and_dec@Item_func_replace@@UAEXXZ 0048e9f0 f   item_strfunc.obj
 0001:0008dab0       ?val_str@Item_func_insert@@UAEPAVString@@PAV2@@Z 0048eab0 f   item_strfunc.obj
 0001:0008dd40       ?fix_length_and_dec@Item_func_insert@@UAEXXZ 0048ed40 f   item_strfunc.obj
 0001:0008ddd0       ?val_str@Item_str_conv@@UAEPAVString@@PAV2@@Z 0048edd0 f   item_strfunc.obj
 0001:0008dec0       ?fix_length_and_dec@Item_func_lcase@@UAEXXZ 0048eec0 f   item_strfunc.obj
 0001:0008df20       ?fix_length_and_dec@Item_func_ucase@@UAEXXZ 0048ef20 f   item_strfunc.obj
 0001:0008df80       ?left_right_max_length@Item_str_func@@QAEXXZ 0048ef80 f   item_strfunc.obj
 0001:0008dfe0       ?fix_length_and_dec@Item_func_left@@UAEXXZ 0048efe0 f   item_strfunc.obj
 0001:0008e010       ?fix_length_and_dec@Item_func_right@@UAEXXZ 0048f010 f   item_strfunc.obj
 0001:0008e040       ?fix_length_and_dec@Item_func_substr@@UAEXXZ 0048f040 f   item_strfunc.obj
 0001:0008e140       ?fix_length_and_dec@Item_func_substr_index@@UAEXXZ 0048f140 f   item_strfunc.obj
 0001:0008e180       ?fix_length_and_dec@Item_func_trim@@UAEXXZ 0048f180 f   item_strfunc.obj
 0001:0008e210       ?print@Item_func_trim@@UAEXPAVString@@W4enum_query_type@@@Z 0048f210 f   item_strfunc.obj
 0001:0008e370       ?alloc@Item_func_password@@SAPADPAVTHD@@PBD@Z 0048f370 f   item_strfunc.obj
 0001:0008e3b0       ?alloc@Item_func_old_password@@SAPADPAVTHD@@PBD@Z 0048f3b0 f   item_strfunc.obj
 0001:0008e3f0       ?val_str@Item_func_encrypt@@UAEPAVString@@PAV2@@Z 0048f3f0 f   item_strfunc.obj
 0001:0008e420       ?fix_length_and_dec@Item_func_encode@@UAEXXZ 0048f420 f   item_strfunc.obj
 0001:0008e480       ?val_str@Item_func_database@@UAEPAVString@@PAV2@@Z 0048f480 f   item_strfunc.obj
 0001:0008e4e0       ?init@Item_func_user@@IAE_NPBD0@Z 0048f4e0 f   item_strfunc.obj
 0001:0008e5a0       ?fix_fields@Item_func_user@@UAE_NPAVTHD@@PAPAVItem@@@Z 0048f5a0 f   item_strfunc.obj
 0001:0008e600       ?fix_fields@Item_func_current_user@@UAE_NPAVTHD@@PAPAVItem@@@Z 0048f600 f   item_strfunc.obj
 0001:0008e660       ?fix_length_and_dec@Item_func_soundex@@UAEXXZ 0048f660 f   item_strfunc.obj
 0001:0008e720       ?val_str@Item_func_soundex@@UAEPAVString@@PAV2@@Z 0048f720 f   item_strfunc.obj
 0001:0008e9f0       ?fix_length_and_dec@Item_func_format@@UAEXXZ 0048f9f0 f   item_strfunc.obj
 0001:0008ea70       ?val_str@Item_func_format@@UAEPAVString@@PAV2@@Z 0048fa70 f   item_strfunc.obj
 0001:0008ed50       ?print@Item_func_format@@UAEXPAVString@@W4enum_query_type@@@Z 0048fd50 f   item_strfunc.obj
 0001:0008ee30       ?fix_length_and_dec@Item_func_elt@@UAEXXZ 0048fe30 f   item_strfunc.obj
 0001:0008eed0       ?val_real@Item_func_elt@@UAENXZ 0048fed0 f   item_strfunc.obj
 0001:0008ef20       ?val_int@Item_func_elt@@UAE_JXZ 0048ff20 f   item_strfunc.obj
 0001:0008ef80       ?val_str@Item_func_elt@@UAEPAVString@@PAV2@@Z 0048ff80 f   item_strfunc.obj
 0001:0008eff0       ?split_sum_func@Item_func_make_set@@UAEXPAVTHD@@PAPAVItem@@AAV?$List@VItem@@@@@Z 0048fff0 f   item_strfunc.obj
 0001:0008f040       ?fix_length_and_dec@Item_func_make_set@@UAEXXZ 00490040 f   item_strfunc.obj
 0001:0008f120       ?update_used_tables@Item_func_make_set@@UAEXXZ 00490120 f   item_strfunc.obj
 0001:0008f170       ?val_str@Item_func_make_set@@UAEPAVString@@PAV2@@Z 00490170 f   item_strfunc.obj
 0001:0008f350       ?transform@Item_func_make_set@@UAEPAVItem@@P82@AEPAV2@PAE@Z0@Z 00490350 f   item_strfunc.obj
 0001:0008f3f0       ?print@Item_func_make_set@@UAEXPAVString@@W4enum_query_type@@@Z 004903f0 f   item_strfunc.obj
 0001:0008f4d0       ?val_str@Item_func_char@@UAEPAVString@@PAV2@@Z 004904d0 f   item_strfunc.obj
 0001:0008f680       ?alloc_buffer@@YAPAVString@@PAV1@00K@Z 00490680 f i item_strfunc.obj
 0001:0008f6e0       ?fix_length_and_dec@Item_func_repeat@@UAEXXZ 004906e0 f   item_strfunc.obj
 0001:0008f7b0       ?val_str@Item_func_repeat@@UAEPAVString@@PAV2@@Z 004907b0 f   item_strfunc.obj
 0001:0008f980       ?fix_length_and_dec@Item_func_rpad@@UAEXXZ 00490980 f   item_strfunc.obj
 0001:0008fa60       ?val_str@Item_func_rpad@@UAEPAVString@@PAV2@@Z 00490a60 f   item_strfunc.obj
 0001:0008fd00       ?fix_length_and_dec@Item_func_lpad@@UAEXXZ 00490d00 f   item_strfunc.obj
 0001:0008fde0       ?val_str@Item_func_lpad@@UAEPAVString@@PAV2@@Z 00490de0 f   item_strfunc.obj
 0001:00090060       ?val_str@Item_func_conv@@UAEPAVString@@PAV2@@Z 00491060 f   item_strfunc.obj
 0001:00090240       ?val_str@Item_func_conv_charset@@UAEPAVString@@PAV2@@Z 00491240 f   item_strfunc.obj
 0001:000902e0       ?fix_length_and_dec@Item_func_conv_charset@@UAEXXZ 004912e0 f   item_strfunc.obj
 0001:00090330       ?print@Item_func_conv_charset@@UAEXPAVString@@W4enum_query_type@@@Z 00491330 f   item_strfunc.obj
 0001:000903e0       ?val_str@Item_func_set_collation@@UAEPAVString@@PAV2@@Z 004913e0 f   item_strfunc.obj
 0001:00090420       ?eq@Item_func_set_collation@@UBE_NPBVItem@@_N@Z 00491420 f   item_strfunc.obj
 0001:000904f0       ?print@Item_func_set_collation@@UAEXPAVString@@W4enum_query_type@@@Z 004914f0 f   item_strfunc.obj
 0001:000905c0       ?val_str@Item_func_charset@@UAEPAVString@@PAV2@@Z 004915c0 f   item_strfunc.obj
 0001:00090620       ?val_str@Item_func_collation@@UAEPAVString@@PAV2@@Z 00491620 f   item_strfunc.obj
 0001:00090680       ?val_str@Item_func_hex@@UAEPAVString@@PAV2@@Z 00491680 f   item_strfunc.obj
 0001:000908a0       ?val_str@Item_func_unhex@@UAEPAVString@@PAV2@@Z 004918a0 f   item_strfunc.obj
 0001:00090a30       ?print@Item_func_binary@@UAEXPAVString@@W4enum_query_type@@@Z 00491a30 f   item_strfunc.obj
 0001:00090a80       ?val_str@Item_load_file@@UAEPAVString@@PAV2@@Z 00491a80 f   item_strfunc.obj
 0001:00090cc0       ?fix_length_and_dec@Item_func_export_set@@UAEXXZ 00491cc0 f   item_strfunc.obj
 0001:00090d50       ?val_str@Item_func_inet_ntoa@@UAEPAVString@@PAV2@@Z 00491d50 f   item_strfunc.obj
 0001:00090ea0       ?val_str@Item_func_quote@@UAEPAVString@@PAV2@@Z 00491ea0 f   item_strfunc.obj
 0001:000910a0       ?val_int@Item_func_uncompressed_length@@UAE_JXZ 004920a0 f   item_strfunc.obj
 0001:000910f0       ?val_int@Item_func_crc32@@UAE_JXZ 004920f0 f   item_strfunc.obj
 0001:00091140       ?val_str@Item_func_compress@@UAEPAVString@@PAV2@@Z 00492140 f   item_strfunc.obj
 0001:000912a0       ?val_str@Item_func_uncompress@@UAEPAVString@@PAV2@@Z 004922a0 f   item_strfunc.obj
 0001:00091520       ?val_str@Item_func_uuid@@UAEPAVString@@PAV2@@Z 00492520 f   item_strfunc.obj
 0001:000918f0       ?set@String@@QAEXAAV1@II@Z 004928f0 f i item_strfunc.obj
 0001:00091970       ?val_decimal@Item_str_func@@UAEPAVmy_decimal@@PAV2@@Z 00492970 f   item_strfunc.obj
 0001:00091a60       ?val_real@Item_str_func@@UAENXZ 00492a60 f   item_strfunc.obj
 0001:00091b30       ?val_int@Item_str_func@@UAE_JXZ 00492b30 f   item_strfunc.obj
 0001:00091c00       ?val_str@Item_func_aes_encrypt@@UAEPAVString@@PAV2@@Z 00492c00 f   item_strfunc.obj
 0001:00091d60       ?val_str@Item_func_aes_decrypt@@UAEPAVString@@PAV2@@Z 00492d60 f   item_strfunc.obj
 0001:00091ea0       ?val_str@Item_func_concat_ws@@UAEPAVString@@PAV2@@Z 00492ea0 f   item_strfunc.obj
 0001:00092350       ?val_str@Item_func_left@@UAEPAVString@@PAV2@@Z 00493350 f   item_strfunc.obj
 0001:00092430       ?val_str@Item_func_right@@UAEPAVString@@PAV2@@Z 00493430 f   item_strfunc.obj
 0001:00092520       ?val_str@Item_func_substr@@UAEPAVString@@PAV2@@Z 00493520 f   item_strfunc.obj
 0001:00092790       ?val_str@Item_func_substr_index@@UAEPAVString@@PAV2@@Z 00493790 f   item_strfunc.obj
 0001:00092ad0       ?val_str@Item_func_ltrim@@UAEPAVString@@PAV2@@Z 00493ad0 f   item_strfunc.obj
 0001:00092df0       ?val_str@Item_func_rtrim@@UAEPAVString@@PAV2@@Z 00493df0 f   item_strfunc.obj
 0001:00093280       ?val_str@Item_func_trim@@UAEPAVString@@PAV2@@Z 00494280 f   item_strfunc.obj
 0001:00093750       ?val_str@Item_func_password@@UAEPAVString@@PAV2@@Z 00494750 f   item_strfunc.obj
 0001:000937f0       ?val_str@Item_func_old_password@@UAEPAVString@@PAV2@@Z 004947f0 f   item_strfunc.obj
 0001:00093890       ?val_str@Item_func_encode@@UAEPAVString@@PAV2@@Z 00494890 f   item_strfunc.obj
 0001:00093a60       ?val_str@Item_func_decode@@UAEPAVString@@PAV2@@Z 00494a60 f   item_strfunc.obj
 0001:00093c20       ?safe_charset_converter@Item_func_sysconst@@UAEPAVItem@@PAUcharset_info_st@@@Z 00494c20 f   item_strfunc.obj
 0001:00093e40       ??0Item_func_format@@QAE@PAVItem@@0@Z 00494e40 f   item_strfunc.obj
 0001:00093ea0       ?func_name@Item_func_format@@UBEPBDXZ 00494ea0 f i item_strfunc.obj
 0001:00093eb0       ??1Item_func_format@@UAE@XZ 00494eb0 f i item_strfunc.obj
 0001:00093f30       ?fix_length_and_dec@Item_func_set_collation@@UAEXXZ 00494f30 f   item_strfunc.obj
 0001:000940a0       ?val_str@Item_func_export_set@@UAEPAVString@@PAV2@@Z 004950a0 f   item_strfunc.obj
 0001:000943e0       ??_GItem_func_format@@UAEPAXI@Z 004953e0 f i item_strfunc.obj
 0001:000943e0       ??_EItem_func_format@@UAEPAXI@Z 004953e0 f i item_strfunc.obj
 0001:00094400       ?get_cache@Item_in_optimizer@@QAEPAPAVItem_cache@@XZ 00495400 f i item_subselect.obj
 0001:00094410       ?top_level@Item_func_not_all@@QAE_NXZ 00495410 f i item_subselect.obj
 0001:00094420       ?set_sum_test@Item_func_not_all@@QAEXPAVItem_sum_hybrid@@@Z 00495420 f i item_subselect.obj
 0001:00094430       ?set_sub_test@Item_func_not_all@@QAEXPAVItem_maxmin_subselect@@@Z 00495430 f i item_subselect.obj
 0001:00094440       ?reset@Item_subselect@@UAEXXZ 00495440 f i item_subselect.obj
 0001:00094450       ?assigned@Item_subselect@@QAE_NXZ 00495450 f i item_subselect.obj
 0001:00094460       ?assigned@Item_subselect@@QAEX_N@Z 00495460 f i item_subselect.obj
 0001:00094470       ?get_used_tables_cache@Item_subselect@@QAE_KXZ 00495470 f i item_subselect.obj
 0001:00094480       ?get_const_item_cache@Item_subselect@@QAE_NXZ 00495480 f i item_subselect.obj
 0001:00094490       ?get_cond_guard@Item_in_subselect@@QAEPA_NH@Z 00495490 f i item_subselect.obj
 0001:000944b0       ?reset@Item_in_subselect@@UAEXXZ 004954b0 f i item_subselect.obj
 0001:000944d0       ??0subselect_engine@@QAE@PAVItem_subselect@@PAVselect_subselect@@@Z 004954d0 f i item_subselect.obj
 0001:00094510       ??1subselect_engine@@UAE@XZ 00495510 f i item_subselect.obj
 0001:00094520       ?type@subselect_engine@@QAE?AW4Item_result@@XZ 00495520 f i item_subselect.obj
 0001:00094530       ?field_type@subselect_engine@@QAE?AW4enum_field_types@@XZ 00495530 f i item_subselect.obj
 0001:00094540       ?may_be_null@subselect_engine@@UAE_NXZ 00495540 f i item_subselect.obj
 0001:00094550       ?is_executed@subselect_engine@@UBE_NXZ 00495550 f i item_subselect.obj
 0001:00094560       ??_Esubselect_engine@@UAEPAXI@Z 00495560 f i item_subselect.obj
 0001:00094560       ??_Gsubselect_engine@@UAEPAXI@Z 00495560 f i item_subselect.obj
 0001:00094570       ?next_select@st_select_lex@@QAEPAV1@XZ 00495570 f i item_subselect.obj
 0001:00094580       ?is_union@st_select_lex_unit@@QAE_NXZ 00495580 f i item_subselect.obj
 0001:000945a0       ?is_stmt_prepare_or_first_sp_execute@Query_arena@@QBE_NXZ 004955a0 f i item_subselect.obj
 0001:000945b0       ??1select_result@@UAE@XZ   004955b0 f i item_subselect.obj
 0001:000945c0       ?prepare@select_result@@UAEHAAV?$List@VItem@@@@PAVst_select_lex_unit@@@Z 004955c0 f i item_subselect.obj
 0001:000945d0       ?prepare2@select_result@@UAEHXZ 004955d0 f i item_subselect.obj
 0001:000945e0       ?field_count@select_result@@UBEIAAV?$List@VItem@@@@@Z 004955e0 f i item_subselect.obj
 0001:000945f0       ?initialize_tables@select_result@@UAE_NPAVJOIN@@@Z 004955f0 f i item_subselect.obj
 0001:00094600       ?abort@select_result@@UAEXXZ 00495600 f i item_subselect.obj
 0001:00094610       ?set_thd@select_result@@QAEXPAVTHD@@@Z 00495610 f i item_subselect.obj
 0001:00094620       ??_Gselect_result@@UAEPAXI@Z 00495620 f i item_subselect.obj
 0001:00094620       ??_Eselect_result@@UAEPAXI@Z 00495620 f i item_subselect.obj
 0001:00094630       ??1select_result_interceptor@@UAE@XZ 00495630 f i item_subselect.obj
 0001:00094640       ??1select_subselect@@UAE@XZ 00495640 f i item_subselect.obj
 0001:00094650       ??0select_max_min_finder_subselect@@QAE@PAVItem_subselect@@_N@Z 00495650 f i item_subselect.obj
 0001:00094680       ?field_count@select_result_interceptor@@UBEIAAV?$List@VItem@@@@@Z 00495680 f i item_subselect.obj
 0001:00094690       ?send_fields@select_result_interceptor@@UAE_NAAV?$List@VItem@@@@I@Z 00495690 f i item_subselect.obj
 0001:000946a0       ?send_eof@select_subselect@@UAE_NXZ 004956a0 f i item_subselect.obj
 0001:000946b0       ??1select_max_min_finder_subselect@@UAE@XZ 004956b0 f i item_subselect.obj
 0001:000946c0       ??0select_exists_subselect@@QAE@PAVItem_subselect@@@Z 004956c0 f i item_subselect.obj
 0001:000946e0       ??1select_exists_subselect@@UAE@XZ 004956e0 f i item_subselect.obj
 0001:000946f0       ?init@JOIN@@QAEXPAVTHD@@AAV?$List@VItem@@@@_KPAVselect_result@@@Z 004956f0 f i item_subselect.obj
 0001:00094930       ??1?$List@VCached_item@@@@QAE@XZ 00495930 f i item_subselect.obj
 0001:00094940       ?copy@store_key@@QAE?AW4store_key_result@1@XZ 00495940 f i item_subselect.obj
 0001:000949a0       ?get_select_lex@Item_subselect@@QAEPAVst_select_lex@@XZ 004959a0 f   item_subselect.obj
 0001:000949b0       ?cleanup@Item_subselect@@UAEXXZ 004959b0 f   item_subselect.obj
 0001:00094a10       ?cleanup@Item_singlerow_subselect@@UAEXXZ 00495a10 f   item_subselect.obj
 0001:00094a30       ?select_transformer@Item_subselect@@UAE?AW4trans_res@1@PAVJOIN@@@Z 00495a30 f   item_subselect.obj
 0001:00094a40       ?exec@Item_subselect@@UAE_NXZ 00495a40 f   item_subselect.obj
 0001:00094a90       ?type@Item_subselect@@UBE?AW4Type@Item@@XZ 00495a90 f   item_subselect.obj
 0001:00094aa0       ?fix_length_and_dec@Item_subselect@@UAEXXZ 00495aa0 f   item_subselect.obj
 0001:00094ab0       ?used_tables@Item_subselect@@UBE_KXZ 00495ab0 f   item_subselect.obj
 0001:00094ae0       ?const_item@Item_subselect@@UBE_NXZ 00495ae0 f   item_subselect.obj
 0001:00094af0       ?get_tmp_table_item@Item_subselect@@UAEPAVItem@@PAVTHD@@@Z 00495af0 f   item_subselect.obj
 0001:00094b60       ?update_used_tables@Item_subselect@@UAEXXZ 00495b60 f   item_subselect.obj
 0001:00094ba0       ?print@Item_subselect@@UAEXPAVString@@W4enum_query_type@@@Z 00495ba0 f   item_subselect.obj
 0001:00094c50       ?invalidate_and_restore_select_lex@Item_singlerow_subselect@@QAEPAVst_select_lex@@XZ 00495c50 f   item_subselect.obj
 0001:00094c70       ?cleanup@Item_maxmin_subselect@@UAEXXZ 00495c70 f   item_subselect.obj
 0001:00094c90       ?print@Item_maxmin_subselect@@UAEXPAVString@@W4enum_query_type@@@Z 00495c90 f   item_subselect.obj
 0001:00094ce0       ?reset@Item_singlerow_subselect@@UAEXXZ 00495ce0 f   item_subselect.obj
 0001:00094d00       ?store@Item_singlerow_subselect@@QAEXIPAVItem@@@Z 00495d00 f   item_subselect.obj
 0001:00094d30       ?result_type@Item_singlerow_subselect@@UBE?AW4Item_result@@XZ 00495d30 f   item_subselect.obj
 0001:00094d40       ?field_type@Item_singlerow_subselect@@UBE?AW4enum_field_types@@XZ 00495d40 f   item_subselect.obj
 0001:00094d50       ?fix_length_and_dec@Item_singlerow_subselect@@UAEXXZ 00495d50 f   item_subselect.obj
 0001:00094e00       ?cols@Item_singlerow_subselect@@UAEIXZ 00495e00 f   item_subselect.obj
 0001:00094e10       ?check_cols@Item_singlerow_subselect@@UAE_NI@Z 00495e10 f   item_subselect.obj
 0001:00094e50       ?null_inside@Item_singlerow_subselect@@UAE_NXZ 00495e50 f   item_subselect.obj
 0001:00094e90       ?bring_value@Item_singlerow_subselect@@UAEXXZ 00495e90 f   item_subselect.obj
 0001:00094ea0       ?val_real@Item_singlerow_subselect@@UAENXZ 00495ea0 f   item_subselect.obj
 0001:00094ef0       ?val_int@Item_singlerow_subselect@@UAE_JXZ 00495ef0 f   item_subselect.obj
 0001:00094f40       ?val_str@Item_singlerow_subselect@@UAEPAVString@@PAV2@@Z 00495f40 f   item_subselect.obj
 0001:00094f90       ?val_decimal@Item_singlerow_subselect@@UAEPAVmy_decimal@@PAV2@@Z 00495f90 f   item_subselect.obj
 0001:00094fe0       ?val_bool@Item_singlerow_subselect@@UAE_NXZ 00495fe0 f   item_subselect.obj
 0001:00095030       ?print@Item_exists_subselect@@UAEXPAVString@@W4enum_query_type@@@Z 00496030 f   item_subselect.obj
 0001:00095070       ?test_limit@Item_in_subselect@@QAE_NPAVst_select_lex_unit@@@Z 00496070 f   item_subselect.obj
 0001:000950c0       ?val_real@Item_exists_subselect@@UAENXZ 004960c0 f   item_subselect.obj
 0001:00095110       ?val_int@Item_exists_subselect@@UAE_JXZ 00496110 f   item_subselect.obj
 0001:00095150       ?val_str@Item_exists_subselect@@UAEPAVString@@PAV2@@Z 00496150 f   item_subselect.obj
 0001:000951a0       ?val_decimal@Item_exists_subselect@@UAEPAVmy_decimal@@PAV2@@Z 004961a0 f   item_subselect.obj
 0001:00095200       ?val_bool@Item_exists_subselect@@UAE_NXZ 00496200 f   item_subselect.obj
 0001:00095240       ?val_real@Item_in_subselect@@UAENXZ 00496240 f   item_subselect.obj
 0001:000952b0       ?val_int@Item_in_subselect@@UAE_JXZ 004962b0 f   item_subselect.obj
 0001:00095310       ?val_str@Item_in_subselect@@UAEPAVString@@PAV2@@Z 00496310 f   item_subselect.obj
 0001:00095390       ?val_bool@Item_in_subselect@@UAE_NXZ 00496390 f   item_subselect.obj
 0001:000953f0       ?val_decimal@Item_in_subselect@@UAEPAVmy_decimal@@PAV2@@Z 004963f0 f   item_subselect.obj
 0001:00095480       ?print@Item_in_subselect@@UAEXPAVString@@W4enum_query_type@@@Z 00496480 f   item_subselect.obj
 0001:000954f0       ?print@Item_allany_subselect@@UAEXPAVString@@W4enum_query_type@@@Z 004964f0 f   item_subselect.obj
 0001:000955c0       ?set_thd@subselect_engine@@QAEXPAVTHD@@@Z 004965c0 f   item_subselect.obj
 0001:000955e0       ??0subselect_single_select_engine@@QAE@PAVst_select_lex@@PAVselect_subselect@@PAVItem_subselect@@@Z 004965e0 f   item_subselect.obj
 0001:00095650       ?is_executed@subselect_single_select_engine@@UBE_NXZ 00496650 f i item_subselect.obj
 0001:00095660       ??1subselect_single_select_engine@@UAE@XZ 00496660 f i item_subselect.obj
 0001:00095670       ?cleanup@subselect_single_select_engine@@UAEXXZ 00496670 f   item_subselect.obj
 0001:00095690       ?cleanup@subselect_union_engine@@UAEXXZ 00496690 f   item_subselect.obj
 0001:000956b0       ?is_executed@subselect_union_engine@@UBE_NXZ 004966b0 f   item_subselect.obj
 0001:000956c0       ?no_rows@subselect_union_engine@@UAE_NXZ 004966c0 f   item_subselect.obj
 0001:000956f0       ?cleanup@subselect_uniquesubquery_engine@@UAEXXZ 004966f0 f   item_subselect.obj
 0001:00095700       ??0subselect_union_engine@@QAE@PAVst_select_lex_unit@@PAVselect_subselect@@PAVItem_subselect@@@Z 00496700 f   item_subselect.obj
 0001:00095780       ??1subselect_union_engine@@UAE@XZ 00496780 f i item_subselect.obj
 0001:00095790       ?prepare@subselect_union_engine@@UAEHXZ 00496790 f   item_subselect.obj
 0001:000957b0       ?prepare@subselect_uniquesubquery_engine@@UAEHXZ 004967b0 f   item_subselect.obj
 0001:000957c0       ?no_rows@subselect_single_select_engine@@UAE_NXZ 004967c0 f   item_subselect.obj
 0001:000957e0       ?fix_length_and_dec@subselect_uniquesubquery_engine@@UAEXPAPAVItem_cache@@@Z 004967e0 f   item_subselect.obj
 0001:000957f0       ?exec@subselect_single_select_engine@@UAEHXZ 004967f0 f   item_subselect.obj
 0001:00095ba0       ?exec@subselect_union_engine@@UAEHXZ 00496ba0 f   item_subselect.obj
 0001:00095bd0       ?scan_table@subselect_uniquesubquery_engine@@QAEHXZ 00496bd0 f   item_subselect.obj
 0001:00095d00       ?copy_ref_key@subselect_uniquesubquery_engine@@QAE_NXZ 00496d00 f   item_subselect.obj
 0001:00095e00       ?exec@subselect_uniquesubquery_engine@@UAEHXZ 00496e00 f   item_subselect.obj
 0001:00095f60       ??1subselect_uniquesubquery_engine@@UAE@XZ 00496f60 f   item_subselect.obj
 0001:00095fa0       ?cols@subselect_uniquesubquery_engine@@UAEIXZ 00496fa0 f i item_subselect.obj
 0001:00095fb0       ?uncacheable@subselect_uniquesubquery_engine@@UAEEXZ 00496fb0 f i item_subselect.obj
 0001:00095fc0       ?upper_select_const_tables@subselect_uniquesubquery_engine@@UAE_KXZ 00496fc0 f i item_subselect.obj
 0001:00095fd0       ?no_rows@subselect_uniquesubquery_engine@@UAE_NXZ 00496fd0 f i item_subselect.obj
 0001:00095fe0       ?exec@subselect_indexsubquery_engine@@UAEHXZ 00496fe0 f   item_subselect.obj
 0001:00096230       ?cols@subselect_single_select_engine@@UAEIXZ 00497230 f   item_subselect.obj
 0001:00096250       ?cols@subselect_union_engine@@UAEIXZ 00497250 f   item_subselect.obj
 0001:00096260       ?uncacheable@subselect_single_select_engine@@UAEEXZ 00497260 f   item_subselect.obj
 0001:00096270       ?uncacheable@subselect_union_engine@@UAEEXZ 00497270 f   item_subselect.obj
 0001:00096280       ?exclude@subselect_single_select_engine@@UAEXXZ 00497280 f   item_subselect.obj
 0001:000962a0       ?exclude@subselect_union_engine@@UAEXXZ 004972a0 f   item_subselect.obj
 0001:000962b0       ?exclude@subselect_uniquesubquery_engine@@UAEXXZ 004972b0 f   item_subselect.obj
 0001:000962c0       ?calc_const_tables@subselect_engine@@SA_KPAUTABLE_LIST@@@Z 004972c0 f   item_subselect.obj
 0001:00096310       ?upper_select_const_tables@subselect_single_select_engine@@UAE_KXZ 00497310 f   item_subselect.obj
 0001:00096330       ?upper_select_const_tables@subselect_union_engine@@UAE_KXZ 00497330 f   item_subselect.obj
 0001:00096350       ?print@subselect_single_select_engine@@UAEXPAVString@@W4enum_query_type@@@Z 00497350 f   item_subselect.obj
 0001:00096370       ?print@subselect_union_engine@@UAEXPAVString@@W4enum_query_type@@@Z 00497370 f   item_subselect.obj
 0001:00096380       ?print@subselect_uniquesubquery_engine@@UAEXPAVString@@W4enum_query_type@@@Z 00497380 f   item_subselect.obj
 0001:000964a0       ?print@subselect_indexsubquery_engine@@UAEXPAVString@@W4enum_query_type@@@Z 004974a0 f   item_subselect.obj
 0001:00096610       ?change_result@subselect_single_select_engine@@UAE_NPAVItem_subselect@@PAVselect_subselect@@@Z 00497610 f   item_subselect.obj
 0001:00096640       ?change_result@subselect_union_engine@@UAE_NPAVItem_subselect@@PAVselect_subselect@@@Z 00497640 f   item_subselect.obj
 0001:00096680       ?change_result@subselect_uniquesubquery_engine@@UAE_NPAVItem_subselect@@PAVselect_subselect@@@Z 00497680 f   item_subselect.obj
 0001:00096690       ?no_tables@subselect_single_select_engine@@UAE_NXZ 00497690 f   item_subselect.obj
 0001:000966b0       ?may_be_null@subselect_single_select_engine@@UAE_NXZ 004976b0 f   item_subselect.obj
 0001:000966f0       ?no_tables@subselect_union_engine@@UAE_NXZ 004976f0 f   item_subselect.obj
 0001:00096720       ?no_tables@subselect_uniquesubquery_engine@@UAE_NXZ 00497720 f   item_subselect.obj
 0001:00096730       ?head@?$List@VItem@@@@QAEPAVItem@@XZ 00497730 f i item_subselect.obj
 0001:00096740       ??0?$List@VCached_item@@@@QAE@XZ 00497740 f i item_subselect.obj
 0001:00096760       ??_9Item@@$BPI@AE          00497760 f i item_subselect.obj
 0001:00096770       ??1Copy_field@@QAE@XZ      00497770 f i item_subselect.obj
 0001:000967a0       ??0Item_ref_null_helper@@QAE@PAUName_resolution_context@@PAVItem_in_subselect@@PAPAVItem@@PBD3@Z 004977a0 f i item_subselect.obj
 0001:000967f0       ?used_tables@Item_ref_null_helper@@UBE_KXZ 004977f0 f i item_subselect.obj
 0001:00096820       ??1Item_ref_null_helper@@UAE@XZ 00497820 f i item_subselect.obj
 0001:00096860       ??0Item_sum@@QAE@PAVItem@@@Z 00497860 f i item_subselect.obj
 0001:000968d0       ??0Item_sum_hybrid@@QAE@PAVItem@@H@Z 004978d0 f i item_subselect.obj
 0001:000969d0       ?keep_field_type@Item_sum_hybrid@@UBE_NXZ 004979d0 f i item_subselect.obj
 0001:000969e0       ?result_type@Item_sum_hybrid@@UBE?AW4Item_result@@XZ 004979e0 f i item_subselect.obj
 0001:000969f0       ?field_type@Item_sum_hybrid@@UBE?AW4enum_field_types@@XZ 004979f0 f i item_subselect.obj
 0001:00096a00       ??1Item_sum_hybrid@@UAE@XZ 00497a00 f i item_subselect.obj
 0001:00096ab0       ??0Item_sum_min@@QAE@PAVItem@@@Z 00497ab0 f i item_subselect.obj
 0001:00096ae0       ?sum_func@Item_sum_min@@UBE?AW4Sumfunctype@Item_sum@@XZ 00497ae0 f i item_subselect.obj
 0001:00096af0       ?func_name@Item_sum_min@@UBEPBDXZ 00497af0 f i item_subselect.obj
 0001:00096b00       ??1Item_sum_min@@UAE@XZ    00497b00 f i item_subselect.obj
 0001:00096b10       ??0Item_sum_max@@QAE@PAVItem@@@Z 00497b10 f i item_subselect.obj
 0001:00096b40       ?sum_func@Item_sum_max@@UBE?AW4Sumfunctype@Item_sum@@XZ 00497b40 f i item_subselect.obj
 0001:00096b50       ?func_name@Item_sum_max@@UBEPBDXZ 00497b50 f i item_subselect.obj
 0001:00096b60       ??1Item_sum_max@@UAE@XZ    00497b60 f i item_subselect.obj
 0001:00096b70       ??0Item_bool_func@@QAE@PAVItem@@0@Z 00497b70 f i item_subselect.obj
 0001:00096ba0       ??0Item_in_optimizer@@QAE@PAVItem@@PAVItem_in_subselect@@@Z 00497ba0 f i item_subselect.obj
 0001:00096bf0       ?func_name@Item_in_optimizer@@UBEPBDXZ 00497bf0 f i item_subselect.obj
 0001:00096c00       ??1Item_in_optimizer@@UAE@XZ 00497c00 f i item_subselect.obj
 0001:00096c40       ??0Item_func_trig_cond@@QAE@PAVItem@@PA_N@Z 00497c40 f i item_subselect.obj
 0001:00096cb0       ?val_int@Item_func_trig_cond@@UAE_JXZ 00497cb0 f i item_subselect.obj
 0001:00096ce0       ?functype@Item_func_trig_cond@@UBE?AW4Functype@Item_func@@XZ 00497ce0 f i item_subselect.obj
 0001:00096cf0       ?func_name@Item_func_trig_cond@@UBEPBDXZ 00497cf0 f i item_subselect.obj
 0001:00096d00       ?const_item@Item_func_trig_cond@@UBE_NXZ 00497d00 f i item_subselect.obj
 0001:00096d10       ??1Item_func_trig_cond@@UAE@XZ 00497d10 f i item_subselect.obj
 0001:00096d50       ??0Item_is_not_null_test@@QAE@PAVItem_in_subselect@@PAVItem@@@Z 00497d50 f i item_subselect.obj
 0001:00096dc0       ?functype@Item_is_not_null_test@@UBE?AW4Functype@Item_func@@XZ 00497dc0 f i item_subselect.obj
 0001:00096dd0       ?func_name@Item_is_not_null_test@@UBEPBDXZ 00497dd0 f i item_subselect.obj
 0001:00096de0       ?used_tables@Item_is_not_null_test@@UBE_KXZ 00497de0 f i item_subselect.obj
 0001:00096df0       ??1Item_is_not_null_test@@UAE@XZ 00497df0 f i item_subselect.obj
 0001:00096e30       ??0Item_cond_or@@QAE@PAVItem@@0@Z 00497e30 f i item_subselect.obj
 0001:00096e60       ??_Gsubselect_uniquesubquery_engine@@UAEPAXI@Z 00497e60 f i item_subselect.obj
 0001:00096e60       ??_Esubselect_uniquesubquery_engine@@UAEPAXI@Z 00497e60 f i item_subselect.obj
 0001:00096e80       ??0TMP_TABLE_PARAM@@QAE@XZ 00497e80 f i item_subselect.obj
 0001:00096ed0       ??_ECopy_field@@QAEPAXI@Z  00497ed0 f i item_subselect.obj
 0001:00096f70       ??0select_singlerow_subselect@@QAE@PAVItem_subselect@@@Z 00497f70 f i item_subselect.obj
 0001:00096f90       ??1select_singlerow_subselect@@UAE@XZ 00497f90 f i item_subselect.obj
 0001:00096fa0       ??_Eselect_singlerow_subselect@@UAEPAXI@Z 00497fa0 f i item_subselect.obj
 0001:00096fa0       ??_Gselect_singlerow_subselect@@UAEPAXI@Z 00497fa0 f i item_subselect.obj
 0001:00096fb0       ??_Gselect_max_min_finder_subselect@@UAEPAXI@Z 00497fb0 f i item_subselect.obj
 0001:00096fb0       ??_Eselect_max_min_finder_subselect@@UAEPAXI@Z 00497fb0 f i item_subselect.obj
 0001:00096fc0       ??_Eselect_exists_subselect@@UAEPAXI@Z 00497fc0 f i item_subselect.obj
 0001:00096fc0       ??_Gselect_exists_subselect@@UAEPAXI@Z 00497fc0 f i item_subselect.obj
 0001:00096fd0       ?and_items@@YAPAVItem@@PAV1@0@Z 00497fd0 f i item_subselect.obj
 0001:00097050       ??0Item_subselect@@QAE@XZ  00498050 f   item_subselect.obj
 0001:000970b0       ?substype@Item_subselect@@UAE?AW4subs_type@1@XZ 004980b0 f i item_subselect.obj
 0001:000970c0       ?is_null@Item_subselect@@UAE_NXZ 004980c0 f i item_subselect.obj
 0001:000970e0       ?not_null_tables@Item_subselect@@UBE_KXZ 004980e0 f i item_subselect.obj
 0001:000970f0       ?have_guarded_conds@Item_subselect@@UAE_NXZ 004980f0 f i item_subselect.obj
 0001:00097100       ?reset_value_registration@Item_subselect@@UAEXXZ 00498100 f i item_subselect.obj
 0001:00097110       ?init@Item_subselect@@UAEXPAVst_select_lex@@PAVselect_subselect@@@Z 00498110 f   item_subselect.obj
 0001:00097240       ??1Item_subselect@@UAE@XZ  00498240 f   item_subselect.obj
 0001:000972a0       ?fix_fields@Item_subselect@@UAE_NPAVTHD@@PAPAVItem@@@Z 004982a0 f   item_subselect.obj
 0001:00097480       ??0Item_singlerow_subselect@@QAE@PAVst_select_lex@@@Z 00498480 f   item_subselect.obj
 0001:000974f0       ?substype@Item_singlerow_subselect@@UAE?AW4subs_type@Item_subselect@@XZ 004984f0 f i item_subselect.obj
 0001:00097500       ?element_index@Item_singlerow_subselect@@UAEPAVItem@@I@Z 00498500 f i item_subselect.obj
 0001:00097520       ?addr@Item_singlerow_subselect@@UAEPAPAVItem@@I@Z 00498520 f i item_subselect.obj
 0001:00097540       ?select_transformer@Item_singlerow_subselect@@UAE?AW4trans_res@Item_subselect@@PAVJOIN@@@Z 00498540 f   item_subselect.obj
 0001:00097710       ??0Item_exists_subselect@@QAE@PAVst_select_lex@@@Z 00498710 f   item_subselect.obj
 0001:00097790       ?substype@Item_exists_subselect@@UAE?AW4subs_type@Item_subselect@@XZ 00498790 f i item_subselect.obj
 0001:000977a0       ?reset@Item_exists_subselect@@UAEXXZ 004987a0 f i item_subselect.obj
 0001:000977b0       ?result_type@Item_exists_subselect@@UBE?AW4Item_result@@XZ 004987b0 f i item_subselect.obj
 0001:000977c0       ?row_value_transformer@Item_in_subselect@@QAE?AW4trans_res@Item_subselect@@PAVJOIN@@@Z 004987c0 f   item_subselect.obj
 0001:00098320       ?fix_fields@Item_in_subselect@@UAE_NPAVTHD@@PAPAVItem@@@Z 00499320 f   item_subselect.obj
 0001:00098390       ??_Gsubselect_single_select_engine@@UAEPAXI@Z 00499390 f i item_subselect.obj
 0001:00098390       ??_Esubselect_single_select_engine@@UAEPAXI@Z 00499390 f i item_subselect.obj
 0001:000983a0       ??_Gsubselect_union_engine@@UAEPAXI@Z 004993a0 f i item_subselect.obj
 0001:000983a0       ??_Esubselect_union_engine@@UAEPAXI@Z 004993a0 f i item_subselect.obj
 0001:000983b0       ??_EItem_ref_null_helper@@UAEPAXI@Z 004993b0 f i item_subselect.obj
 0001:000983b0       ??_GItem_ref_null_helper@@UAEPAXI@Z 004993b0 f i item_subselect.obj
 0001:000983f0       ??_GItem_sum_hybrid@@UAEPAXI@Z 004993f0 f i item_subselect.obj
 0001:000983f0       ??_EItem_sum_hybrid@@UAEPAXI@Z 004993f0 f i item_subselect.obj
 0001:00098410       ??_GItem_sum_min@@UAEPAXI@Z 00499410 f i item_subselect.obj
 0001:00098410       ??_EItem_sum_min@@UAEPAXI@Z 00499410 f i item_subselect.obj
 0001:00098430       ??_EItem_sum_max@@UAEPAXI@Z 00499430 f i item_subselect.obj
 0001:00098430       ??_GItem_sum_max@@UAEPAXI@Z 00499430 f i item_subselect.obj
 0001:00098450       ??_GItem_in_optimizer@@UAEPAXI@Z 00499450 f i item_subselect.obj
 0001:00098450       ??_EItem_in_optimizer@@UAEPAXI@Z 00499450 f i item_subselect.obj
 0001:00098490       ??_EItem_func_trig_cond@@UAEPAXI@Z 00499490 f i item_subselect.obj
 0001:00098490       ??_GItem_func_trig_cond@@UAEPAXI@Z 00499490 f i item_subselect.obj
 0001:000984d0       ??_GItem_is_not_null_test@@UAEPAXI@Z 004994d0 f i item_subselect.obj
 0001:000984d0       ??_EItem_is_not_null_test@@UAEPAXI@Z 004994d0 f i item_subselect.obj
 0001:00098510       ??0Item_singlerow_subselect@@QAE@XZ 00499510 f i item_subselect.obj
 0001:00098540       ??1Item_singlerow_subselect@@UAE@XZ 00499540 f i item_subselect.obj
 0001:00098550       ??0Item_exists_subselect@@QAE@XZ 00499550 f i item_subselect.obj
 0001:00098570       ??1Item_exists_subselect@@UAE@XZ 00499570 f i item_subselect.obj
 0001:00098580       ??0Item_in_subselect@@QAE@XZ 00499580 f i item_subselect.obj
 0001:000985c0       ?have_guarded_conds@Item_in_subselect@@UAE_NXZ 004995c0 f i item_subselect.obj
 0001:000985d0       ?substype@Item_in_subselect@@UAE?AW4subs_type@Item_subselect@@XZ 004995d0 f i item_subselect.obj
 0001:000985e0       ?update_null_value@Item_in_subselect@@UAEXXZ 004995e0 f i item_subselect.obj
 0001:000985f0       ?top_level_item@Item_in_subselect@@UAEXXZ 004995f0 f i item_subselect.obj
 0001:00098600       ??1Item_in_subselect@@UAE@XZ 00499600 f i item_subselect.obj
 0001:00098610       ?cleanup@TMP_TABLE_PARAM@@QAEXXZ 00499610 f i item_subselect.obj
 0001:00098640       ??_GItem_subselect@@UAEPAXI@Z 00499640 f i item_subselect.obj
 0001:00098640       ??_EItem_subselect@@UAEPAXI@Z 00499640 f i item_subselect.obj
 0001:00098660       ?walk@Item_subselect@@UAE_NP8Item@@AE_NPAE@Z_N0@Z 00499660 f   item_subselect.obj
 0001:000987e0       ??0Item_maxmin_subselect@@QAE@PAVTHD@@PAVItem_subselect@@PAVst_select_lex@@_N@Z 004997e0 f   item_subselect.obj
 0001:000988b0       ?reset_value_registration@Item_maxmin_subselect@@UAEXXZ 004998b0 f i item_subselect.obj
 0001:000988c0       ??1Item_maxmin_subselect@@UAE@XZ 004998c0 f i item_subselect.obj
 0001:000988d0       ??0Item_in_subselect@@QAE@PAVItem@@PAVst_select_lex@@@Z 004998d0 f   item_subselect.obj
 0001:000989a0       ??0Item_allany_subselect@@QAE@PAVItem@@P6APAVComp_creator@@_N@ZPAVst_select_lex@@1@Z 004999a0 f   item_subselect.obj
 0001:00098a90       ?substype@Item_allany_subselect@@UAE?AW4subs_type@Item_subselect@@XZ 00499a90 f i item_subselect.obj
 0001:00098ab0       ??1Item_allany_subselect@@UAE@XZ 00499ab0 f i item_subselect.obj
 0001:00098ac0       ?fix_length_and_dec@Item_exists_subselect@@UAEXXZ 00499ac0 f   item_subselect.obj
 0001:00098b60       ?single_value_transformer@Item_in_subselect@@QAE?AW4trans_res@Item_subselect@@PAVJOIN@@PAVComp_creator@@@Z 00499b60 f   item_subselect.obj
 0001:00099580       ?select_in_like_transformer@Item_in_subselect@@QAE?AW4trans_res@Item_subselect@@PAVJOIN@@PAVComp_creator@@@Z 0049a580 f   item_subselect.obj
 0001:00099880       ?select_transformer@Item_allany_subselect@@UAE?AW4trans_res@Item_subselect@@PAVJOIN@@@Z 0049a880 f   item_subselect.obj
 0001:000998c0       ?set_row@subselect_engine@@IAEXAAV?$List@VItem@@@@PAPAVItem_cache@@@Z 0049a8c0 f   item_subselect.obj
 0001:00099990       ?fix_length_and_dec@subselect_single_select_engine@@UAEXPAPAVItem_cache@@@Z 0049a990 f   item_subselect.obj
 0001:000999f0       ?fix_length_and_dec@subselect_union_engine@@UAEXPAPAVItem_cache@@@Z 0049a9f0 f   item_subselect.obj
 0001:00099a70       ??_GItem_singlerow_subselect@@UAEPAXI@Z 0049aa70 f i item_subselect.obj
 0001:00099a70       ??_EItem_singlerow_subselect@@UAEPAXI@Z 0049aa70 f i item_subselect.obj
 0001:00099a90       ??_GItem_exists_subselect@@UAEPAXI@Z 0049aa90 f i item_subselect.obj
 0001:00099a90       ??_EItem_exists_subselect@@UAEPAXI@Z 0049aa90 f i item_subselect.obj
 0001:00099ab0       ??_GItem_in_subselect@@UAEPAXI@Z 0049aab0 f i item_subselect.obj
 0001:00099ab0       ??_EItem_in_subselect@@UAEPAXI@Z 0049aab0 f i item_subselect.obj
 0001:00099ad0       ??1TMP_TABLE_PARAM@@QAE@XZ 0049aad0 f i item_subselect.obj
 0001:00099b00       ??0JOIN@@QAE@PAVTHD@@AAV?$List@VItem@@@@_KPAVselect_result@@@Z 0049ab00 f i item_subselect.obj
 0001:00099cc0       ??_EItem_maxmin_subselect@@UAEPAXI@Z 0049acc0 f i item_subselect.obj
 0001:00099cc0       ??_GItem_maxmin_subselect@@UAEPAXI@Z 0049acc0 f i item_subselect.obj
 0001:00099ce0       ??_GItem_allany_subselect@@UAEPAXI@Z 0049ace0 f i item_subselect.obj
 0001:00099ce0       ??_EItem_allany_subselect@@UAEPAXI@Z 0049ace0 f i item_subselect.obj
 0001:00099d00       ?select_transformer@Item_in_subselect@@UAE?AW4trans_res@Item_subselect@@PAVJOIN@@@Z 0049ad00 f   item_subselect.obj
 0001:00099d20       ?prepare@subselect_single_select_engine@@UAEHXZ 0049ad20 f   item_subselect.obj
 0001:00099e60       ??2String@@SAPAXIPAUst_mem_root@@@Z 0049ae60 f i item_sum.obj
 0001:00099e80       ?is_null_in_record@Field@@QAE_NPBE@Z 0049ae80 f i item_sum.obj
 0001:00099eb0       ?val_str@Field@@QAEPAVString@@PAV2@PBE@Z 0049aeb0 f i item_sum.obj
 0001:00099ee0       ?offset@Field@@QAEIPAE@Z   0049aee0 f i item_sum.obj
 0001:00099ef0       ?clear@udf_handler@@QAEXXZ 0049aef0 f i item_sum.obj
 0001:00099f20       ?add@udf_handler@@QAEXPAD@Z 0049af20 f i item_sum.obj
 0001:00099f90       ?reset@Item_sum@@QAE_NXZ   0049af90 f i item_sum.obj
 0001:00099fb0       ?val_decimal@Item_variance_field@@UAEPAVmy_decimal@@PAV2@@Z 0049afb0 f i item_sum.obj
 0001:00099fc0       ?elements_in_tree@Unique@@QAEKXZ 0049afc0 f i item_sum.obj
 0001:00099fd0       ?unique_add@Unique@@QAE_NPAX@Z 0049afd0 f i item_sum.obj
 0001:0009a030       ?init_sum_func_check@Item_sum@@QAE_NPAVTHD@@@Z 0049b030 f   item_sum.obj
 0001:0009a0d0       ?register_sum_func@Item_sum@@QAE_NPAVTHD@@PAPAVItem@@@Z 0049b0d0 f   item_sum.obj
 0001:0009a250       ?mark_as_sum_func@Item_sum@@QAEXXZ 0049b250 f   item_sum.obj
 0001:0009a290       ?make_field@Item_sum@@UAEXPAVSend_field@@@Z 0049b290 f   item_sum.obj
 0001:0009a330       ?print@Item_sum@@UAEXPAVString@@W4enum_query_type@@@Z 0049b330 f   item_sum.obj
 0001:0009a420       ?fix_num_length_and_dec@Item_sum@@QAEXXZ 0049b420 f   item_sum.obj
 0001:0009a480       ?get_tmp_table_item@Item_sum@@UAEPAVItem@@PAVTHD@@@Z 0049b480 f   item_sum.obj
 0001:0009a530       ?walk@Item_sum@@UAE_NP8Item@@AE_NPAE@Z_N0@Z 0049b530 f   item_sum.obj
 0001:0009a5b0       ?update_used_tables@Item_sum@@UAEXXZ 0049b5b0 f   item_sum.obj
 0001:0009a680       ?set_arg@Item_sum@@QAEPAVItem@@HPAVTHD@@PAV2@@Z 0049b680 f   item_sum.obj
 0001:0009a6c0       ?val_str@Item_sum_num@@UAEPAVString@@PAV2@@Z 0049b6c0 f   item_sum.obj
 0001:0009a6d0       ?val_decimal@Item_sum_num@@UAEPAVmy_decimal@@PAV2@@Z 0049b6d0 f   item_sum.obj
 0001:0009a6e0       ?val_str@Item_sum_int@@UAEPAVString@@PAV2@@Z 0049b6e0 f   item_sum.obj
 0001:0009a6f0       ?val_decimal@Item_sum_int@@UAEPAVmy_decimal@@PAV2@@Z 0049b6f0 f   item_sum.obj
 0001:0009a700       ?clear@Item_sum_sum@@UAEXXZ 0049b700 f   item_sum.obj
 0001:0009a750       ?fix_length_and_dec@Item_sum_sum@@MAEXXZ 0049b750 f   item_sum.obj
 0001:0009a830       ?add@Item_sum_sum@@UAE_NXZ 0049b830 f   item_sum.obj
 0001:0009a910       ?val_int@Item_sum_sum@@UAE_JXZ 0049b910 f   item_sum.obj
 0001:0009a990       ?val_real@Item_sum_sum@@UAENXZ 0049b990 f   item_sum.obj
 0001:0009a9e0       ?val_str@Item_sum_sum@@UAEPAVString@@PAV2@@Z 0049b9e0 f   item_sum.obj
 0001:0009aa00       ?val_decimal@Item_sum_sum@@UAEPAVmy_decimal@@PAV2@@Z 0049ba00 f   item_sum.obj
 0001:0009ab10       ??0Hybrid_type_traits_fast_decimal@@QAE@XZ 0049bb10 f i item_sum.obj
 0001:0009ab20       ?type@Hybrid_type_traits_fast_decimal@@UBE?AW4Item_result@@XZ 0049bb20 f i item_sum.obj
 0001:0009ab30       ?fix_length_and_dec@Hybrid_type_traits_fast_decimal@@UBEXPAVItem@@0@Z 0049bb30 f i item_sum.obj
 0001:0009ab50       ?div@Hybrid_type_traits_fast_decimal@@UBEXPAUHybrid_type@@_K@Z 0049bb50 f i item_sum.obj
 0001:0009abc0       ??1Hybrid_type_traits_fast_decimal@@UAE@XZ 0049bbc0 f i item_sum.obj
 0001:0009abd0       ?instance@Hybrid_type_traits_fast_decimal@@SAPBU1@XZ 0049bbd0 f   item_sum.obj
 0001:0009abe0       ?fix_length_and_dec@Item_sum_distinct@@UAEXXZ 0049bbe0 f   item_sum.obj
 0001:0009ace0       ?add@Item_sum_distinct@@UAE_NXZ 0049bce0 f   item_sum.obj
 0001:0009adb0       ?unique_walk_function@Item_sum_distinct@@UAE_NPAX@Z 0049bdb0 f   item_sum.obj
 0001:0009ae20       ?clear@Item_sum_distinct@@UAEXXZ 0049be20 f   item_sum.obj
 0001:0009ae50       ??_GUnique@@QAEPAXI@Z      0049be50 f i item_sum.obj
 0001:0009ae70       ?calculate_val_and_count@Item_sum_distinct@@UAEXXZ 0049be70 f   item_sum.obj
 0001:0009af00       ?val_real@Item_sum_distinct@@UAENXZ 0049bf00 f   item_sum.obj
 0001:0009af30       ?val_decimal@Item_sum_distinct@@UAEPAVmy_decimal@@PAV2@@Z 0049bf30 f   item_sum.obj
 0001:0009af80       ?val_int@Item_sum_distinct@@UAE_JXZ 0049bf80 f   item_sum.obj
 0001:0009afc0       ?val_str@Item_sum_distinct@@UAEPAVString@@PAV2@@Z 0049bfc0 f   item_sum.obj
 0001:0009b010       ?fix_length_and_dec@Item_sum_avg_distinct@@UAEXXZ 0049c010 f   item_sum.obj
 0001:0009b060       ?calculate_val_and_count@Item_sum_avg_distinct@@UAEXXZ 0049c060 f   item_sum.obj
 0001:0009b0c0       ?clear@Item_sum_count@@UAEXXZ 0049c0c0 f   item_sum.obj
 0001:0009b0e0       ?add@Item_sum_count@@UAE_NXZ 0049c0e0 f   item_sum.obj
 0001:0009b120       ?val_int@Item_sum_count@@UAE_JXZ 0049c120 f   item_sum.obj
 0001:0009b130       ?cleanup@Item_sum_count@@UAEXXZ 0049c130 f   item_sum.obj
 0001:0009b160       ?fix_length_and_dec@Item_sum_avg@@UAEXXZ 0049c160 f   item_sum.obj
 0001:0009b2a0       ?clear@Item_sum_avg@@UAEXXZ 0049c2a0 f   item_sum.obj
 0001:0009b2c0       ?add@Item_sum_avg@@UAE_NXZ 0049c2c0 f   item_sum.obj
 0001:0009b300       ?val_real@Item_sum_avg@@UAENXZ 0049c300 f   item_sum.obj
 0001:0009b380       ?val_decimal@Item_sum_avg@@UAEPAVmy_decimal@@PAV2@@Z 0049c380 f   item_sum.obj
 0001:0009b470       ?val_str@Item_sum_avg@@UAEPAVString@@PAV2@@Z 0049c470 f   item_sum.obj
 0001:0009b5c0       ?fix_length_and_dec@Item_sum_variance@@EAEXXZ 0049c5c0 f   item_sum.obj
 0001:0009b6c0       ?clear@Item_sum_variance@@UAEXXZ 0049c6c0 f   item_sum.obj
 0001:0009b6e0       ?add@Item_sum_variance@@UAE_NXZ 0049c6e0 f   item_sum.obj
 0001:0009b740       ?val_real@Item_sum_variance@@UAENXZ 0049c740 f   item_sum.obj
 0001:0009b7a0       ?val_decimal@Item_sum_variance@@UAEPAVmy_decimal@@PAV2@@Z 0049c7a0 f   item_sum.obj
 0001:0009b7b0       ?reset_field@Item_sum_variance@@UAEXXZ 0049c7b0 f   item_sum.obj
 0001:0009b840       ?update_field@Item_sum_variance@@UAEXXZ 0049c840 f   item_sum.obj
 0001:0009b920       ?clear@Item_sum_hybrid@@UAEXXZ 0049c920 f   item_sum.obj
 0001:0009b9a0       ?val_real@Item_sum_hybrid@@UAENXZ 0049c9a0 f   item_sum.obj
 0001:0009baa0       ?val_int@Item_sum_hybrid@@UAE_JXZ 0049caa0 f   item_sum.obj
 0001:0009bb30       ?val_decimal@Item_sum_hybrid@@UAEPAVmy_decimal@@PAV2@@Z 0049cb30 f   item_sum.obj
 0001:0009bc10       ?val_str@Item_sum_hybrid@@UAEPAVString@@PAV2@@Z 0049cc10 f   item_sum.obj
 0001:0009bcf0       ?cleanup@Item_sum_hybrid@@UAEXXZ 0049ccf0 f   item_sum.obj
 0001:0009bd10       ?no_rows_in_result@Item_sum_hybrid@@UAEXXZ 0049cd10 f   item_sum.obj
 0001:0009bd30       ?add@Item_sum_min@@UAE_NXZ 0049cd30 f   item_sum.obj
 0001:0009bf60       ?add@Item_sum_max@@UAE_NXZ 0049cf60 f   item_sum.obj
 0001:0009c190       ?val_int@Item_sum_bit@@UAE_JXZ 0049d190 f   item_sum.obj
